
cp_trial_stm32.elf:     file format elf32-littlearm

Sections:
Idx Name          Size      VMA       LMA       File off  Algn
  0 .isr_vector   000000bc  08000000  08000000  00001000  2**0
                  CONTENTS, ALLOC, LOAD, READONLY, DATA
  1 .text         000064c8  080000c0  080000c0  000010c0  2**3
                  CONTENTS, ALLOC, LOAD, READONLY, CODE
  2 .rodata       000001b4  08006588  08006588  00007588  2**2
                  CONTENTS, ALLOC, LOAD, READONLY, DATA
  3 .ARM.extab    00000000  0800673c  0800673c  00008094  2**0
                  CONTENTS, READONLY
  4 .ARM          00000008  0800673c  0800673c  0000773c  2**2
                  CONTENTS, ALLOC, LOAD, READONLY, DATA
  5 .preinit_array 00000000  08006744  08006744  00008094  2**0
                  CONTENTS, ALLOC, LOAD, DATA
  6 .init_array   00000004  08006744  08006744  00007744  2**2
                  CONTENTS, ALLOC, LOAD, READONLY, DATA
  7 .fini_array   00000004  08006748  08006748  00007748  2**2
                  CONTENTS, ALLOC, LOAD, READONLY, DATA
  8 .data         00000094  20000000  0800674c  00008000  2**2
                  CONTENTS, ALLOC, LOAD, CODE
  9 .bss          000009d4  20000094  080067e0  00008094  2**2
                  ALLOC
 10 ._user_heap_stack 00000600  20000a68  080067e0  00008a68  2**0
                  ALLOC
 11 .ARM.attributes 00000028  00000000  00000000  00008094  2**0
                  CONTENTS, READONLY
 12 .debug_info   000233f1  00000000  00000000  000080bc  2**0
                  CONTENTS, READONLY, DEBUGGING, OCTETS
 13 .debug_abbrev 00004f17  00000000  00000000  0002b4ad  2**0
                  CONTENTS, READONLY, DEBUGGING, OCTETS
 14 .debug_loclists 0000ecd6  00000000  00000000  000303c4  2**0
                  CONTENTS, READONLY, DEBUGGING, OCTETS
 15 .debug_aranges 000014b0  00000000  00000000  0003f0a0  2**3
                  CONTENTS, READONLY, DEBUGGING, OCTETS
 16 .debug_rnglists 000016b2  00000000  00000000  00040550  2**0
                  CONTENTS, READONLY, DEBUGGING, OCTETS
 17 .debug_macro  0001a7e9  00000000  00000000  00041c02  2**0
                  CONTENTS, READONLY, DEBUGGING, OCTETS
 18 .debug_line   00026616  00000000  00000000  0005c3eb  2**0
                  CONTENTS, READONLY, DEBUGGING, OCTETS
 19 .debug_str    000a1874  00000000  00000000  00082a01  2**0
                  CONTENTS, READONLY, DEBUGGING, OCTETS
 20 .comment      00000086  00000000  00000000  00124275  2**0
                  CONTENTS, READONLY
 21 .debug_frame  00003fb4  00000000  00000000  001242fc  2**2
                  CONTENTS, READONLY, DEBUGGING, OCTETS
 22 .debug_line_str 0000007d  00000000  00000000  001282b0  2**0
                  CONTENTS, READONLY, DEBUGGING, OCTETS

Disassembly of section .text:

080000c0 <__do_global_dtors_aux>:
 80000c0:	b510      	push	{r4, lr}
 80000c2:	4c06      	ldr	r4, [pc, #24]	@ (80000dc <__do_global_dtors_aux+0x1c>)
 80000c4:	7823      	ldrb	r3, [r4, #0]
 80000c6:	2b00      	cmp	r3, #0
 80000c8:	d107      	bne.n	80000da <__do_global_dtors_aux+0x1a>
 80000ca:	4b05      	ldr	r3, [pc, #20]	@ (80000e0 <__do_global_dtors_aux+0x20>)
 80000cc:	2b00      	cmp	r3, #0
 80000ce:	d002      	beq.n	80000d6 <__do_global_dtors_aux+0x16>
 80000d0:	4804      	ldr	r0, [pc, #16]	@ (80000e4 <__do_global_dtors_aux+0x24>)
 80000d2:	e000      	b.n	80000d6 <__do_global_dtors_aux+0x16>
 80000d4:	bf00      	nop
 80000d6:	2301      	movs	r3, #1
 80000d8:	7023      	strb	r3, [r4, #0]
 80000da:	bd10      	pop	{r4, pc}
 80000dc:	20000094 	.word	0x20000094
 80000e0:	00000000 	.word	0x00000000
 80000e4:	0800655c 	.word	0x0800655c

080000e8 <frame_dummy>:
 80000e8:	4b04      	ldr	r3, [pc, #16]	@ (80000fc <frame_dummy+0x14>)
 80000ea:	b510      	push	{r4, lr}
 80000ec:	2b00      	cmp	r3, #0
 80000ee:	d003      	beq.n	80000f8 <frame_dummy+0x10>
 80000f0:	4903      	ldr	r1, [pc, #12]	@ (8000100 <frame_dummy+0x18>)
 80000f2:	4804      	ldr	r0, [pc, #16]	@ (8000104 <frame_dummy+0x1c>)
 80000f4:	e000      	b.n	80000f8 <frame_dummy+0x10>
 80000f6:	bf00      	nop
 80000f8:	bd10      	pop	{r4, pc}
 80000fa:	46c0      	nop			@ (mov r8, r8)
 80000fc:	00000000 	.word	0x00000000
 8000100:	20000098 	.word	0x20000098
 8000104:	0800655c 	.word	0x0800655c

08000108 <strcmp>:
 8000108:	7802      	ldrb	r2, [r0, #0]
 800010a:	780b      	ldrb	r3, [r1, #0]
 800010c:	2a00      	cmp	r2, #0
 800010e:	d003      	beq.n	8000118 <strcmp+0x10>
 8000110:	3001      	adds	r0, #1
 8000112:	3101      	adds	r1, #1
 8000114:	429a      	cmp	r2, r3
 8000116:	d0f7      	beq.n	8000108 <strcmp>
 8000118:	1ad0      	subs	r0, r2, r3
 800011a:	4770      	bx	lr

0800011c <strlen>:
 800011c:	2300      	movs	r3, #0
 800011e:	5cc2      	ldrb	r2, [r0, r3]
 8000120:	3301      	adds	r3, #1
 8000122:	2a00      	cmp	r2, #0
 8000124:	d1fb      	bne.n	800011e <strlen+0x2>
 8000126:	1e58      	subs	r0, r3, #1
 8000128:	4770      	bx	lr
	...

0800012c <__gnu_thumb1_case_uqi>:
 800012c:	b402      	push	{r1}
 800012e:	4671      	mov	r1, lr
 8000130:	0849      	lsrs	r1, r1, #1
 8000132:	0049      	lsls	r1, r1, #1
 8000134:	5c09      	ldrb	r1, [r1, r0]
 8000136:	0049      	lsls	r1, r1, #1
 8000138:	448e      	add	lr, r1
 800013a:	bc02      	pop	{r1}
 800013c:	4770      	bx	lr
 800013e:	46c0      	nop			@ (mov r8, r8)

08000140 <__gnu_thumb1_case_shi>:
 8000140:	b403      	push	{r0, r1}
 8000142:	4671      	mov	r1, lr
 8000144:	0849      	lsrs	r1, r1, #1
 8000146:	0040      	lsls	r0, r0, #1
 8000148:	0049      	lsls	r1, r1, #1
 800014a:	5e09      	ldrsh	r1, [r1, r0]
 800014c:	0049      	lsls	r1, r1, #1
 800014e:	448e      	add	lr, r1
 8000150:	bc03      	pop	{r0, r1}
 8000152:	4770      	bx	lr

08000154 <__gnu_thumb1_case_uhi>:
 8000154:	b403      	push	{r0, r1}
 8000156:	4671      	mov	r1, lr
 8000158:	0849      	lsrs	r1, r1, #1
 800015a:	0040      	lsls	r0, r0, #1
 800015c:	0049      	lsls	r1, r1, #1
 800015e:	5a09      	ldrh	r1, [r1, r0]
 8000160:	0049      	lsls	r1, r1, #1
 8000162:	448e      	add	lr, r1
 8000164:	bc03      	pop	{r0, r1}
 8000166:	4770      	bx	lr

08000168 <__udivsi3>:
 8000168:	2200      	movs	r2, #0
 800016a:	0843      	lsrs	r3, r0, #1
 800016c:	428b      	cmp	r3, r1
 800016e:	d374      	bcc.n	800025a <__udivsi3+0xf2>
 8000170:	0903      	lsrs	r3, r0, #4
 8000172:	428b      	cmp	r3, r1
 8000174:	d35f      	bcc.n	8000236 <__udivsi3+0xce>
 8000176:	0a03      	lsrs	r3, r0, #8
 8000178:	428b      	cmp	r3, r1
 800017a:	d344      	bcc.n	8000206 <__udivsi3+0x9e>
 800017c:	0b03      	lsrs	r3, r0, #12
 800017e:	428b      	cmp	r3, r1
 8000180:	d328      	bcc.n	80001d4 <__udivsi3+0x6c>
 8000182:	0c03      	lsrs	r3, r0, #16
 8000184:	428b      	cmp	r3, r1
 8000186:	d30d      	bcc.n	80001a4 <__udivsi3+0x3c>
 8000188:	22ff      	movs	r2, #255	@ 0xff
 800018a:	0209      	lsls	r1, r1, #8
 800018c:	ba12      	rev	r2, r2
 800018e:	0c03      	lsrs	r3, r0, #16
 8000190:	428b      	cmp	r3, r1
 8000192:	d302      	bcc.n	800019a <__udivsi3+0x32>
 8000194:	1212      	asrs	r2, r2, #8
 8000196:	0209      	lsls	r1, r1, #8
 8000198:	d065      	beq.n	8000266 <__udivsi3+0xfe>
 800019a:	0b03      	lsrs	r3, r0, #12
 800019c:	428b      	cmp	r3, r1
 800019e:	d319      	bcc.n	80001d4 <__udivsi3+0x6c>
 80001a0:	e000      	b.n	80001a4 <__udivsi3+0x3c>
 80001a2:	0a09      	lsrs	r1, r1, #8
 80001a4:	0bc3      	lsrs	r3, r0, #15
 80001a6:	428b      	cmp	r3, r1
 80001a8:	d301      	bcc.n	80001ae <__udivsi3+0x46>
 80001aa:	03cb      	lsls	r3, r1, #15
 80001ac:	1ac0      	subs	r0, r0, r3
 80001ae:	4152      	adcs	r2, r2
 80001b0:	0b83      	lsrs	r3, r0, #14
 80001b2:	428b      	cmp	r3, r1
 80001b4:	d301      	bcc.n	80001ba <__udivsi3+0x52>
 80001b6:	038b      	lsls	r3, r1, #14
 80001b8:	1ac0      	subs	r0, r0, r3
 80001ba:	4152      	adcs	r2, r2
 80001bc:	0b43      	lsrs	r3, r0, #13
 80001be:	428b      	cmp	r3, r1
 80001c0:	d301      	bcc.n	80001c6 <__udivsi3+0x5e>
 80001c2:	034b      	lsls	r3, r1, #13
 80001c4:	1ac0      	subs	r0, r0, r3
 80001c6:	4152      	adcs	r2, r2
 80001c8:	0b03      	lsrs	r3, r0, #12
 80001ca:	428b      	cmp	r3, r1
 80001cc:	d301      	bcc.n	80001d2 <__udivsi3+0x6a>
 80001ce:	030b      	lsls	r3, r1, #12
 80001d0:	1ac0      	subs	r0, r0, r3
 80001d2:	4152      	adcs	r2, r2
 80001d4:	0ac3      	lsrs	r3, r0, #11
 80001d6:	428b      	cmp	r3, r1
 80001d8:	d301      	bcc.n	80001de <__udivsi3+0x76>
 80001da:	02cb      	lsls	r3, r1, #11
 80001dc:	1ac0      	subs	r0, r0, r3
 80001de:	4152      	adcs	r2, r2
 80001e0:	0a83      	lsrs	r3, r0, #10
 80001e2:	428b      	cmp	r3, r1
 80001e4:	d301      	bcc.n	80001ea <__udivsi3+0x82>
 80001e6:	028b      	lsls	r3, r1, #10
 80001e8:	1ac0      	subs	r0, r0, r3
 80001ea:	4152      	adcs	r2, r2
 80001ec:	0a43      	lsrs	r3, r0, #9
 80001ee:	428b      	cmp	r3, r1
 80001f0:	d301      	bcc.n	80001f6 <__udivsi3+0x8e>
 80001f2:	024b      	lsls	r3, r1, #9
 80001f4:	1ac0      	subs	r0, r0, r3
 80001f6:	4152      	adcs	r2, r2
 80001f8:	0a03      	lsrs	r3, r0, #8
 80001fa:	428b      	cmp	r3, r1
 80001fc:	d301      	bcc.n	8000202 <__udivsi3+0x9a>
 80001fe:	020b      	lsls	r3, r1, #8
 8000200:	1ac0      	subs	r0, r0, r3
 8000202:	4152      	adcs	r2, r2
 8000204:	d2cd      	bcs.n	80001a2 <__udivsi3+0x3a>
 8000206:	09c3      	lsrs	r3, r0, #7
 8000208:	428b      	cmp	r3, r1
 800020a:	d301      	bcc.n	8000210 <__udivsi3+0xa8>
 800020c:	01cb      	lsls	r3, r1, #7
 800020e:	1ac0      	subs	r0, r0, r3
 8000210:	4152      	adcs	r2, r2
 8000212:	0983      	lsrs	r3, r0, #6
 8000214:	428b      	cmp	r3, r1
 8000216:	d301      	bcc.n	800021c <__udivsi3+0xb4>
 8000218:	018b      	lsls	r3, r1, #6
 800021a:	1ac0      	subs	r0, r0, r3
 800021c:	4152      	adcs	r2, r2
 800021e:	0943      	lsrs	r3, r0, #5
 8000220:	428b      	cmp	r3, r1
 8000222:	d301      	bcc.n	8000228 <__udivsi3+0xc0>
 8000224:	014b      	lsls	r3, r1, #5
 8000226:	1ac0      	subs	r0, r0, r3
 8000228:	4152      	adcs	r2, r2
 800022a:	0903      	lsrs	r3, r0, #4
 800022c:	428b      	cmp	r3, r1
 800022e:	d301      	bcc.n	8000234 <__udivsi3+0xcc>
 8000230:	010b      	lsls	r3, r1, #4
 8000232:	1ac0      	subs	r0, r0, r3
 8000234:	4152      	adcs	r2, r2
 8000236:	08c3      	lsrs	r3, r0, #3
 8000238:	428b      	cmp	r3, r1
 800023a:	d301      	bcc.n	8000240 <__udivsi3+0xd8>
 800023c:	00cb      	lsls	r3, r1, #3
 800023e:	1ac0      	subs	r0, r0, r3
 8000240:	4152      	adcs	r2, r2
 8000242:	0883      	lsrs	r3, r0, #2
 8000244:	428b      	cmp	r3, r1
 8000246:	d301      	bcc.n	800024c <__udivsi3+0xe4>
 8000248:	008b      	lsls	r3, r1, #2
 800024a:	1ac0      	subs	r0, r0, r3
 800024c:	4152      	adcs	r2, r2
 800024e:	0843      	lsrs	r3, r0, #1
 8000250:	428b      	cmp	r3, r1
 8000252:	d301      	bcc.n	8000258 <__udivsi3+0xf0>
 8000254:	004b      	lsls	r3, r1, #1
 8000256:	1ac0      	subs	r0, r0, r3
 8000258:	4152      	adcs	r2, r2
 800025a:	1a41      	subs	r1, r0, r1
 800025c:	d200      	bcs.n	8000260 <__udivsi3+0xf8>
 800025e:	4601      	mov	r1, r0
 8000260:	4152      	adcs	r2, r2
 8000262:	4610      	mov	r0, r2
 8000264:	4770      	bx	lr
 8000266:	e7ff      	b.n	8000268 <__udivsi3+0x100>
 8000268:	b501      	push	{r0, lr}
 800026a:	2000      	movs	r0, #0
 800026c:	f000 f8f0 	bl	8000450 <__aeabi_idiv0>
 8000270:	bd02      	pop	{r1, pc}
 8000272:	46c0      	nop			@ (mov r8, r8)

08000274 <__aeabi_uidivmod>:
 8000274:	2900      	cmp	r1, #0
 8000276:	d0f7      	beq.n	8000268 <__udivsi3+0x100>
 8000278:	e776      	b.n	8000168 <__udivsi3>
 800027a:	4770      	bx	lr

0800027c <__divsi3>:
 800027c:	4603      	mov	r3, r0
 800027e:	430b      	orrs	r3, r1
 8000280:	d47f      	bmi.n	8000382 <__divsi3+0x106>
 8000282:	2200      	movs	r2, #0
 8000284:	0843      	lsrs	r3, r0, #1
 8000286:	428b      	cmp	r3, r1
 8000288:	d374      	bcc.n	8000374 <__divsi3+0xf8>
 800028a:	0903      	lsrs	r3, r0, #4
 800028c:	428b      	cmp	r3, r1
 800028e:	d35f      	bcc.n	8000350 <__divsi3+0xd4>
 8000290:	0a03      	lsrs	r3, r0, #8
 8000292:	428b      	cmp	r3, r1
 8000294:	d344      	bcc.n	8000320 <__divsi3+0xa4>
 8000296:	0b03      	lsrs	r3, r0, #12
 8000298:	428b      	cmp	r3, r1
 800029a:	d328      	bcc.n	80002ee <__divsi3+0x72>
 800029c:	0c03      	lsrs	r3, r0, #16
 800029e:	428b      	cmp	r3, r1
 80002a0:	d30d      	bcc.n	80002be <__divsi3+0x42>
 80002a2:	22ff      	movs	r2, #255	@ 0xff
 80002a4:	0209      	lsls	r1, r1, #8
 80002a6:	ba12      	rev	r2, r2
 80002a8:	0c03      	lsrs	r3, r0, #16
 80002aa:	428b      	cmp	r3, r1
 80002ac:	d302      	bcc.n	80002b4 <__divsi3+0x38>
 80002ae:	1212      	asrs	r2, r2, #8
 80002b0:	0209      	lsls	r1, r1, #8
 80002b2:	d065      	beq.n	8000380 <__divsi3+0x104>
 80002b4:	0b03      	lsrs	r3, r0, #12
 80002b6:	428b      	cmp	r3, r1
 80002b8:	d319      	bcc.n	80002ee <__divsi3+0x72>
 80002ba:	e000      	b.n	80002be <__divsi3+0x42>
 80002bc:	0a09      	lsrs	r1, r1, #8
 80002be:	0bc3      	lsrs	r3, r0, #15
 80002c0:	428b      	cmp	r3, r1
 80002c2:	d301      	bcc.n	80002c8 <__divsi3+0x4c>
 80002c4:	03cb      	lsls	r3, r1, #15
 80002c6:	1ac0      	subs	r0, r0, r3
 80002c8:	4152      	adcs	r2, r2
 80002ca:	0b83      	lsrs	r3, r0, #14
 80002cc:	428b      	cmp	r3, r1
 80002ce:	d301      	bcc.n	80002d4 <__divsi3+0x58>
 80002d0:	038b      	lsls	r3, r1, #14
 80002d2:	1ac0      	subs	r0, r0, r3
 80002d4:	4152      	adcs	r2, r2
 80002d6:	0b43      	lsrs	r3, r0, #13
 80002d8:	428b      	cmp	r3, r1
 80002da:	d301      	bcc.n	80002e0 <__divsi3+0x64>
 80002dc:	034b      	lsls	r3, r1, #13
 80002de:	1ac0      	subs	r0, r0, r3
 80002e0:	4152      	adcs	r2, r2
 80002e2:	0b03      	lsrs	r3, r0, #12
 80002e4:	428b      	cmp	r3, r1
 80002e6:	d301      	bcc.n	80002ec <__divsi3+0x70>
 80002e8:	030b      	lsls	r3, r1, #12
 80002ea:	1ac0      	subs	r0, r0, r3
 80002ec:	4152      	adcs	r2, r2
 80002ee:	0ac3      	lsrs	r3, r0, #11
 80002f0:	428b      	cmp	r3, r1
 80002f2:	d301      	bcc.n	80002f8 <__divsi3+0x7c>
 80002f4:	02cb      	lsls	r3, r1, #11
 80002f6:	1ac0      	subs	r0, r0, r3
 80002f8:	4152      	adcs	r2, r2
 80002fa:	0a83      	lsrs	r3, r0, #10
 80002fc:	428b      	cmp	r3, r1
 80002fe:	d301      	bcc.n	8000304 <__divsi3+0x88>
 8000300:	028b      	lsls	r3, r1, #10
 8000302:	1ac0      	subs	r0, r0, r3
 8000304:	4152      	adcs	r2, r2
 8000306:	0a43      	lsrs	r3, r0, #9
 8000308:	428b      	cmp	r3, r1
 800030a:	d301      	bcc.n	8000310 <__divsi3+0x94>
 800030c:	024b      	lsls	r3, r1, #9
 800030e:	1ac0      	subs	r0, r0, r3
 8000310:	4152      	adcs	r2, r2
 8000312:	0a03      	lsrs	r3, r0, #8
 8000314:	428b      	cmp	r3, r1
 8000316:	d301      	bcc.n	800031c <__divsi3+0xa0>
 8000318:	020b      	lsls	r3, r1, #8
 800031a:	1ac0      	subs	r0, r0, r3
 800031c:	4152      	adcs	r2, r2
 800031e:	d2cd      	bcs.n	80002bc <__divsi3+0x40>
 8000320:	09c3      	lsrs	r3, r0, #7
 8000322:	428b      	cmp	r3, r1
 8000324:	d301      	bcc.n	800032a <__divsi3+0xae>
 8000326:	01cb      	lsls	r3, r1, #7
 8000328:	1ac0      	subs	r0, r0, r3
 800032a:	4152      	adcs	r2, r2
 800032c:	0983      	lsrs	r3, r0, #6
 800032e:	428b      	cmp	r3, r1
 8000330:	d301      	bcc.n	8000336 <__divsi3+0xba>
 8000332:	018b      	lsls	r3, r1, #6
 8000334:	1ac0      	subs	r0, r0, r3
 8000336:	4152      	adcs	r2, r2
 8000338:	0943      	lsrs	r3, r0, #5
 800033a:	428b      	cmp	r3, r1
 800033c:	d301      	bcc.n	8000342 <__divsi3+0xc6>
 800033e:	014b      	lsls	r3, r1, #5
 8000340:	1ac0      	subs	r0, r0, r3
 8000342:	4152      	adcs	r2, r2
 8000344:	0903      	lsrs	r3, r0, #4
 8000346:	428b      	cmp	r3, r1
 8000348:	d301      	bcc.n	800034e <__divsi3+0xd2>
 800034a:	010b      	lsls	r3, r1, #4
 800034c:	1ac0      	subs	r0, r0, r3
 800034e:	4152      	adcs	r2, r2
 8000350:	08c3      	lsrs	r3, r0, #3
 8000352:	428b      	cmp	r3, r1
 8000354:	d301      	bcc.n	800035a <__divsi3+0xde>
 8000356:	00cb      	lsls	r3, r1, #3
 8000358:	1ac0      	subs	r0, r0, r3
 800035a:	4152      	adcs	r2, r2
 800035c:	0883      	lsrs	r3, r0, #2
 800035e:	428b      	cmp	r3, r1
 8000360:	d301      	bcc.n	8000366 <__divsi3+0xea>
 8000362:	008b      	lsls	r3, r1, #2
 8000364:	1ac0      	subs	r0, r0, r3
 8000366:	4152      	adcs	r2, r2
 8000368:	0843      	lsrs	r3, r0, #1
 800036a:	428b      	cmp	r3, r1
 800036c:	d301      	bcc.n	8000372 <__divsi3+0xf6>
 800036e:	004b      	lsls	r3, r1, #1
 8000370:	1ac0      	subs	r0, r0, r3
 8000372:	4152      	adcs	r2, r2
 8000374:	1a41      	subs	r1, r0, r1
 8000376:	d200      	bcs.n	800037a <__divsi3+0xfe>
 8000378:	4601      	mov	r1, r0
 800037a:	4152      	adcs	r2, r2
 800037c:	4610      	mov	r0, r2
 800037e:	4770      	bx	lr
 8000380:	e05d      	b.n	800043e <__divsi3+0x1c2>
 8000382:	0fca      	lsrs	r2, r1, #31
 8000384:	d000      	beq.n	8000388 <__divsi3+0x10c>
 8000386:	4249      	negs	r1, r1
 8000388:	1003      	asrs	r3, r0, #32
 800038a:	d300      	bcc.n	800038e <__divsi3+0x112>
 800038c:	4240      	negs	r0, r0
 800038e:	4053      	eors	r3, r2
 8000390:	2200      	movs	r2, #0
 8000392:	469c      	mov	ip, r3
 8000394:	0903      	lsrs	r3, r0, #4
 8000396:	428b      	cmp	r3, r1
 8000398:	d32d      	bcc.n	80003f6 <__divsi3+0x17a>
 800039a:	0a03      	lsrs	r3, r0, #8
 800039c:	428b      	cmp	r3, r1
 800039e:	d312      	bcc.n	80003c6 <__divsi3+0x14a>
 80003a0:	22fc      	movs	r2, #252	@ 0xfc
 80003a2:	0189      	lsls	r1, r1, #6
 80003a4:	ba12      	rev	r2, r2
 80003a6:	0a03      	lsrs	r3, r0, #8
 80003a8:	428b      	cmp	r3, r1
 80003aa:	d30c      	bcc.n	80003c6 <__divsi3+0x14a>
 80003ac:	0189      	lsls	r1, r1, #6
 80003ae:	1192      	asrs	r2, r2, #6
 80003b0:	428b      	cmp	r3, r1
 80003b2:	d308      	bcc.n	80003c6 <__divsi3+0x14a>
 80003b4:	0189      	lsls	r1, r1, #6
 80003b6:	1192      	asrs	r2, r2, #6
 80003b8:	428b      	cmp	r3, r1
 80003ba:	d304      	bcc.n	80003c6 <__divsi3+0x14a>
 80003bc:	0189      	lsls	r1, r1, #6
 80003be:	d03a      	beq.n	8000436 <__divsi3+0x1ba>
 80003c0:	1192      	asrs	r2, r2, #6
 80003c2:	e000      	b.n	80003c6 <__divsi3+0x14a>
 80003c4:	0989      	lsrs	r1, r1, #6
 80003c6:	09c3      	lsrs	r3, r0, #7
 80003c8:	428b      	cmp	r3, r1
 80003ca:	d301      	bcc.n	80003d0 <__divsi3+0x154>
 80003cc:	01cb      	lsls	r3, r1, #7
 80003ce:	1ac0      	subs	r0, r0, r3
 80003d0:	4152      	adcs	r2, r2
 80003d2:	0983      	lsrs	r3, r0, #6
 80003d4:	428b      	cmp	r3, r1
 80003d6:	d301      	bcc.n	80003dc <__divsi3+0x160>
 80003d8:	018b      	lsls	r3, r1, #6
 80003da:	1ac0      	subs	r0, r0, r3
 80003dc:	4152      	adcs	r2, r2
 80003de:	0943      	lsrs	r3, r0, #5
 80003e0:	428b      	cmp	r3, r1
 80003e2:	d301      	bcc.n	80003e8 <__divsi3+0x16c>
 80003e4:	014b      	lsls	r3, r1, #5
 80003e6:	1ac0      	subs	r0, r0, r3
 80003e8:	4152      	adcs	r2, r2
 80003ea:	0903      	lsrs	r3, r0, #4
 80003ec:	428b      	cmp	r3, r1
 80003ee:	d301      	bcc.n	80003f4 <__divsi3+0x178>
 80003f0:	010b      	lsls	r3, r1, #4
 80003f2:	1ac0      	subs	r0, r0, r3
 80003f4:	4152      	adcs	r2, r2
 80003f6:	08c3      	lsrs	r3, r0, #3
 80003f8:	428b      	cmp	r3, r1
 80003fa:	d301      	bcc.n	8000400 <__divsi3+0x184>
 80003fc:	00cb      	lsls	r3, r1, #3
 80003fe:	1ac0      	subs	r0, r0, r3
 8000400:	4152      	adcs	r2, r2
 8000402:	0883      	lsrs	r3, r0, #2
 8000404:	428b      	cmp	r3, r1
 8000406:	d301      	bcc.n	800040c <__divsi3+0x190>
 8000408:	008b      	lsls	r3, r1, #2
 800040a:	1ac0      	subs	r0, r0, r3
 800040c:	4152      	adcs	r2, r2
 800040e:	d2d9      	bcs.n	80003c4 <__divsi3+0x148>
 8000410:	0843      	lsrs	r3, r0, #1
 8000412:	428b      	cmp	r3, r1
 8000414:	d301      	bcc.n	800041a <__divsi3+0x19e>
 8000416:	004b      	lsls	r3, r1, #1
 8000418:	1ac0      	subs	r0, r0, r3
 800041a:	4152      	adcs	r2, r2
 800041c:	1a41      	subs	r1, r0, r1
 800041e:	d200      	bcs.n	8000422 <__divsi3+0x1a6>
 8000420:	4601      	mov	r1, r0
 8000422:	4663      	mov	r3, ip
 8000424:	4152      	adcs	r2, r2
 8000426:	105b      	asrs	r3, r3, #1
 8000428:	4610      	mov	r0, r2
 800042a:	d301      	bcc.n	8000430 <__divsi3+0x1b4>
 800042c:	4240      	negs	r0, r0
 800042e:	2b00      	cmp	r3, #0
 8000430:	d500      	bpl.n	8000434 <__divsi3+0x1b8>
 8000432:	4249      	negs	r1, r1
 8000434:	4770      	bx	lr
 8000436:	4663      	mov	r3, ip
 8000438:	105b      	asrs	r3, r3, #1
 800043a:	d300      	bcc.n	800043e <__divsi3+0x1c2>
 800043c:	4240      	negs	r0, r0
 800043e:	b501      	push	{r0, lr}
 8000440:	2000      	movs	r0, #0
 8000442:	f000 f805 	bl	8000450 <__aeabi_idiv0>
 8000446:	bd02      	pop	{r1, pc}

08000448 <__aeabi_idivmod>:
 8000448:	2900      	cmp	r1, #0
 800044a:	d0f8      	beq.n	800043e <__divsi3+0x1c2>
 800044c:	e716      	b.n	800027c <__divsi3>
 800044e:	4770      	bx	lr

08000450 <__aeabi_idiv0>:
 8000450:	4770      	bx	lr
 8000452:	46c0      	nop			@ (mov r8, r8)

08000454 <__aeabi_cfrcmple>:
 8000454:	4684      	mov	ip, r0
 8000456:	0008      	movs	r0, r1
 8000458:	4661      	mov	r1, ip
 800045a:	e7ff      	b.n	800045c <__aeabi_cfcmpeq>

0800045c <__aeabi_cfcmpeq>:
 800045c:	b51f      	push	{r0, r1, r2, r3, r4, lr}
 800045e:	f000 fcaf 	bl	8000dc0 <__lesf2>
 8000462:	2800      	cmp	r0, #0
 8000464:	d401      	bmi.n	800046a <__aeabi_cfcmpeq+0xe>
 8000466:	2100      	movs	r1, #0
 8000468:	42c8      	cmn	r0, r1
 800046a:	bd1f      	pop	{r0, r1, r2, r3, r4, pc}

0800046c <__aeabi_fcmpeq>:
 800046c:	b510      	push	{r4, lr}
 800046e:	f000 fc37 	bl	8000ce0 <__eqsf2>
 8000472:	4240      	negs	r0, r0
 8000474:	3001      	adds	r0, #1
 8000476:	bd10      	pop	{r4, pc}

08000478 <__aeabi_fcmplt>:
 8000478:	b510      	push	{r4, lr}
 800047a:	f000 fca1 	bl	8000dc0 <__lesf2>
 800047e:	2800      	cmp	r0, #0
 8000480:	db01      	blt.n	8000486 <__aeabi_fcmplt+0xe>
 8000482:	2000      	movs	r0, #0
 8000484:	bd10      	pop	{r4, pc}
 8000486:	2001      	movs	r0, #1
 8000488:	bd10      	pop	{r4, pc}
 800048a:	46c0      	nop			@ (mov r8, r8)

0800048c <__aeabi_fcmple>:
 800048c:	b510      	push	{r4, lr}
 800048e:	f000 fc97 	bl	8000dc0 <__lesf2>
 8000492:	2800      	cmp	r0, #0
 8000494:	dd01      	ble.n	800049a <__aeabi_fcmple+0xe>
 8000496:	2000      	movs	r0, #0
 8000498:	bd10      	pop	{r4, pc}
 800049a:	2001      	movs	r0, #1
 800049c:	bd10      	pop	{r4, pc}
 800049e:	46c0      	nop			@ (mov r8, r8)

080004a0 <__aeabi_fcmpgt>:
 80004a0:	b510      	push	{r4, lr}
 80004a2:	f000 fc45 	bl	8000d30 <__gesf2>
 80004a6:	2800      	cmp	r0, #0
 80004a8:	dc01      	bgt.n	80004ae <__aeabi_fcmpgt+0xe>
 80004aa:	2000      	movs	r0, #0
 80004ac:	bd10      	pop	{r4, pc}
 80004ae:	2001      	movs	r0, #1
 80004b0:	bd10      	pop	{r4, pc}
 80004b2:	46c0      	nop			@ (mov r8, r8)

080004b4 <__aeabi_fcmpge>:
 80004b4:	b510      	push	{r4, lr}
 80004b6:	f000 fc3b 	bl	8000d30 <__gesf2>
 80004ba:	2800      	cmp	r0, #0
 80004bc:	da01      	bge.n	80004c2 <__aeabi_fcmpge+0xe>
 80004be:	2000      	movs	r0, #0
 80004c0:	bd10      	pop	{r4, pc}
 80004c2:	2001      	movs	r0, #1
 80004c4:	bd10      	pop	{r4, pc}
 80004c6:	46c0      	nop			@ (mov r8, r8)

080004c8 <__aeabi_uldivmod>:
 80004c8:	2b00      	cmp	r3, #0
 80004ca:	d111      	bne.n	80004f0 <__aeabi_uldivmod+0x28>
 80004cc:	2a00      	cmp	r2, #0
 80004ce:	d10f      	bne.n	80004f0 <__aeabi_uldivmod+0x28>
 80004d0:	2900      	cmp	r1, #0
 80004d2:	d100      	bne.n	80004d6 <__aeabi_uldivmod+0xe>
 80004d4:	2800      	cmp	r0, #0
 80004d6:	d002      	beq.n	80004de <__aeabi_uldivmod+0x16>
 80004d8:	2100      	movs	r1, #0
 80004da:	43c9      	mvns	r1, r1
 80004dc:	0008      	movs	r0, r1
 80004de:	b407      	push	{r0, r1, r2}
 80004e0:	4802      	ldr	r0, [pc, #8]	@ (80004ec <__aeabi_uldivmod+0x24>)
 80004e2:	a102      	add	r1, pc, #8	@ (adr r1, 80004ec <__aeabi_uldivmod+0x24>)
 80004e4:	1840      	adds	r0, r0, r1
 80004e6:	9002      	str	r0, [sp, #8]
 80004e8:	bd03      	pop	{r0, r1, pc}
 80004ea:	46c0      	nop			@ (mov r8, r8)
 80004ec:	ffffff65 	.word	0xffffff65
 80004f0:	b403      	push	{r0, r1}
 80004f2:	4668      	mov	r0, sp
 80004f4:	b501      	push	{r0, lr}
 80004f6:	9802      	ldr	r0, [sp, #8]
 80004f8:	f000 f81e 	bl	8000538 <__udivmoddi4>
 80004fc:	9b01      	ldr	r3, [sp, #4]
 80004fe:	469e      	mov	lr, r3
 8000500:	b002      	add	sp, #8
 8000502:	bc0c      	pop	{r2, r3}
 8000504:	4770      	bx	lr
 8000506:	46c0      	nop			@ (mov r8, r8)

08000508 <__aeabi_f2uiz>:
 8000508:	219e      	movs	r1, #158	@ 0x9e
 800050a:	b510      	push	{r4, lr}
 800050c:	05c9      	lsls	r1, r1, #23
 800050e:	1c04      	adds	r4, r0, #0
 8000510:	f7ff ffd0 	bl	80004b4 <__aeabi_fcmpge>
 8000514:	2800      	cmp	r0, #0
 8000516:	d103      	bne.n	8000520 <__aeabi_f2uiz+0x18>
 8000518:	1c20      	adds	r0, r4, #0
 800051a:	f001 f857 	bl	80015cc <__aeabi_f2iz>
 800051e:	bd10      	pop	{r4, pc}
 8000520:	219e      	movs	r1, #158	@ 0x9e
 8000522:	1c20      	adds	r0, r4, #0
 8000524:	05c9      	lsls	r1, r1, #23
 8000526:	f000 fded 	bl	8001104 <__aeabi_fsub>
 800052a:	f001 f84f 	bl	80015cc <__aeabi_f2iz>
 800052e:	2380      	movs	r3, #128	@ 0x80
 8000530:	061b      	lsls	r3, r3, #24
 8000532:	469c      	mov	ip, r3
 8000534:	4460      	add	r0, ip
 8000536:	e7f2      	b.n	800051e <__aeabi_f2uiz+0x16>

08000538 <__udivmoddi4>:
 8000538:	b5f0      	push	{r4, r5, r6, r7, lr}
 800053a:	4657      	mov	r7, sl
 800053c:	464e      	mov	r6, r9
 800053e:	4645      	mov	r5, r8
 8000540:	46de      	mov	lr, fp
 8000542:	b5e0      	push	{r5, r6, r7, lr}
 8000544:	0004      	movs	r4, r0
 8000546:	000d      	movs	r5, r1
 8000548:	4692      	mov	sl, r2
 800054a:	4699      	mov	r9, r3
 800054c:	b083      	sub	sp, #12
 800054e:	428b      	cmp	r3, r1
 8000550:	d830      	bhi.n	80005b4 <__udivmoddi4+0x7c>
 8000552:	d02d      	beq.n	80005b0 <__udivmoddi4+0x78>
 8000554:	4649      	mov	r1, r9
 8000556:	4650      	mov	r0, sl
 8000558:	f001 f8bc 	bl	80016d4 <__clzdi2>
 800055c:	0029      	movs	r1, r5
 800055e:	0006      	movs	r6, r0
 8000560:	0020      	movs	r0, r4
 8000562:	f001 f8b7 	bl	80016d4 <__clzdi2>
 8000566:	1a33      	subs	r3, r6, r0
 8000568:	4698      	mov	r8, r3
 800056a:	3b20      	subs	r3, #32
 800056c:	d434      	bmi.n	80005d8 <__udivmoddi4+0xa0>
 800056e:	469b      	mov	fp, r3
 8000570:	4653      	mov	r3, sl
 8000572:	465a      	mov	r2, fp
 8000574:	4093      	lsls	r3, r2
 8000576:	4642      	mov	r2, r8
 8000578:	001f      	movs	r7, r3
 800057a:	4653      	mov	r3, sl
 800057c:	4093      	lsls	r3, r2
 800057e:	001e      	movs	r6, r3
 8000580:	42af      	cmp	r7, r5
 8000582:	d83b      	bhi.n	80005fc <__udivmoddi4+0xc4>
 8000584:	42af      	cmp	r7, r5
 8000586:	d100      	bne.n	800058a <__udivmoddi4+0x52>
 8000588:	e079      	b.n	800067e <__udivmoddi4+0x146>
 800058a:	465b      	mov	r3, fp
 800058c:	1ba4      	subs	r4, r4, r6
 800058e:	41bd      	sbcs	r5, r7
 8000590:	2b00      	cmp	r3, #0
 8000592:	da00      	bge.n	8000596 <__udivmoddi4+0x5e>
 8000594:	e076      	b.n	8000684 <__udivmoddi4+0x14c>
 8000596:	2200      	movs	r2, #0
 8000598:	2300      	movs	r3, #0
 800059a:	9200      	str	r2, [sp, #0]
 800059c:	9301      	str	r3, [sp, #4]
 800059e:	2301      	movs	r3, #1
 80005a0:	465a      	mov	r2, fp
 80005a2:	4093      	lsls	r3, r2
 80005a4:	9301      	str	r3, [sp, #4]
 80005a6:	2301      	movs	r3, #1
 80005a8:	4642      	mov	r2, r8
 80005aa:	4093      	lsls	r3, r2
 80005ac:	9300      	str	r3, [sp, #0]
 80005ae:	e029      	b.n	8000604 <__udivmoddi4+0xcc>
 80005b0:	4282      	cmp	r2, r0
 80005b2:	d9cf      	bls.n	8000554 <__udivmoddi4+0x1c>
 80005b4:	2200      	movs	r2, #0
 80005b6:	2300      	movs	r3, #0
 80005b8:	9200      	str	r2, [sp, #0]
 80005ba:	9301      	str	r3, [sp, #4]
 80005bc:	9b0c      	ldr	r3, [sp, #48]	@ 0x30
 80005be:	2b00      	cmp	r3, #0
 80005c0:	d001      	beq.n	80005c6 <__udivmoddi4+0x8e>
 80005c2:	601c      	str	r4, [r3, #0]
 80005c4:	605d      	str	r5, [r3, #4]
 80005c6:	9800      	ldr	r0, [sp, #0]
 80005c8:	9901      	ldr	r1, [sp, #4]
 80005ca:	b003      	add	sp, #12
 80005cc:	bcf0      	pop	{r4, r5, r6, r7}
 80005ce:	46bb      	mov	fp, r7
 80005d0:	46b2      	mov	sl, r6
 80005d2:	46a9      	mov	r9, r5
 80005d4:	46a0      	mov	r8, r4
 80005d6:	bdf0      	pop	{r4, r5, r6, r7, pc}
 80005d8:	4642      	mov	r2, r8
 80005da:	469b      	mov	fp, r3
 80005dc:	2320      	movs	r3, #32
 80005de:	1a9b      	subs	r3, r3, r2
 80005e0:	4652      	mov	r2, sl
 80005e2:	40da      	lsrs	r2, r3
 80005e4:	4641      	mov	r1, r8
 80005e6:	0013      	movs	r3, r2
 80005e8:	464a      	mov	r2, r9
 80005ea:	408a      	lsls	r2, r1
 80005ec:	0017      	movs	r7, r2
 80005ee:	4642      	mov	r2, r8
 80005f0:	431f      	orrs	r7, r3
 80005f2:	4653      	mov	r3, sl
 80005f4:	4093      	lsls	r3, r2
 80005f6:	001e      	movs	r6, r3
 80005f8:	42af      	cmp	r7, r5
 80005fa:	d9c3      	bls.n	8000584 <__udivmoddi4+0x4c>
 80005fc:	2200      	movs	r2, #0
 80005fe:	2300      	movs	r3, #0
 8000600:	9200      	str	r2, [sp, #0]
 8000602:	9301      	str	r3, [sp, #4]
 8000604:	4643      	mov	r3, r8
 8000606:	2b00      	cmp	r3, #0
 8000608:	d0d8      	beq.n	80005bc <__udivmoddi4+0x84>
 800060a:	07fb      	lsls	r3, r7, #31
 800060c:	0872      	lsrs	r2, r6, #1
 800060e:	431a      	orrs	r2, r3
 8000610:	4646      	mov	r6, r8
 8000612:	087b      	lsrs	r3, r7, #1
 8000614:	e00e      	b.n	8000634 <__udivmoddi4+0xfc>
 8000616:	42ab      	cmp	r3, r5
 8000618:	d101      	bne.n	800061e <__udivmoddi4+0xe6>
 800061a:	42a2      	cmp	r2, r4
 800061c:	d80c      	bhi.n	8000638 <__udivmoddi4+0x100>
 800061e:	1aa4      	subs	r4, r4, r2
 8000620:	419d      	sbcs	r5, r3
 8000622:	2001      	movs	r0, #1
 8000624:	1924      	adds	r4, r4, r4
 8000626:	416d      	adcs	r5, r5
 8000628:	2100      	movs	r1, #0
 800062a:	3e01      	subs	r6, #1
 800062c:	1824      	adds	r4, r4, r0
 800062e:	414d      	adcs	r5, r1
 8000630:	2e00      	cmp	r6, #0
 8000632:	d006      	beq.n	8000642 <__udivmoddi4+0x10a>
 8000634:	42ab      	cmp	r3, r5
 8000636:	d9ee      	bls.n	8000616 <__udivmoddi4+0xde>
 8000638:	3e01      	subs	r6, #1
 800063a:	1924      	adds	r4, r4, r4
 800063c:	416d      	adcs	r5, r5
 800063e:	2e00      	cmp	r6, #0
 8000640:	d1f8      	bne.n	8000634 <__udivmoddi4+0xfc>
 8000642:	9800      	ldr	r0, [sp, #0]
 8000644:	9901      	ldr	r1, [sp, #4]
 8000646:	465b      	mov	r3, fp
 8000648:	1900      	adds	r0, r0, r4
 800064a:	4169      	adcs	r1, r5
 800064c:	2b00      	cmp	r3, #0
 800064e:	db24      	blt.n	800069a <__udivmoddi4+0x162>
 8000650:	002b      	movs	r3, r5
 8000652:	465a      	mov	r2, fp
 8000654:	4644      	mov	r4, r8
 8000656:	40d3      	lsrs	r3, r2
 8000658:	002a      	movs	r2, r5
 800065a:	40e2      	lsrs	r2, r4
 800065c:	001c      	movs	r4, r3
 800065e:	465b      	mov	r3, fp
 8000660:	0015      	movs	r5, r2
 8000662:	2b00      	cmp	r3, #0
 8000664:	db2a      	blt.n	80006bc <__udivmoddi4+0x184>
 8000666:	0026      	movs	r6, r4
 8000668:	409e      	lsls	r6, r3
 800066a:	0033      	movs	r3, r6
 800066c:	0026      	movs	r6, r4
 800066e:	4647      	mov	r7, r8
 8000670:	40be      	lsls	r6, r7
 8000672:	0032      	movs	r2, r6
 8000674:	1a80      	subs	r0, r0, r2
 8000676:	4199      	sbcs	r1, r3
 8000678:	9000      	str	r0, [sp, #0]
 800067a:	9101      	str	r1, [sp, #4]
 800067c:	e79e      	b.n	80005bc <__udivmoddi4+0x84>
 800067e:	42a3      	cmp	r3, r4
 8000680:	d8bc      	bhi.n	80005fc <__udivmoddi4+0xc4>
 8000682:	e782      	b.n	800058a <__udivmoddi4+0x52>
 8000684:	4642      	mov	r2, r8
 8000686:	2320      	movs	r3, #32
 8000688:	2100      	movs	r1, #0
 800068a:	1a9b      	subs	r3, r3, r2
 800068c:	2200      	movs	r2, #0
 800068e:	9100      	str	r1, [sp, #0]
 8000690:	9201      	str	r2, [sp, #4]
 8000692:	2201      	movs	r2, #1
 8000694:	40da      	lsrs	r2, r3
 8000696:	9201      	str	r2, [sp, #4]
 8000698:	e785      	b.n	80005a6 <__udivmoddi4+0x6e>
 800069a:	4642      	mov	r2, r8
 800069c:	2320      	movs	r3, #32
 800069e:	1a9b      	subs	r3, r3, r2
 80006a0:	002a      	movs	r2, r5
 80006a2:	4646      	mov	r6, r8
 80006a4:	409a      	lsls	r2, r3
 80006a6:	0023      	movs	r3, r4
 80006a8:	40f3      	lsrs	r3, r6
 80006aa:	4644      	mov	r4, r8
 80006ac:	4313      	orrs	r3, r2
 80006ae:	002a      	movs	r2, r5
 80006b0:	40e2      	lsrs	r2, r4
 80006b2:	001c      	movs	r4, r3
 80006b4:	465b      	mov	r3, fp
 80006b6:	0015      	movs	r5, r2
 80006b8:	2b00      	cmp	r3, #0
 80006ba:	dad4      	bge.n	8000666 <__udivmoddi4+0x12e>
 80006bc:	4642      	mov	r2, r8
 80006be:	002f      	movs	r7, r5
 80006c0:	2320      	movs	r3, #32
 80006c2:	0026      	movs	r6, r4
 80006c4:	4097      	lsls	r7, r2
 80006c6:	1a9b      	subs	r3, r3, r2
 80006c8:	40de      	lsrs	r6, r3
 80006ca:	003b      	movs	r3, r7
 80006cc:	4333      	orrs	r3, r6
 80006ce:	e7cd      	b.n	800066c <__udivmoddi4+0x134>

080006d0 <__aeabi_fadd>:
 80006d0:	b5f8      	push	{r3, r4, r5, r6, r7, lr}
 80006d2:	024b      	lsls	r3, r1, #9
 80006d4:	0a5a      	lsrs	r2, r3, #9
 80006d6:	4694      	mov	ip, r2
 80006d8:	004a      	lsls	r2, r1, #1
 80006da:	0fc9      	lsrs	r1, r1, #31
 80006dc:	46ce      	mov	lr, r9
 80006de:	4647      	mov	r7, r8
 80006e0:	4689      	mov	r9, r1
 80006e2:	0045      	lsls	r5, r0, #1
 80006e4:	0246      	lsls	r6, r0, #9
 80006e6:	0e2d      	lsrs	r5, r5, #24
 80006e8:	0e12      	lsrs	r2, r2, #24
 80006ea:	b580      	push	{r7, lr}
 80006ec:	0999      	lsrs	r1, r3, #6
 80006ee:	0a77      	lsrs	r7, r6, #9
 80006f0:	0fc4      	lsrs	r4, r0, #31
 80006f2:	09b6      	lsrs	r6, r6, #6
 80006f4:	1aab      	subs	r3, r5, r2
 80006f6:	454c      	cmp	r4, r9
 80006f8:	d020      	beq.n	800073c <__aeabi_fadd+0x6c>
 80006fa:	2b00      	cmp	r3, #0
 80006fc:	dd0c      	ble.n	8000718 <__aeabi_fadd+0x48>
 80006fe:	2a00      	cmp	r2, #0
 8000700:	d134      	bne.n	800076c <__aeabi_fadd+0x9c>
 8000702:	2900      	cmp	r1, #0
 8000704:	d02a      	beq.n	800075c <__aeabi_fadd+0x8c>
 8000706:	1e5a      	subs	r2, r3, #1
 8000708:	2b01      	cmp	r3, #1
 800070a:	d100      	bne.n	800070e <__aeabi_fadd+0x3e>
 800070c:	e08f      	b.n	800082e <__aeabi_fadd+0x15e>
 800070e:	2bff      	cmp	r3, #255	@ 0xff
 8000710:	d100      	bne.n	8000714 <__aeabi_fadd+0x44>
 8000712:	e0cd      	b.n	80008b0 <__aeabi_fadd+0x1e0>
 8000714:	0013      	movs	r3, r2
 8000716:	e02f      	b.n	8000778 <__aeabi_fadd+0xa8>
 8000718:	2b00      	cmp	r3, #0
 800071a:	d060      	beq.n	80007de <__aeabi_fadd+0x10e>
 800071c:	1b53      	subs	r3, r2, r5
 800071e:	2d00      	cmp	r5, #0
 8000720:	d000      	beq.n	8000724 <__aeabi_fadd+0x54>
 8000722:	e0ee      	b.n	8000902 <__aeabi_fadd+0x232>
 8000724:	2e00      	cmp	r6, #0
 8000726:	d100      	bne.n	800072a <__aeabi_fadd+0x5a>
 8000728:	e13e      	b.n	80009a8 <__aeabi_fadd+0x2d8>
 800072a:	1e5c      	subs	r4, r3, #1
 800072c:	2b01      	cmp	r3, #1
 800072e:	d100      	bne.n	8000732 <__aeabi_fadd+0x62>
 8000730:	e16b      	b.n	8000a0a <__aeabi_fadd+0x33a>
 8000732:	2bff      	cmp	r3, #255	@ 0xff
 8000734:	d100      	bne.n	8000738 <__aeabi_fadd+0x68>
 8000736:	e0b9      	b.n	80008ac <__aeabi_fadd+0x1dc>
 8000738:	0023      	movs	r3, r4
 800073a:	e0e7      	b.n	800090c <__aeabi_fadd+0x23c>
 800073c:	2b00      	cmp	r3, #0
 800073e:	dc00      	bgt.n	8000742 <__aeabi_fadd+0x72>
 8000740:	e0a4      	b.n	800088c <__aeabi_fadd+0x1bc>
 8000742:	2a00      	cmp	r2, #0
 8000744:	d069      	beq.n	800081a <__aeabi_fadd+0x14a>
 8000746:	2dff      	cmp	r5, #255	@ 0xff
 8000748:	d100      	bne.n	800074c <__aeabi_fadd+0x7c>
 800074a:	e0b1      	b.n	80008b0 <__aeabi_fadd+0x1e0>
 800074c:	2280      	movs	r2, #128	@ 0x80
 800074e:	04d2      	lsls	r2, r2, #19
 8000750:	4311      	orrs	r1, r2
 8000752:	2b1b      	cmp	r3, #27
 8000754:	dc00      	bgt.n	8000758 <__aeabi_fadd+0x88>
 8000756:	e0e9      	b.n	800092c <__aeabi_fadd+0x25c>
 8000758:	002b      	movs	r3, r5
 800075a:	3605      	adds	r6, #5
 800075c:	08f7      	lsrs	r7, r6, #3
 800075e:	2bff      	cmp	r3, #255	@ 0xff
 8000760:	d100      	bne.n	8000764 <__aeabi_fadd+0x94>
 8000762:	e0a5      	b.n	80008b0 <__aeabi_fadd+0x1e0>
 8000764:	027a      	lsls	r2, r7, #9
 8000766:	0a52      	lsrs	r2, r2, #9
 8000768:	b2d8      	uxtb	r0, r3
 800076a:	e030      	b.n	80007ce <__aeabi_fadd+0xfe>
 800076c:	2dff      	cmp	r5, #255	@ 0xff
 800076e:	d100      	bne.n	8000772 <__aeabi_fadd+0xa2>
 8000770:	e09e      	b.n	80008b0 <__aeabi_fadd+0x1e0>
 8000772:	2280      	movs	r2, #128	@ 0x80
 8000774:	04d2      	lsls	r2, r2, #19
 8000776:	4311      	orrs	r1, r2
 8000778:	2001      	movs	r0, #1
 800077a:	2b1b      	cmp	r3, #27
 800077c:	dc08      	bgt.n	8000790 <__aeabi_fadd+0xc0>
 800077e:	0008      	movs	r0, r1
 8000780:	2220      	movs	r2, #32
 8000782:	40d8      	lsrs	r0, r3
 8000784:	1ad3      	subs	r3, r2, r3
 8000786:	4099      	lsls	r1, r3
 8000788:	000b      	movs	r3, r1
 800078a:	1e5a      	subs	r2, r3, #1
 800078c:	4193      	sbcs	r3, r2
 800078e:	4318      	orrs	r0, r3
 8000790:	1a36      	subs	r6, r6, r0
 8000792:	0173      	lsls	r3, r6, #5
 8000794:	d400      	bmi.n	8000798 <__aeabi_fadd+0xc8>
 8000796:	e071      	b.n	800087c <__aeabi_fadd+0x1ac>
 8000798:	01b6      	lsls	r6, r6, #6
 800079a:	09b7      	lsrs	r7, r6, #6
 800079c:	0038      	movs	r0, r7
 800079e:	f000 ff7b 	bl	8001698 <__clzsi2>
 80007a2:	003b      	movs	r3, r7
 80007a4:	3805      	subs	r0, #5
 80007a6:	4083      	lsls	r3, r0
 80007a8:	4285      	cmp	r5, r0
 80007aa:	dd4d      	ble.n	8000848 <__aeabi_fadd+0x178>
 80007ac:	4eb4      	ldr	r6, [pc, #720]	@ (8000a80 <__aeabi_fadd+0x3b0>)
 80007ae:	1a2d      	subs	r5, r5, r0
 80007b0:	401e      	ands	r6, r3
 80007b2:	075a      	lsls	r2, r3, #29
 80007b4:	d068      	beq.n	8000888 <__aeabi_fadd+0x1b8>
 80007b6:	220f      	movs	r2, #15
 80007b8:	4013      	ands	r3, r2
 80007ba:	2b04      	cmp	r3, #4
 80007bc:	d064      	beq.n	8000888 <__aeabi_fadd+0x1b8>
 80007be:	3604      	adds	r6, #4
 80007c0:	0173      	lsls	r3, r6, #5
 80007c2:	d561      	bpl.n	8000888 <__aeabi_fadd+0x1b8>
 80007c4:	1c68      	adds	r0, r5, #1
 80007c6:	2dfe      	cmp	r5, #254	@ 0xfe
 80007c8:	d154      	bne.n	8000874 <__aeabi_fadd+0x1a4>
 80007ca:	20ff      	movs	r0, #255	@ 0xff
 80007cc:	2200      	movs	r2, #0
 80007ce:	05c0      	lsls	r0, r0, #23
 80007d0:	4310      	orrs	r0, r2
 80007d2:	07e4      	lsls	r4, r4, #31
 80007d4:	4320      	orrs	r0, r4
 80007d6:	bcc0      	pop	{r6, r7}
 80007d8:	46b9      	mov	r9, r7
 80007da:	46b0      	mov	r8, r6
 80007dc:	bdf8      	pop	{r3, r4, r5, r6, r7, pc}
 80007de:	22fe      	movs	r2, #254	@ 0xfe
 80007e0:	4690      	mov	r8, r2
 80007e2:	1c68      	adds	r0, r5, #1
 80007e4:	0002      	movs	r2, r0
 80007e6:	4640      	mov	r0, r8
 80007e8:	4210      	tst	r0, r2
 80007ea:	d16b      	bne.n	80008c4 <__aeabi_fadd+0x1f4>
 80007ec:	2d00      	cmp	r5, #0
 80007ee:	d000      	beq.n	80007f2 <__aeabi_fadd+0x122>
 80007f0:	e0dd      	b.n	80009ae <__aeabi_fadd+0x2de>
 80007f2:	2e00      	cmp	r6, #0
 80007f4:	d100      	bne.n	80007f8 <__aeabi_fadd+0x128>
 80007f6:	e102      	b.n	80009fe <__aeabi_fadd+0x32e>
 80007f8:	2900      	cmp	r1, #0
 80007fa:	d0b3      	beq.n	8000764 <__aeabi_fadd+0x94>
 80007fc:	2280      	movs	r2, #128	@ 0x80
 80007fe:	1a77      	subs	r7, r6, r1
 8000800:	04d2      	lsls	r2, r2, #19
 8000802:	4217      	tst	r7, r2
 8000804:	d100      	bne.n	8000808 <__aeabi_fadd+0x138>
 8000806:	e136      	b.n	8000a76 <__aeabi_fadd+0x3a6>
 8000808:	464c      	mov	r4, r9
 800080a:	1b8e      	subs	r6, r1, r6
 800080c:	d061      	beq.n	80008d2 <__aeabi_fadd+0x202>
 800080e:	2001      	movs	r0, #1
 8000810:	4216      	tst	r6, r2
 8000812:	d130      	bne.n	8000876 <__aeabi_fadd+0x1a6>
 8000814:	2300      	movs	r3, #0
 8000816:	08f7      	lsrs	r7, r6, #3
 8000818:	e7a4      	b.n	8000764 <__aeabi_fadd+0x94>
 800081a:	2900      	cmp	r1, #0
 800081c:	d09e      	beq.n	800075c <__aeabi_fadd+0x8c>
 800081e:	1e5a      	subs	r2, r3, #1
 8000820:	2b01      	cmp	r3, #1
 8000822:	d100      	bne.n	8000826 <__aeabi_fadd+0x156>
 8000824:	e0ca      	b.n	80009bc <__aeabi_fadd+0x2ec>
 8000826:	2bff      	cmp	r3, #255	@ 0xff
 8000828:	d042      	beq.n	80008b0 <__aeabi_fadd+0x1e0>
 800082a:	0013      	movs	r3, r2
 800082c:	e791      	b.n	8000752 <__aeabi_fadd+0x82>
 800082e:	1a71      	subs	r1, r6, r1
 8000830:	014b      	lsls	r3, r1, #5
 8000832:	d400      	bmi.n	8000836 <__aeabi_fadd+0x166>
 8000834:	e0d1      	b.n	80009da <__aeabi_fadd+0x30a>
 8000836:	018f      	lsls	r7, r1, #6
 8000838:	09bf      	lsrs	r7, r7, #6
 800083a:	0038      	movs	r0, r7
 800083c:	f000 ff2c 	bl	8001698 <__clzsi2>
 8000840:	003b      	movs	r3, r7
 8000842:	3805      	subs	r0, #5
 8000844:	4083      	lsls	r3, r0
 8000846:	2501      	movs	r5, #1
 8000848:	2220      	movs	r2, #32
 800084a:	1b40      	subs	r0, r0, r5
 800084c:	3001      	adds	r0, #1
 800084e:	1a12      	subs	r2, r2, r0
 8000850:	001e      	movs	r6, r3
 8000852:	4093      	lsls	r3, r2
 8000854:	40c6      	lsrs	r6, r0
 8000856:	1e5a      	subs	r2, r3, #1
 8000858:	4193      	sbcs	r3, r2
 800085a:	431e      	orrs	r6, r3
 800085c:	d039      	beq.n	80008d2 <__aeabi_fadd+0x202>
 800085e:	0773      	lsls	r3, r6, #29
 8000860:	d100      	bne.n	8000864 <__aeabi_fadd+0x194>
 8000862:	e11b      	b.n	8000a9c <__aeabi_fadd+0x3cc>
 8000864:	230f      	movs	r3, #15
 8000866:	2500      	movs	r5, #0
 8000868:	4033      	ands	r3, r6
 800086a:	2b04      	cmp	r3, #4
 800086c:	d1a7      	bne.n	80007be <__aeabi_fadd+0xee>
 800086e:	2001      	movs	r0, #1
 8000870:	0172      	lsls	r2, r6, #5
 8000872:	d57c      	bpl.n	800096e <__aeabi_fadd+0x29e>
 8000874:	b2c0      	uxtb	r0, r0
 8000876:	01b2      	lsls	r2, r6, #6
 8000878:	0a52      	lsrs	r2, r2, #9
 800087a:	e7a8      	b.n	80007ce <__aeabi_fadd+0xfe>
 800087c:	0773      	lsls	r3, r6, #29
 800087e:	d003      	beq.n	8000888 <__aeabi_fadd+0x1b8>
 8000880:	230f      	movs	r3, #15
 8000882:	4033      	ands	r3, r6
 8000884:	2b04      	cmp	r3, #4
 8000886:	d19a      	bne.n	80007be <__aeabi_fadd+0xee>
 8000888:	002b      	movs	r3, r5
 800088a:	e767      	b.n	800075c <__aeabi_fadd+0x8c>
 800088c:	2b00      	cmp	r3, #0
 800088e:	d023      	beq.n	80008d8 <__aeabi_fadd+0x208>
 8000890:	1b53      	subs	r3, r2, r5
 8000892:	2d00      	cmp	r5, #0
 8000894:	d17b      	bne.n	800098e <__aeabi_fadd+0x2be>
 8000896:	2e00      	cmp	r6, #0
 8000898:	d100      	bne.n	800089c <__aeabi_fadd+0x1cc>
 800089a:	e086      	b.n	80009aa <__aeabi_fadd+0x2da>
 800089c:	1e5d      	subs	r5, r3, #1
 800089e:	2b01      	cmp	r3, #1
 80008a0:	d100      	bne.n	80008a4 <__aeabi_fadd+0x1d4>
 80008a2:	e08b      	b.n	80009bc <__aeabi_fadd+0x2ec>
 80008a4:	2bff      	cmp	r3, #255	@ 0xff
 80008a6:	d002      	beq.n	80008ae <__aeabi_fadd+0x1de>
 80008a8:	002b      	movs	r3, r5
 80008aa:	e075      	b.n	8000998 <__aeabi_fadd+0x2c8>
 80008ac:	464c      	mov	r4, r9
 80008ae:	4667      	mov	r7, ip
 80008b0:	2f00      	cmp	r7, #0
 80008b2:	d100      	bne.n	80008b6 <__aeabi_fadd+0x1e6>
 80008b4:	e789      	b.n	80007ca <__aeabi_fadd+0xfa>
 80008b6:	2280      	movs	r2, #128	@ 0x80
 80008b8:	03d2      	lsls	r2, r2, #15
 80008ba:	433a      	orrs	r2, r7
 80008bc:	0252      	lsls	r2, r2, #9
 80008be:	20ff      	movs	r0, #255	@ 0xff
 80008c0:	0a52      	lsrs	r2, r2, #9
 80008c2:	e784      	b.n	80007ce <__aeabi_fadd+0xfe>
 80008c4:	1a77      	subs	r7, r6, r1
 80008c6:	017b      	lsls	r3, r7, #5
 80008c8:	d46b      	bmi.n	80009a2 <__aeabi_fadd+0x2d2>
 80008ca:	2f00      	cmp	r7, #0
 80008cc:	d000      	beq.n	80008d0 <__aeabi_fadd+0x200>
 80008ce:	e765      	b.n	800079c <__aeabi_fadd+0xcc>
 80008d0:	2400      	movs	r4, #0
 80008d2:	2000      	movs	r0, #0
 80008d4:	2200      	movs	r2, #0
 80008d6:	e77a      	b.n	80007ce <__aeabi_fadd+0xfe>
 80008d8:	22fe      	movs	r2, #254	@ 0xfe
 80008da:	1c6b      	adds	r3, r5, #1
 80008dc:	421a      	tst	r2, r3
 80008de:	d149      	bne.n	8000974 <__aeabi_fadd+0x2a4>
 80008e0:	2d00      	cmp	r5, #0
 80008e2:	d000      	beq.n	80008e6 <__aeabi_fadd+0x216>
 80008e4:	e09f      	b.n	8000a26 <__aeabi_fadd+0x356>
 80008e6:	2e00      	cmp	r6, #0
 80008e8:	d100      	bne.n	80008ec <__aeabi_fadd+0x21c>
 80008ea:	e0ba      	b.n	8000a62 <__aeabi_fadd+0x392>
 80008ec:	2900      	cmp	r1, #0
 80008ee:	d100      	bne.n	80008f2 <__aeabi_fadd+0x222>
 80008f0:	e0cf      	b.n	8000a92 <__aeabi_fadd+0x3c2>
 80008f2:	1872      	adds	r2, r6, r1
 80008f4:	0153      	lsls	r3, r2, #5
 80008f6:	d400      	bmi.n	80008fa <__aeabi_fadd+0x22a>
 80008f8:	e0cd      	b.n	8000a96 <__aeabi_fadd+0x3c6>
 80008fa:	0192      	lsls	r2, r2, #6
 80008fc:	2001      	movs	r0, #1
 80008fe:	0a52      	lsrs	r2, r2, #9
 8000900:	e765      	b.n	80007ce <__aeabi_fadd+0xfe>
 8000902:	2aff      	cmp	r2, #255	@ 0xff
 8000904:	d0d2      	beq.n	80008ac <__aeabi_fadd+0x1dc>
 8000906:	2080      	movs	r0, #128	@ 0x80
 8000908:	04c0      	lsls	r0, r0, #19
 800090a:	4306      	orrs	r6, r0
 800090c:	2001      	movs	r0, #1
 800090e:	2b1b      	cmp	r3, #27
 8000910:	dc08      	bgt.n	8000924 <__aeabi_fadd+0x254>
 8000912:	0030      	movs	r0, r6
 8000914:	2420      	movs	r4, #32
 8000916:	40d8      	lsrs	r0, r3
 8000918:	1ae3      	subs	r3, r4, r3
 800091a:	409e      	lsls	r6, r3
 800091c:	0033      	movs	r3, r6
 800091e:	1e5c      	subs	r4, r3, #1
 8000920:	41a3      	sbcs	r3, r4
 8000922:	4318      	orrs	r0, r3
 8000924:	464c      	mov	r4, r9
 8000926:	0015      	movs	r5, r2
 8000928:	1a0e      	subs	r6, r1, r0
 800092a:	e732      	b.n	8000792 <__aeabi_fadd+0xc2>
 800092c:	0008      	movs	r0, r1
 800092e:	2220      	movs	r2, #32
 8000930:	40d8      	lsrs	r0, r3
 8000932:	1ad3      	subs	r3, r2, r3
 8000934:	4099      	lsls	r1, r3
 8000936:	000b      	movs	r3, r1
 8000938:	1e5a      	subs	r2, r3, #1
 800093a:	4193      	sbcs	r3, r2
 800093c:	4303      	orrs	r3, r0
 800093e:	18f6      	adds	r6, r6, r3
 8000940:	0173      	lsls	r3, r6, #5
 8000942:	d59b      	bpl.n	800087c <__aeabi_fadd+0x1ac>
 8000944:	3501      	adds	r5, #1
 8000946:	2dff      	cmp	r5, #255	@ 0xff
 8000948:	d100      	bne.n	800094c <__aeabi_fadd+0x27c>
 800094a:	e73e      	b.n	80007ca <__aeabi_fadd+0xfa>
 800094c:	2301      	movs	r3, #1
 800094e:	494d      	ldr	r1, [pc, #308]	@ (8000a84 <__aeabi_fadd+0x3b4>)
 8000950:	0872      	lsrs	r2, r6, #1
 8000952:	4033      	ands	r3, r6
 8000954:	400a      	ands	r2, r1
 8000956:	431a      	orrs	r2, r3
 8000958:	0016      	movs	r6, r2
 800095a:	0753      	lsls	r3, r2, #29
 800095c:	d004      	beq.n	8000968 <__aeabi_fadd+0x298>
 800095e:	230f      	movs	r3, #15
 8000960:	4013      	ands	r3, r2
 8000962:	2b04      	cmp	r3, #4
 8000964:	d000      	beq.n	8000968 <__aeabi_fadd+0x298>
 8000966:	e72a      	b.n	80007be <__aeabi_fadd+0xee>
 8000968:	0173      	lsls	r3, r6, #5
 800096a:	d500      	bpl.n	800096e <__aeabi_fadd+0x29e>
 800096c:	e72a      	b.n	80007c4 <__aeabi_fadd+0xf4>
 800096e:	002b      	movs	r3, r5
 8000970:	08f7      	lsrs	r7, r6, #3
 8000972:	e6f7      	b.n	8000764 <__aeabi_fadd+0x94>
 8000974:	2bff      	cmp	r3, #255	@ 0xff
 8000976:	d100      	bne.n	800097a <__aeabi_fadd+0x2aa>
 8000978:	e727      	b.n	80007ca <__aeabi_fadd+0xfa>
 800097a:	1871      	adds	r1, r6, r1
 800097c:	0849      	lsrs	r1, r1, #1
 800097e:	074a      	lsls	r2, r1, #29
 8000980:	d02f      	beq.n	80009e2 <__aeabi_fadd+0x312>
 8000982:	220f      	movs	r2, #15
 8000984:	400a      	ands	r2, r1
 8000986:	2a04      	cmp	r2, #4
 8000988:	d02b      	beq.n	80009e2 <__aeabi_fadd+0x312>
 800098a:	1d0e      	adds	r6, r1, #4
 800098c:	e6e6      	b.n	800075c <__aeabi_fadd+0x8c>
 800098e:	2aff      	cmp	r2, #255	@ 0xff
 8000990:	d08d      	beq.n	80008ae <__aeabi_fadd+0x1de>
 8000992:	2080      	movs	r0, #128	@ 0x80
 8000994:	04c0      	lsls	r0, r0, #19
 8000996:	4306      	orrs	r6, r0
 8000998:	2b1b      	cmp	r3, #27
 800099a:	dd24      	ble.n	80009e6 <__aeabi_fadd+0x316>
 800099c:	0013      	movs	r3, r2
 800099e:	1d4e      	adds	r6, r1, #5
 80009a0:	e6dc      	b.n	800075c <__aeabi_fadd+0x8c>
 80009a2:	464c      	mov	r4, r9
 80009a4:	1b8f      	subs	r7, r1, r6
 80009a6:	e6f9      	b.n	800079c <__aeabi_fadd+0xcc>
 80009a8:	464c      	mov	r4, r9
 80009aa:	000e      	movs	r6, r1
 80009ac:	e6d6      	b.n	800075c <__aeabi_fadd+0x8c>
 80009ae:	2e00      	cmp	r6, #0
 80009b0:	d149      	bne.n	8000a46 <__aeabi_fadd+0x376>
 80009b2:	2900      	cmp	r1, #0
 80009b4:	d068      	beq.n	8000a88 <__aeabi_fadd+0x3b8>
 80009b6:	4667      	mov	r7, ip
 80009b8:	464c      	mov	r4, r9
 80009ba:	e77c      	b.n	80008b6 <__aeabi_fadd+0x1e6>
 80009bc:	1870      	adds	r0, r6, r1
 80009be:	0143      	lsls	r3, r0, #5
 80009c0:	d574      	bpl.n	8000aac <__aeabi_fadd+0x3dc>
 80009c2:	4930      	ldr	r1, [pc, #192]	@ (8000a84 <__aeabi_fadd+0x3b4>)
 80009c4:	0840      	lsrs	r0, r0, #1
 80009c6:	4001      	ands	r1, r0
 80009c8:	0743      	lsls	r3, r0, #29
 80009ca:	d009      	beq.n	80009e0 <__aeabi_fadd+0x310>
 80009cc:	230f      	movs	r3, #15
 80009ce:	4003      	ands	r3, r0
 80009d0:	2b04      	cmp	r3, #4
 80009d2:	d005      	beq.n	80009e0 <__aeabi_fadd+0x310>
 80009d4:	2302      	movs	r3, #2
 80009d6:	1d0e      	adds	r6, r1, #4
 80009d8:	e6c0      	b.n	800075c <__aeabi_fadd+0x8c>
 80009da:	2301      	movs	r3, #1
 80009dc:	08cf      	lsrs	r7, r1, #3
 80009de:	e6c1      	b.n	8000764 <__aeabi_fadd+0x94>
 80009e0:	2302      	movs	r3, #2
 80009e2:	08cf      	lsrs	r7, r1, #3
 80009e4:	e6be      	b.n	8000764 <__aeabi_fadd+0x94>
 80009e6:	2520      	movs	r5, #32
 80009e8:	0030      	movs	r0, r6
 80009ea:	40d8      	lsrs	r0, r3
 80009ec:	1aeb      	subs	r3, r5, r3
 80009ee:	409e      	lsls	r6, r3
 80009f0:	0033      	movs	r3, r6
 80009f2:	1e5d      	subs	r5, r3, #1
 80009f4:	41ab      	sbcs	r3, r5
 80009f6:	4303      	orrs	r3, r0
 80009f8:	0015      	movs	r5, r2
 80009fa:	185e      	adds	r6, r3, r1
 80009fc:	e7a0      	b.n	8000940 <__aeabi_fadd+0x270>
 80009fe:	2900      	cmp	r1, #0
 8000a00:	d100      	bne.n	8000a04 <__aeabi_fadd+0x334>
 8000a02:	e765      	b.n	80008d0 <__aeabi_fadd+0x200>
 8000a04:	464c      	mov	r4, r9
 8000a06:	4667      	mov	r7, ip
 8000a08:	e6ac      	b.n	8000764 <__aeabi_fadd+0x94>
 8000a0a:	1b8f      	subs	r7, r1, r6
 8000a0c:	017b      	lsls	r3, r7, #5
 8000a0e:	d52e      	bpl.n	8000a6e <__aeabi_fadd+0x39e>
 8000a10:	01bf      	lsls	r7, r7, #6
 8000a12:	09bf      	lsrs	r7, r7, #6
 8000a14:	0038      	movs	r0, r7
 8000a16:	f000 fe3f 	bl	8001698 <__clzsi2>
 8000a1a:	003b      	movs	r3, r7
 8000a1c:	3805      	subs	r0, #5
 8000a1e:	4083      	lsls	r3, r0
 8000a20:	464c      	mov	r4, r9
 8000a22:	3501      	adds	r5, #1
 8000a24:	e710      	b.n	8000848 <__aeabi_fadd+0x178>
 8000a26:	2e00      	cmp	r6, #0
 8000a28:	d100      	bne.n	8000a2c <__aeabi_fadd+0x35c>
 8000a2a:	e740      	b.n	80008ae <__aeabi_fadd+0x1de>
 8000a2c:	2900      	cmp	r1, #0
 8000a2e:	d100      	bne.n	8000a32 <__aeabi_fadd+0x362>
 8000a30:	e741      	b.n	80008b6 <__aeabi_fadd+0x1e6>
 8000a32:	2380      	movs	r3, #128	@ 0x80
 8000a34:	03db      	lsls	r3, r3, #15
 8000a36:	429f      	cmp	r7, r3
 8000a38:	d200      	bcs.n	8000a3c <__aeabi_fadd+0x36c>
 8000a3a:	e73c      	b.n	80008b6 <__aeabi_fadd+0x1e6>
 8000a3c:	459c      	cmp	ip, r3
 8000a3e:	d300      	bcc.n	8000a42 <__aeabi_fadd+0x372>
 8000a40:	e739      	b.n	80008b6 <__aeabi_fadd+0x1e6>
 8000a42:	4667      	mov	r7, ip
 8000a44:	e737      	b.n	80008b6 <__aeabi_fadd+0x1e6>
 8000a46:	2900      	cmp	r1, #0
 8000a48:	d100      	bne.n	8000a4c <__aeabi_fadd+0x37c>
 8000a4a:	e734      	b.n	80008b6 <__aeabi_fadd+0x1e6>
 8000a4c:	2380      	movs	r3, #128	@ 0x80
 8000a4e:	03db      	lsls	r3, r3, #15
 8000a50:	429f      	cmp	r7, r3
 8000a52:	d200      	bcs.n	8000a56 <__aeabi_fadd+0x386>
 8000a54:	e72f      	b.n	80008b6 <__aeabi_fadd+0x1e6>
 8000a56:	459c      	cmp	ip, r3
 8000a58:	d300      	bcc.n	8000a5c <__aeabi_fadd+0x38c>
 8000a5a:	e72c      	b.n	80008b6 <__aeabi_fadd+0x1e6>
 8000a5c:	464c      	mov	r4, r9
 8000a5e:	4667      	mov	r7, ip
 8000a60:	e729      	b.n	80008b6 <__aeabi_fadd+0x1e6>
 8000a62:	2900      	cmp	r1, #0
 8000a64:	d100      	bne.n	8000a68 <__aeabi_fadd+0x398>
 8000a66:	e734      	b.n	80008d2 <__aeabi_fadd+0x202>
 8000a68:	2300      	movs	r3, #0
 8000a6a:	08cf      	lsrs	r7, r1, #3
 8000a6c:	e67a      	b.n	8000764 <__aeabi_fadd+0x94>
 8000a6e:	464c      	mov	r4, r9
 8000a70:	2301      	movs	r3, #1
 8000a72:	08ff      	lsrs	r7, r7, #3
 8000a74:	e676      	b.n	8000764 <__aeabi_fadd+0x94>
 8000a76:	2f00      	cmp	r7, #0
 8000a78:	d100      	bne.n	8000a7c <__aeabi_fadd+0x3ac>
 8000a7a:	e729      	b.n	80008d0 <__aeabi_fadd+0x200>
 8000a7c:	08ff      	lsrs	r7, r7, #3
 8000a7e:	e671      	b.n	8000764 <__aeabi_fadd+0x94>
 8000a80:	fbffffff 	.word	0xfbffffff
 8000a84:	7dffffff 	.word	0x7dffffff
 8000a88:	2280      	movs	r2, #128	@ 0x80
 8000a8a:	2400      	movs	r4, #0
 8000a8c:	20ff      	movs	r0, #255	@ 0xff
 8000a8e:	03d2      	lsls	r2, r2, #15
 8000a90:	e69d      	b.n	80007ce <__aeabi_fadd+0xfe>
 8000a92:	2300      	movs	r3, #0
 8000a94:	e666      	b.n	8000764 <__aeabi_fadd+0x94>
 8000a96:	2300      	movs	r3, #0
 8000a98:	08d7      	lsrs	r7, r2, #3
 8000a9a:	e663      	b.n	8000764 <__aeabi_fadd+0x94>
 8000a9c:	2001      	movs	r0, #1
 8000a9e:	0172      	lsls	r2, r6, #5
 8000aa0:	d500      	bpl.n	8000aa4 <__aeabi_fadd+0x3d4>
 8000aa2:	e6e7      	b.n	8000874 <__aeabi_fadd+0x1a4>
 8000aa4:	0031      	movs	r1, r6
 8000aa6:	2300      	movs	r3, #0
 8000aa8:	08cf      	lsrs	r7, r1, #3
 8000aaa:	e65b      	b.n	8000764 <__aeabi_fadd+0x94>
 8000aac:	2301      	movs	r3, #1
 8000aae:	08c7      	lsrs	r7, r0, #3
 8000ab0:	e658      	b.n	8000764 <__aeabi_fadd+0x94>
 8000ab2:	46c0      	nop			@ (mov r8, r8)

08000ab4 <__aeabi_fdiv>:
 8000ab4:	b5f0      	push	{r4, r5, r6, r7, lr}
 8000ab6:	4646      	mov	r6, r8
 8000ab8:	464f      	mov	r7, r9
 8000aba:	46d6      	mov	lr, sl
 8000abc:	0245      	lsls	r5, r0, #9
 8000abe:	b5c0      	push	{r6, r7, lr}
 8000ac0:	0fc3      	lsrs	r3, r0, #31
 8000ac2:	0047      	lsls	r7, r0, #1
 8000ac4:	4698      	mov	r8, r3
 8000ac6:	1c0e      	adds	r6, r1, #0
 8000ac8:	0a6d      	lsrs	r5, r5, #9
 8000aca:	0e3f      	lsrs	r7, r7, #24
 8000acc:	d05b      	beq.n	8000b86 <__aeabi_fdiv+0xd2>
 8000ace:	2fff      	cmp	r7, #255	@ 0xff
 8000ad0:	d021      	beq.n	8000b16 <__aeabi_fdiv+0x62>
 8000ad2:	2380      	movs	r3, #128	@ 0x80
 8000ad4:	00ed      	lsls	r5, r5, #3
 8000ad6:	04db      	lsls	r3, r3, #19
 8000ad8:	431d      	orrs	r5, r3
 8000ada:	2300      	movs	r3, #0
 8000adc:	4699      	mov	r9, r3
 8000ade:	469a      	mov	sl, r3
 8000ae0:	3f7f      	subs	r7, #127	@ 0x7f
 8000ae2:	0274      	lsls	r4, r6, #9
 8000ae4:	0073      	lsls	r3, r6, #1
 8000ae6:	0a64      	lsrs	r4, r4, #9
 8000ae8:	0e1b      	lsrs	r3, r3, #24
 8000aea:	0ff6      	lsrs	r6, r6, #31
 8000aec:	2b00      	cmp	r3, #0
 8000aee:	d020      	beq.n	8000b32 <__aeabi_fdiv+0x7e>
 8000af0:	2bff      	cmp	r3, #255	@ 0xff
 8000af2:	d043      	beq.n	8000b7c <__aeabi_fdiv+0xc8>
 8000af4:	2280      	movs	r2, #128	@ 0x80
 8000af6:	2000      	movs	r0, #0
 8000af8:	00e4      	lsls	r4, r4, #3
 8000afa:	04d2      	lsls	r2, r2, #19
 8000afc:	4314      	orrs	r4, r2
 8000afe:	3b7f      	subs	r3, #127	@ 0x7f
 8000b00:	4642      	mov	r2, r8
 8000b02:	1aff      	subs	r7, r7, r3
 8000b04:	464b      	mov	r3, r9
 8000b06:	4072      	eors	r2, r6
 8000b08:	2b0f      	cmp	r3, #15
 8000b0a:	d900      	bls.n	8000b0e <__aeabi_fdiv+0x5a>
 8000b0c:	e09d      	b.n	8000c4a <__aeabi_fdiv+0x196>
 8000b0e:	4971      	ldr	r1, [pc, #452]	@ (8000cd4 <__aeabi_fdiv+0x220>)
 8000b10:	009b      	lsls	r3, r3, #2
 8000b12:	58cb      	ldr	r3, [r1, r3]
 8000b14:	469f      	mov	pc, r3
 8000b16:	2d00      	cmp	r5, #0
 8000b18:	d15a      	bne.n	8000bd0 <__aeabi_fdiv+0x11c>
 8000b1a:	2308      	movs	r3, #8
 8000b1c:	4699      	mov	r9, r3
 8000b1e:	3b06      	subs	r3, #6
 8000b20:	0274      	lsls	r4, r6, #9
 8000b22:	469a      	mov	sl, r3
 8000b24:	0073      	lsls	r3, r6, #1
 8000b26:	27ff      	movs	r7, #255	@ 0xff
 8000b28:	0a64      	lsrs	r4, r4, #9
 8000b2a:	0e1b      	lsrs	r3, r3, #24
 8000b2c:	0ff6      	lsrs	r6, r6, #31
 8000b2e:	2b00      	cmp	r3, #0
 8000b30:	d1de      	bne.n	8000af0 <__aeabi_fdiv+0x3c>
 8000b32:	2c00      	cmp	r4, #0
 8000b34:	d13b      	bne.n	8000bae <__aeabi_fdiv+0xfa>
 8000b36:	2301      	movs	r3, #1
 8000b38:	4642      	mov	r2, r8
 8000b3a:	4649      	mov	r1, r9
 8000b3c:	4072      	eors	r2, r6
 8000b3e:	4319      	orrs	r1, r3
 8000b40:	290e      	cmp	r1, #14
 8000b42:	d818      	bhi.n	8000b76 <__aeabi_fdiv+0xc2>
 8000b44:	4864      	ldr	r0, [pc, #400]	@ (8000cd8 <__aeabi_fdiv+0x224>)
 8000b46:	0089      	lsls	r1, r1, #2
 8000b48:	5841      	ldr	r1, [r0, r1]
 8000b4a:	468f      	mov	pc, r1
 8000b4c:	4653      	mov	r3, sl
 8000b4e:	2b02      	cmp	r3, #2
 8000b50:	d100      	bne.n	8000b54 <__aeabi_fdiv+0xa0>
 8000b52:	e0b8      	b.n	8000cc6 <__aeabi_fdiv+0x212>
 8000b54:	2b03      	cmp	r3, #3
 8000b56:	d06e      	beq.n	8000c36 <__aeabi_fdiv+0x182>
 8000b58:	4642      	mov	r2, r8
 8000b5a:	002c      	movs	r4, r5
 8000b5c:	2b01      	cmp	r3, #1
 8000b5e:	d140      	bne.n	8000be2 <__aeabi_fdiv+0x12e>
 8000b60:	2000      	movs	r0, #0
 8000b62:	2400      	movs	r4, #0
 8000b64:	05c0      	lsls	r0, r0, #23
 8000b66:	4320      	orrs	r0, r4
 8000b68:	07d2      	lsls	r2, r2, #31
 8000b6a:	4310      	orrs	r0, r2
 8000b6c:	bce0      	pop	{r5, r6, r7}
 8000b6e:	46ba      	mov	sl, r7
 8000b70:	46b1      	mov	r9, r6
 8000b72:	46a8      	mov	r8, r5
 8000b74:	bdf0      	pop	{r4, r5, r6, r7, pc}
 8000b76:	20ff      	movs	r0, #255	@ 0xff
 8000b78:	2400      	movs	r4, #0
 8000b7a:	e7f3      	b.n	8000b64 <__aeabi_fdiv+0xb0>
 8000b7c:	2c00      	cmp	r4, #0
 8000b7e:	d120      	bne.n	8000bc2 <__aeabi_fdiv+0x10e>
 8000b80:	2302      	movs	r3, #2
 8000b82:	3fff      	subs	r7, #255	@ 0xff
 8000b84:	e7d8      	b.n	8000b38 <__aeabi_fdiv+0x84>
 8000b86:	2d00      	cmp	r5, #0
 8000b88:	d105      	bne.n	8000b96 <__aeabi_fdiv+0xe2>
 8000b8a:	2304      	movs	r3, #4
 8000b8c:	4699      	mov	r9, r3
 8000b8e:	3b03      	subs	r3, #3
 8000b90:	2700      	movs	r7, #0
 8000b92:	469a      	mov	sl, r3
 8000b94:	e7a5      	b.n	8000ae2 <__aeabi_fdiv+0x2e>
 8000b96:	0028      	movs	r0, r5
 8000b98:	f000 fd7e 	bl	8001698 <__clzsi2>
 8000b9c:	2776      	movs	r7, #118	@ 0x76
 8000b9e:	1f43      	subs	r3, r0, #5
 8000ba0:	409d      	lsls	r5, r3
 8000ba2:	2300      	movs	r3, #0
 8000ba4:	427f      	negs	r7, r7
 8000ba6:	4699      	mov	r9, r3
 8000ba8:	469a      	mov	sl, r3
 8000baa:	1a3f      	subs	r7, r7, r0
 8000bac:	e799      	b.n	8000ae2 <__aeabi_fdiv+0x2e>
 8000bae:	0020      	movs	r0, r4
 8000bb0:	f000 fd72 	bl	8001698 <__clzsi2>
 8000bb4:	1f43      	subs	r3, r0, #5
 8000bb6:	409c      	lsls	r4, r3
 8000bb8:	2376      	movs	r3, #118	@ 0x76
 8000bba:	425b      	negs	r3, r3
 8000bbc:	1a1b      	subs	r3, r3, r0
 8000bbe:	2000      	movs	r0, #0
 8000bc0:	e79e      	b.n	8000b00 <__aeabi_fdiv+0x4c>
 8000bc2:	2303      	movs	r3, #3
 8000bc4:	464a      	mov	r2, r9
 8000bc6:	431a      	orrs	r2, r3
 8000bc8:	4691      	mov	r9, r2
 8000bca:	2003      	movs	r0, #3
 8000bcc:	33fc      	adds	r3, #252	@ 0xfc
 8000bce:	e797      	b.n	8000b00 <__aeabi_fdiv+0x4c>
 8000bd0:	230c      	movs	r3, #12
 8000bd2:	4699      	mov	r9, r3
 8000bd4:	3b09      	subs	r3, #9
 8000bd6:	27ff      	movs	r7, #255	@ 0xff
 8000bd8:	469a      	mov	sl, r3
 8000bda:	e782      	b.n	8000ae2 <__aeabi_fdiv+0x2e>
 8000bdc:	2803      	cmp	r0, #3
 8000bde:	d02c      	beq.n	8000c3a <__aeabi_fdiv+0x186>
 8000be0:	0032      	movs	r2, r6
 8000be2:	0038      	movs	r0, r7
 8000be4:	307f      	adds	r0, #127	@ 0x7f
 8000be6:	2800      	cmp	r0, #0
 8000be8:	dd47      	ble.n	8000c7a <__aeabi_fdiv+0x1c6>
 8000bea:	0763      	lsls	r3, r4, #29
 8000bec:	d004      	beq.n	8000bf8 <__aeabi_fdiv+0x144>
 8000bee:	230f      	movs	r3, #15
 8000bf0:	4023      	ands	r3, r4
 8000bf2:	2b04      	cmp	r3, #4
 8000bf4:	d000      	beq.n	8000bf8 <__aeabi_fdiv+0x144>
 8000bf6:	3404      	adds	r4, #4
 8000bf8:	0123      	lsls	r3, r4, #4
 8000bfa:	d503      	bpl.n	8000c04 <__aeabi_fdiv+0x150>
 8000bfc:	0038      	movs	r0, r7
 8000bfe:	4b37      	ldr	r3, [pc, #220]	@ (8000cdc <__aeabi_fdiv+0x228>)
 8000c00:	3080      	adds	r0, #128	@ 0x80
 8000c02:	401c      	ands	r4, r3
 8000c04:	28fe      	cmp	r0, #254	@ 0xfe
 8000c06:	dcb6      	bgt.n	8000b76 <__aeabi_fdiv+0xc2>
 8000c08:	01a4      	lsls	r4, r4, #6
 8000c0a:	0a64      	lsrs	r4, r4, #9
 8000c0c:	b2c0      	uxtb	r0, r0
 8000c0e:	e7a9      	b.n	8000b64 <__aeabi_fdiv+0xb0>
 8000c10:	2480      	movs	r4, #128	@ 0x80
 8000c12:	2200      	movs	r2, #0
 8000c14:	20ff      	movs	r0, #255	@ 0xff
 8000c16:	03e4      	lsls	r4, r4, #15
 8000c18:	e7a4      	b.n	8000b64 <__aeabi_fdiv+0xb0>
 8000c1a:	2380      	movs	r3, #128	@ 0x80
 8000c1c:	03db      	lsls	r3, r3, #15
 8000c1e:	421d      	tst	r5, r3
 8000c20:	d001      	beq.n	8000c26 <__aeabi_fdiv+0x172>
 8000c22:	421c      	tst	r4, r3
 8000c24:	d00b      	beq.n	8000c3e <__aeabi_fdiv+0x18a>
 8000c26:	2480      	movs	r4, #128	@ 0x80
 8000c28:	03e4      	lsls	r4, r4, #15
 8000c2a:	432c      	orrs	r4, r5
 8000c2c:	0264      	lsls	r4, r4, #9
 8000c2e:	4642      	mov	r2, r8
 8000c30:	20ff      	movs	r0, #255	@ 0xff
 8000c32:	0a64      	lsrs	r4, r4, #9
 8000c34:	e796      	b.n	8000b64 <__aeabi_fdiv+0xb0>
 8000c36:	4646      	mov	r6, r8
 8000c38:	002c      	movs	r4, r5
 8000c3a:	2380      	movs	r3, #128	@ 0x80
 8000c3c:	03db      	lsls	r3, r3, #15
 8000c3e:	431c      	orrs	r4, r3
 8000c40:	0264      	lsls	r4, r4, #9
 8000c42:	0032      	movs	r2, r6
 8000c44:	20ff      	movs	r0, #255	@ 0xff
 8000c46:	0a64      	lsrs	r4, r4, #9
 8000c48:	e78c      	b.n	8000b64 <__aeabi_fdiv+0xb0>
 8000c4a:	016d      	lsls	r5, r5, #5
 8000c4c:	0160      	lsls	r0, r4, #5
 8000c4e:	4285      	cmp	r5, r0
 8000c50:	d22d      	bcs.n	8000cae <__aeabi_fdiv+0x1fa>
 8000c52:	231b      	movs	r3, #27
 8000c54:	2400      	movs	r4, #0
 8000c56:	3f01      	subs	r7, #1
 8000c58:	2601      	movs	r6, #1
 8000c5a:	0029      	movs	r1, r5
 8000c5c:	0064      	lsls	r4, r4, #1
 8000c5e:	006d      	lsls	r5, r5, #1
 8000c60:	2900      	cmp	r1, #0
 8000c62:	db01      	blt.n	8000c68 <__aeabi_fdiv+0x1b4>
 8000c64:	4285      	cmp	r5, r0
 8000c66:	d301      	bcc.n	8000c6c <__aeabi_fdiv+0x1b8>
 8000c68:	1a2d      	subs	r5, r5, r0
 8000c6a:	4334      	orrs	r4, r6
 8000c6c:	3b01      	subs	r3, #1
 8000c6e:	2b00      	cmp	r3, #0
 8000c70:	d1f3      	bne.n	8000c5a <__aeabi_fdiv+0x1a6>
 8000c72:	1e6b      	subs	r3, r5, #1
 8000c74:	419d      	sbcs	r5, r3
 8000c76:	432c      	orrs	r4, r5
 8000c78:	e7b3      	b.n	8000be2 <__aeabi_fdiv+0x12e>
 8000c7a:	2301      	movs	r3, #1
 8000c7c:	1a1b      	subs	r3, r3, r0
 8000c7e:	2b1b      	cmp	r3, #27
 8000c80:	dd00      	ble.n	8000c84 <__aeabi_fdiv+0x1d0>
 8000c82:	e76d      	b.n	8000b60 <__aeabi_fdiv+0xac>
 8000c84:	0021      	movs	r1, r4
 8000c86:	379e      	adds	r7, #158	@ 0x9e
 8000c88:	40d9      	lsrs	r1, r3
 8000c8a:	40bc      	lsls	r4, r7
 8000c8c:	000b      	movs	r3, r1
 8000c8e:	1e61      	subs	r1, r4, #1
 8000c90:	418c      	sbcs	r4, r1
 8000c92:	4323      	orrs	r3, r4
 8000c94:	0759      	lsls	r1, r3, #29
 8000c96:	d004      	beq.n	8000ca2 <__aeabi_fdiv+0x1ee>
 8000c98:	210f      	movs	r1, #15
 8000c9a:	4019      	ands	r1, r3
 8000c9c:	2904      	cmp	r1, #4
 8000c9e:	d000      	beq.n	8000ca2 <__aeabi_fdiv+0x1ee>
 8000ca0:	3304      	adds	r3, #4
 8000ca2:	0159      	lsls	r1, r3, #5
 8000ca4:	d413      	bmi.n	8000cce <__aeabi_fdiv+0x21a>
 8000ca6:	019b      	lsls	r3, r3, #6
 8000ca8:	2000      	movs	r0, #0
 8000caa:	0a5c      	lsrs	r4, r3, #9
 8000cac:	e75a      	b.n	8000b64 <__aeabi_fdiv+0xb0>
 8000cae:	231a      	movs	r3, #26
 8000cb0:	2401      	movs	r4, #1
 8000cb2:	1a2d      	subs	r5, r5, r0
 8000cb4:	e7d0      	b.n	8000c58 <__aeabi_fdiv+0x1a4>
 8000cb6:	1e98      	subs	r0, r3, #2
 8000cb8:	4243      	negs	r3, r0
 8000cba:	4158      	adcs	r0, r3
 8000cbc:	4240      	negs	r0, r0
 8000cbe:	0032      	movs	r2, r6
 8000cc0:	2400      	movs	r4, #0
 8000cc2:	b2c0      	uxtb	r0, r0
 8000cc4:	e74e      	b.n	8000b64 <__aeabi_fdiv+0xb0>
 8000cc6:	4642      	mov	r2, r8
 8000cc8:	20ff      	movs	r0, #255	@ 0xff
 8000cca:	2400      	movs	r4, #0
 8000ccc:	e74a      	b.n	8000b64 <__aeabi_fdiv+0xb0>
 8000cce:	2001      	movs	r0, #1
 8000cd0:	2400      	movs	r4, #0
 8000cd2:	e747      	b.n	8000b64 <__aeabi_fdiv+0xb0>
 8000cd4:	08006588 	.word	0x08006588
 8000cd8:	080065c8 	.word	0x080065c8
 8000cdc:	f7ffffff 	.word	0xf7ffffff

08000ce0 <__eqsf2>:
 8000ce0:	b570      	push	{r4, r5, r6, lr}
 8000ce2:	0042      	lsls	r2, r0, #1
 8000ce4:	024e      	lsls	r6, r1, #9
 8000ce6:	004c      	lsls	r4, r1, #1
 8000ce8:	0245      	lsls	r5, r0, #9
 8000cea:	0a6d      	lsrs	r5, r5, #9
 8000cec:	0e12      	lsrs	r2, r2, #24
 8000cee:	0fc3      	lsrs	r3, r0, #31
 8000cf0:	0a76      	lsrs	r6, r6, #9
 8000cf2:	0e24      	lsrs	r4, r4, #24
 8000cf4:	0fc9      	lsrs	r1, r1, #31
 8000cf6:	2aff      	cmp	r2, #255	@ 0xff
 8000cf8:	d010      	beq.n	8000d1c <__eqsf2+0x3c>
 8000cfa:	2cff      	cmp	r4, #255	@ 0xff
 8000cfc:	d00c      	beq.n	8000d18 <__eqsf2+0x38>
 8000cfe:	2001      	movs	r0, #1
 8000d00:	42a2      	cmp	r2, r4
 8000d02:	d10a      	bne.n	8000d1a <__eqsf2+0x3a>
 8000d04:	42b5      	cmp	r5, r6
 8000d06:	d108      	bne.n	8000d1a <__eqsf2+0x3a>
 8000d08:	428b      	cmp	r3, r1
 8000d0a:	d00f      	beq.n	8000d2c <__eqsf2+0x4c>
 8000d0c:	2a00      	cmp	r2, #0
 8000d0e:	d104      	bne.n	8000d1a <__eqsf2+0x3a>
 8000d10:	0028      	movs	r0, r5
 8000d12:	1e43      	subs	r3, r0, #1
 8000d14:	4198      	sbcs	r0, r3
 8000d16:	e000      	b.n	8000d1a <__eqsf2+0x3a>
 8000d18:	2001      	movs	r0, #1
 8000d1a:	bd70      	pop	{r4, r5, r6, pc}
 8000d1c:	2001      	movs	r0, #1
 8000d1e:	2cff      	cmp	r4, #255	@ 0xff
 8000d20:	d1fb      	bne.n	8000d1a <__eqsf2+0x3a>
 8000d22:	4335      	orrs	r5, r6
 8000d24:	d1f9      	bne.n	8000d1a <__eqsf2+0x3a>
 8000d26:	404b      	eors	r3, r1
 8000d28:	0018      	movs	r0, r3
 8000d2a:	e7f6      	b.n	8000d1a <__eqsf2+0x3a>
 8000d2c:	2000      	movs	r0, #0
 8000d2e:	e7f4      	b.n	8000d1a <__eqsf2+0x3a>

08000d30 <__gesf2>:
 8000d30:	b530      	push	{r4, r5, lr}
 8000d32:	0042      	lsls	r2, r0, #1
 8000d34:	0244      	lsls	r4, r0, #9
 8000d36:	024d      	lsls	r5, r1, #9
 8000d38:	0fc3      	lsrs	r3, r0, #31
 8000d3a:	0048      	lsls	r0, r1, #1
 8000d3c:	0a64      	lsrs	r4, r4, #9
 8000d3e:	0e12      	lsrs	r2, r2, #24
 8000d40:	0a6d      	lsrs	r5, r5, #9
 8000d42:	0e00      	lsrs	r0, r0, #24
 8000d44:	0fc9      	lsrs	r1, r1, #31
 8000d46:	2aff      	cmp	r2, #255	@ 0xff
 8000d48:	d018      	beq.n	8000d7c <__gesf2+0x4c>
 8000d4a:	28ff      	cmp	r0, #255	@ 0xff
 8000d4c:	d00a      	beq.n	8000d64 <__gesf2+0x34>
 8000d4e:	2a00      	cmp	r2, #0
 8000d50:	d11e      	bne.n	8000d90 <__gesf2+0x60>
 8000d52:	2800      	cmp	r0, #0
 8000d54:	d10a      	bne.n	8000d6c <__gesf2+0x3c>
 8000d56:	2d00      	cmp	r5, #0
 8000d58:	d029      	beq.n	8000dae <__gesf2+0x7e>
 8000d5a:	2c00      	cmp	r4, #0
 8000d5c:	d12d      	bne.n	8000dba <__gesf2+0x8a>
 8000d5e:	0048      	lsls	r0, r1, #1
 8000d60:	3801      	subs	r0, #1
 8000d62:	bd30      	pop	{r4, r5, pc}
 8000d64:	2d00      	cmp	r5, #0
 8000d66:	d125      	bne.n	8000db4 <__gesf2+0x84>
 8000d68:	2a00      	cmp	r2, #0
 8000d6a:	d101      	bne.n	8000d70 <__gesf2+0x40>
 8000d6c:	2c00      	cmp	r4, #0
 8000d6e:	d0f6      	beq.n	8000d5e <__gesf2+0x2e>
 8000d70:	428b      	cmp	r3, r1
 8000d72:	d019      	beq.n	8000da8 <__gesf2+0x78>
 8000d74:	2001      	movs	r0, #1
 8000d76:	425b      	negs	r3, r3
 8000d78:	4318      	orrs	r0, r3
 8000d7a:	e7f2      	b.n	8000d62 <__gesf2+0x32>
 8000d7c:	2c00      	cmp	r4, #0
 8000d7e:	d119      	bne.n	8000db4 <__gesf2+0x84>
 8000d80:	28ff      	cmp	r0, #255	@ 0xff
 8000d82:	d1f7      	bne.n	8000d74 <__gesf2+0x44>
 8000d84:	2d00      	cmp	r5, #0
 8000d86:	d115      	bne.n	8000db4 <__gesf2+0x84>
 8000d88:	2000      	movs	r0, #0
 8000d8a:	428b      	cmp	r3, r1
 8000d8c:	d1f2      	bne.n	8000d74 <__gesf2+0x44>
 8000d8e:	e7e8      	b.n	8000d62 <__gesf2+0x32>
 8000d90:	2800      	cmp	r0, #0
 8000d92:	d0ef      	beq.n	8000d74 <__gesf2+0x44>
 8000d94:	428b      	cmp	r3, r1
 8000d96:	d1ed      	bne.n	8000d74 <__gesf2+0x44>
 8000d98:	4282      	cmp	r2, r0
 8000d9a:	dceb      	bgt.n	8000d74 <__gesf2+0x44>
 8000d9c:	db04      	blt.n	8000da8 <__gesf2+0x78>
 8000d9e:	42ac      	cmp	r4, r5
 8000da0:	d8e8      	bhi.n	8000d74 <__gesf2+0x44>
 8000da2:	2000      	movs	r0, #0
 8000da4:	42ac      	cmp	r4, r5
 8000da6:	d2dc      	bcs.n	8000d62 <__gesf2+0x32>
 8000da8:	0058      	lsls	r0, r3, #1
 8000daa:	3801      	subs	r0, #1
 8000dac:	e7d9      	b.n	8000d62 <__gesf2+0x32>
 8000dae:	2c00      	cmp	r4, #0
 8000db0:	d0d7      	beq.n	8000d62 <__gesf2+0x32>
 8000db2:	e7df      	b.n	8000d74 <__gesf2+0x44>
 8000db4:	2002      	movs	r0, #2
 8000db6:	4240      	negs	r0, r0
 8000db8:	e7d3      	b.n	8000d62 <__gesf2+0x32>
 8000dba:	428b      	cmp	r3, r1
 8000dbc:	d1da      	bne.n	8000d74 <__gesf2+0x44>
 8000dbe:	e7ee      	b.n	8000d9e <__gesf2+0x6e>

08000dc0 <__lesf2>:
 8000dc0:	b530      	push	{r4, r5, lr}
 8000dc2:	0042      	lsls	r2, r0, #1
 8000dc4:	0244      	lsls	r4, r0, #9
 8000dc6:	024d      	lsls	r5, r1, #9
 8000dc8:	0fc3      	lsrs	r3, r0, #31
 8000dca:	0048      	lsls	r0, r1, #1
 8000dcc:	0a64      	lsrs	r4, r4, #9
 8000dce:	0e12      	lsrs	r2, r2, #24
 8000dd0:	0a6d      	lsrs	r5, r5, #9
 8000dd2:	0e00      	lsrs	r0, r0, #24
 8000dd4:	0fc9      	lsrs	r1, r1, #31
 8000dd6:	2aff      	cmp	r2, #255	@ 0xff
 8000dd8:	d017      	beq.n	8000e0a <__lesf2+0x4a>
 8000dda:	28ff      	cmp	r0, #255	@ 0xff
 8000ddc:	d00a      	beq.n	8000df4 <__lesf2+0x34>
 8000dde:	2a00      	cmp	r2, #0
 8000de0:	d11b      	bne.n	8000e1a <__lesf2+0x5a>
 8000de2:	2800      	cmp	r0, #0
 8000de4:	d10a      	bne.n	8000dfc <__lesf2+0x3c>
 8000de6:	2d00      	cmp	r5, #0
 8000de8:	d01d      	beq.n	8000e26 <__lesf2+0x66>
 8000dea:	2c00      	cmp	r4, #0
 8000dec:	d12d      	bne.n	8000e4a <__lesf2+0x8a>
 8000dee:	0048      	lsls	r0, r1, #1
 8000df0:	3801      	subs	r0, #1
 8000df2:	e011      	b.n	8000e18 <__lesf2+0x58>
 8000df4:	2d00      	cmp	r5, #0
 8000df6:	d10e      	bne.n	8000e16 <__lesf2+0x56>
 8000df8:	2a00      	cmp	r2, #0
 8000dfa:	d101      	bne.n	8000e00 <__lesf2+0x40>
 8000dfc:	2c00      	cmp	r4, #0
 8000dfe:	d0f6      	beq.n	8000dee <__lesf2+0x2e>
 8000e00:	428b      	cmp	r3, r1
 8000e02:	d10c      	bne.n	8000e1e <__lesf2+0x5e>
 8000e04:	0058      	lsls	r0, r3, #1
 8000e06:	3801      	subs	r0, #1
 8000e08:	e006      	b.n	8000e18 <__lesf2+0x58>
 8000e0a:	2c00      	cmp	r4, #0
 8000e0c:	d103      	bne.n	8000e16 <__lesf2+0x56>
 8000e0e:	28ff      	cmp	r0, #255	@ 0xff
 8000e10:	d105      	bne.n	8000e1e <__lesf2+0x5e>
 8000e12:	2d00      	cmp	r5, #0
 8000e14:	d015      	beq.n	8000e42 <__lesf2+0x82>
 8000e16:	2002      	movs	r0, #2
 8000e18:	bd30      	pop	{r4, r5, pc}
 8000e1a:	2800      	cmp	r0, #0
 8000e1c:	d106      	bne.n	8000e2c <__lesf2+0x6c>
 8000e1e:	2001      	movs	r0, #1
 8000e20:	425b      	negs	r3, r3
 8000e22:	4318      	orrs	r0, r3
 8000e24:	e7f8      	b.n	8000e18 <__lesf2+0x58>
 8000e26:	2c00      	cmp	r4, #0
 8000e28:	d0f6      	beq.n	8000e18 <__lesf2+0x58>
 8000e2a:	e7f8      	b.n	8000e1e <__lesf2+0x5e>
 8000e2c:	428b      	cmp	r3, r1
 8000e2e:	d1f6      	bne.n	8000e1e <__lesf2+0x5e>
 8000e30:	4282      	cmp	r2, r0
 8000e32:	dcf4      	bgt.n	8000e1e <__lesf2+0x5e>
 8000e34:	dbe6      	blt.n	8000e04 <__lesf2+0x44>
 8000e36:	42ac      	cmp	r4, r5
 8000e38:	d8f1      	bhi.n	8000e1e <__lesf2+0x5e>
 8000e3a:	2000      	movs	r0, #0
 8000e3c:	42ac      	cmp	r4, r5
 8000e3e:	d2eb      	bcs.n	8000e18 <__lesf2+0x58>
 8000e40:	e7e0      	b.n	8000e04 <__lesf2+0x44>
 8000e42:	2000      	movs	r0, #0
 8000e44:	428b      	cmp	r3, r1
 8000e46:	d1ea      	bne.n	8000e1e <__lesf2+0x5e>
 8000e48:	e7e6      	b.n	8000e18 <__lesf2+0x58>
 8000e4a:	428b      	cmp	r3, r1
 8000e4c:	d1e7      	bne.n	8000e1e <__lesf2+0x5e>
 8000e4e:	e7f2      	b.n	8000e36 <__lesf2+0x76>

08000e50 <__aeabi_fmul>:
 8000e50:	b5f0      	push	{r4, r5, r6, r7, lr}
 8000e52:	464f      	mov	r7, r9
 8000e54:	4646      	mov	r6, r8
 8000e56:	46d6      	mov	lr, sl
 8000e58:	0044      	lsls	r4, r0, #1
 8000e5a:	b5c0      	push	{r6, r7, lr}
 8000e5c:	0246      	lsls	r6, r0, #9
 8000e5e:	1c0f      	adds	r7, r1, #0
 8000e60:	0a76      	lsrs	r6, r6, #9
 8000e62:	0e24      	lsrs	r4, r4, #24
 8000e64:	0fc5      	lsrs	r5, r0, #31
 8000e66:	2c00      	cmp	r4, #0
 8000e68:	d100      	bne.n	8000e6c <__aeabi_fmul+0x1c>
 8000e6a:	e0da      	b.n	8001022 <__aeabi_fmul+0x1d2>
 8000e6c:	2cff      	cmp	r4, #255	@ 0xff
 8000e6e:	d074      	beq.n	8000f5a <__aeabi_fmul+0x10a>
 8000e70:	2380      	movs	r3, #128	@ 0x80
 8000e72:	00f6      	lsls	r6, r6, #3
 8000e74:	04db      	lsls	r3, r3, #19
 8000e76:	431e      	orrs	r6, r3
 8000e78:	2300      	movs	r3, #0
 8000e7a:	4699      	mov	r9, r3
 8000e7c:	469a      	mov	sl, r3
 8000e7e:	3c7f      	subs	r4, #127	@ 0x7f
 8000e80:	027b      	lsls	r3, r7, #9
 8000e82:	0a5b      	lsrs	r3, r3, #9
 8000e84:	4698      	mov	r8, r3
 8000e86:	007b      	lsls	r3, r7, #1
 8000e88:	0e1b      	lsrs	r3, r3, #24
 8000e8a:	0fff      	lsrs	r7, r7, #31
 8000e8c:	2b00      	cmp	r3, #0
 8000e8e:	d074      	beq.n	8000f7a <__aeabi_fmul+0x12a>
 8000e90:	2bff      	cmp	r3, #255	@ 0xff
 8000e92:	d100      	bne.n	8000e96 <__aeabi_fmul+0x46>
 8000e94:	e08e      	b.n	8000fb4 <__aeabi_fmul+0x164>
 8000e96:	4642      	mov	r2, r8
 8000e98:	2180      	movs	r1, #128	@ 0x80
 8000e9a:	00d2      	lsls	r2, r2, #3
 8000e9c:	04c9      	lsls	r1, r1, #19
 8000e9e:	4311      	orrs	r1, r2
 8000ea0:	3b7f      	subs	r3, #127	@ 0x7f
 8000ea2:	002a      	movs	r2, r5
 8000ea4:	18e4      	adds	r4, r4, r3
 8000ea6:	464b      	mov	r3, r9
 8000ea8:	407a      	eors	r2, r7
 8000eaa:	4688      	mov	r8, r1
 8000eac:	b2d2      	uxtb	r2, r2
 8000eae:	2b0a      	cmp	r3, #10
 8000eb0:	dc75      	bgt.n	8000f9e <__aeabi_fmul+0x14e>
 8000eb2:	464b      	mov	r3, r9
 8000eb4:	2000      	movs	r0, #0
 8000eb6:	2b02      	cmp	r3, #2
 8000eb8:	dd0f      	ble.n	8000eda <__aeabi_fmul+0x8a>
 8000eba:	4649      	mov	r1, r9
 8000ebc:	2301      	movs	r3, #1
 8000ebe:	408b      	lsls	r3, r1
 8000ec0:	21a6      	movs	r1, #166	@ 0xa6
 8000ec2:	00c9      	lsls	r1, r1, #3
 8000ec4:	420b      	tst	r3, r1
 8000ec6:	d169      	bne.n	8000f9c <__aeabi_fmul+0x14c>
 8000ec8:	2190      	movs	r1, #144	@ 0x90
 8000eca:	0089      	lsls	r1, r1, #2
 8000ecc:	420b      	tst	r3, r1
 8000ece:	d000      	beq.n	8000ed2 <__aeabi_fmul+0x82>
 8000ed0:	e100      	b.n	80010d4 <__aeabi_fmul+0x284>
 8000ed2:	2188      	movs	r1, #136	@ 0x88
 8000ed4:	4219      	tst	r1, r3
 8000ed6:	d000      	beq.n	8000eda <__aeabi_fmul+0x8a>
 8000ed8:	e0f5      	b.n	80010c6 <__aeabi_fmul+0x276>
 8000eda:	4641      	mov	r1, r8
 8000edc:	0409      	lsls	r1, r1, #16
 8000ede:	0c09      	lsrs	r1, r1, #16
 8000ee0:	4643      	mov	r3, r8
 8000ee2:	0008      	movs	r0, r1
 8000ee4:	0c35      	lsrs	r5, r6, #16
 8000ee6:	0436      	lsls	r6, r6, #16
 8000ee8:	0c1b      	lsrs	r3, r3, #16
 8000eea:	0c36      	lsrs	r6, r6, #16
 8000eec:	4370      	muls	r0, r6
 8000eee:	4369      	muls	r1, r5
 8000ef0:	435e      	muls	r6, r3
 8000ef2:	435d      	muls	r5, r3
 8000ef4:	1876      	adds	r6, r6, r1
 8000ef6:	0c03      	lsrs	r3, r0, #16
 8000ef8:	199b      	adds	r3, r3, r6
 8000efa:	4299      	cmp	r1, r3
 8000efc:	d903      	bls.n	8000f06 <__aeabi_fmul+0xb6>
 8000efe:	2180      	movs	r1, #128	@ 0x80
 8000f00:	0249      	lsls	r1, r1, #9
 8000f02:	468c      	mov	ip, r1
 8000f04:	4465      	add	r5, ip
 8000f06:	0400      	lsls	r0, r0, #16
 8000f08:	0419      	lsls	r1, r3, #16
 8000f0a:	0c00      	lsrs	r0, r0, #16
 8000f0c:	1809      	adds	r1, r1, r0
 8000f0e:	018e      	lsls	r6, r1, #6
 8000f10:	1e70      	subs	r0, r6, #1
 8000f12:	4186      	sbcs	r6, r0
 8000f14:	0c1b      	lsrs	r3, r3, #16
 8000f16:	0e89      	lsrs	r1, r1, #26
 8000f18:	195b      	adds	r3, r3, r5
 8000f1a:	430e      	orrs	r6, r1
 8000f1c:	019b      	lsls	r3, r3, #6
 8000f1e:	431e      	orrs	r6, r3
 8000f20:	011b      	lsls	r3, r3, #4
 8000f22:	d46c      	bmi.n	8000ffe <__aeabi_fmul+0x1ae>
 8000f24:	0023      	movs	r3, r4
 8000f26:	337f      	adds	r3, #127	@ 0x7f
 8000f28:	2b00      	cmp	r3, #0
 8000f2a:	dc00      	bgt.n	8000f2e <__aeabi_fmul+0xde>
 8000f2c:	e0b1      	b.n	8001092 <__aeabi_fmul+0x242>
 8000f2e:	0015      	movs	r5, r2
 8000f30:	0771      	lsls	r1, r6, #29
 8000f32:	d00b      	beq.n	8000f4c <__aeabi_fmul+0xfc>
 8000f34:	200f      	movs	r0, #15
 8000f36:	0021      	movs	r1, r4
 8000f38:	4030      	ands	r0, r6
 8000f3a:	2804      	cmp	r0, #4
 8000f3c:	d006      	beq.n	8000f4c <__aeabi_fmul+0xfc>
 8000f3e:	3604      	adds	r6, #4
 8000f40:	0132      	lsls	r2, r6, #4
 8000f42:	d503      	bpl.n	8000f4c <__aeabi_fmul+0xfc>
 8000f44:	4b6e      	ldr	r3, [pc, #440]	@ (8001100 <__aeabi_fmul+0x2b0>)
 8000f46:	401e      	ands	r6, r3
 8000f48:	000b      	movs	r3, r1
 8000f4a:	3380      	adds	r3, #128	@ 0x80
 8000f4c:	2bfe      	cmp	r3, #254	@ 0xfe
 8000f4e:	dd00      	ble.n	8000f52 <__aeabi_fmul+0x102>
 8000f50:	e0bd      	b.n	80010ce <__aeabi_fmul+0x27e>
 8000f52:	01b2      	lsls	r2, r6, #6
 8000f54:	0a52      	lsrs	r2, r2, #9
 8000f56:	b2db      	uxtb	r3, r3
 8000f58:	e048      	b.n	8000fec <__aeabi_fmul+0x19c>
 8000f5a:	2e00      	cmp	r6, #0
 8000f5c:	d000      	beq.n	8000f60 <__aeabi_fmul+0x110>
 8000f5e:	e092      	b.n	8001086 <__aeabi_fmul+0x236>
 8000f60:	2308      	movs	r3, #8
 8000f62:	4699      	mov	r9, r3
 8000f64:	3b06      	subs	r3, #6
 8000f66:	469a      	mov	sl, r3
 8000f68:	027b      	lsls	r3, r7, #9
 8000f6a:	0a5b      	lsrs	r3, r3, #9
 8000f6c:	4698      	mov	r8, r3
 8000f6e:	007b      	lsls	r3, r7, #1
 8000f70:	24ff      	movs	r4, #255	@ 0xff
 8000f72:	0e1b      	lsrs	r3, r3, #24
 8000f74:	0fff      	lsrs	r7, r7, #31
 8000f76:	2b00      	cmp	r3, #0
 8000f78:	d18a      	bne.n	8000e90 <__aeabi_fmul+0x40>
 8000f7a:	4642      	mov	r2, r8
 8000f7c:	2a00      	cmp	r2, #0
 8000f7e:	d164      	bne.n	800104a <__aeabi_fmul+0x1fa>
 8000f80:	4649      	mov	r1, r9
 8000f82:	3201      	adds	r2, #1
 8000f84:	4311      	orrs	r1, r2
 8000f86:	4689      	mov	r9, r1
 8000f88:	290a      	cmp	r1, #10
 8000f8a:	dc08      	bgt.n	8000f9e <__aeabi_fmul+0x14e>
 8000f8c:	407d      	eors	r5, r7
 8000f8e:	2001      	movs	r0, #1
 8000f90:	b2ea      	uxtb	r2, r5
 8000f92:	2902      	cmp	r1, #2
 8000f94:	dc91      	bgt.n	8000eba <__aeabi_fmul+0x6a>
 8000f96:	0015      	movs	r5, r2
 8000f98:	2200      	movs	r2, #0
 8000f9a:	e027      	b.n	8000fec <__aeabi_fmul+0x19c>
 8000f9c:	0015      	movs	r5, r2
 8000f9e:	4653      	mov	r3, sl
 8000fa0:	2b02      	cmp	r3, #2
 8000fa2:	d100      	bne.n	8000fa6 <__aeabi_fmul+0x156>
 8000fa4:	e093      	b.n	80010ce <__aeabi_fmul+0x27e>
 8000fa6:	2b03      	cmp	r3, #3
 8000fa8:	d01a      	beq.n	8000fe0 <__aeabi_fmul+0x190>
 8000faa:	2b01      	cmp	r3, #1
 8000fac:	d12c      	bne.n	8001008 <__aeabi_fmul+0x1b8>
 8000fae:	2300      	movs	r3, #0
 8000fb0:	2200      	movs	r2, #0
 8000fb2:	e01b      	b.n	8000fec <__aeabi_fmul+0x19c>
 8000fb4:	4643      	mov	r3, r8
 8000fb6:	34ff      	adds	r4, #255	@ 0xff
 8000fb8:	2b00      	cmp	r3, #0
 8000fba:	d055      	beq.n	8001068 <__aeabi_fmul+0x218>
 8000fbc:	2103      	movs	r1, #3
 8000fbe:	464b      	mov	r3, r9
 8000fc0:	430b      	orrs	r3, r1
 8000fc2:	0019      	movs	r1, r3
 8000fc4:	2b0a      	cmp	r3, #10
 8000fc6:	dc00      	bgt.n	8000fca <__aeabi_fmul+0x17a>
 8000fc8:	e092      	b.n	80010f0 <__aeabi_fmul+0x2a0>
 8000fca:	2b0f      	cmp	r3, #15
 8000fcc:	d000      	beq.n	8000fd0 <__aeabi_fmul+0x180>
 8000fce:	e08c      	b.n	80010ea <__aeabi_fmul+0x29a>
 8000fd0:	2280      	movs	r2, #128	@ 0x80
 8000fd2:	03d2      	lsls	r2, r2, #15
 8000fd4:	4216      	tst	r6, r2
 8000fd6:	d003      	beq.n	8000fe0 <__aeabi_fmul+0x190>
 8000fd8:	4643      	mov	r3, r8
 8000fda:	4213      	tst	r3, r2
 8000fdc:	d100      	bne.n	8000fe0 <__aeabi_fmul+0x190>
 8000fde:	e07d      	b.n	80010dc <__aeabi_fmul+0x28c>
 8000fe0:	2280      	movs	r2, #128	@ 0x80
 8000fe2:	03d2      	lsls	r2, r2, #15
 8000fe4:	4332      	orrs	r2, r6
 8000fe6:	0252      	lsls	r2, r2, #9
 8000fe8:	0a52      	lsrs	r2, r2, #9
 8000fea:	23ff      	movs	r3, #255	@ 0xff
 8000fec:	05d8      	lsls	r0, r3, #23
 8000fee:	07ed      	lsls	r5, r5, #31
 8000ff0:	4310      	orrs	r0, r2
 8000ff2:	4328      	orrs	r0, r5
 8000ff4:	bce0      	pop	{r5, r6, r7}
 8000ff6:	46ba      	mov	sl, r7
 8000ff8:	46b1      	mov	r9, r6
 8000ffa:	46a8      	mov	r8, r5
 8000ffc:	bdf0      	pop	{r4, r5, r6, r7, pc}
 8000ffe:	2301      	movs	r3, #1
 8001000:	0015      	movs	r5, r2
 8001002:	0871      	lsrs	r1, r6, #1
 8001004:	401e      	ands	r6, r3
 8001006:	430e      	orrs	r6, r1
 8001008:	0023      	movs	r3, r4
 800100a:	3380      	adds	r3, #128	@ 0x80
 800100c:	1c61      	adds	r1, r4, #1
 800100e:	2b00      	cmp	r3, #0
 8001010:	dd41      	ble.n	8001096 <__aeabi_fmul+0x246>
 8001012:	0772      	lsls	r2, r6, #29
 8001014:	d094      	beq.n	8000f40 <__aeabi_fmul+0xf0>
 8001016:	220f      	movs	r2, #15
 8001018:	4032      	ands	r2, r6
 800101a:	2a04      	cmp	r2, #4
 800101c:	d000      	beq.n	8001020 <__aeabi_fmul+0x1d0>
 800101e:	e78e      	b.n	8000f3e <__aeabi_fmul+0xee>
 8001020:	e78e      	b.n	8000f40 <__aeabi_fmul+0xf0>
 8001022:	2e00      	cmp	r6, #0
 8001024:	d105      	bne.n	8001032 <__aeabi_fmul+0x1e2>
 8001026:	2304      	movs	r3, #4
 8001028:	4699      	mov	r9, r3
 800102a:	3b03      	subs	r3, #3
 800102c:	2400      	movs	r4, #0
 800102e:	469a      	mov	sl, r3
 8001030:	e726      	b.n	8000e80 <__aeabi_fmul+0x30>
 8001032:	0030      	movs	r0, r6
 8001034:	f000 fb30 	bl	8001698 <__clzsi2>
 8001038:	2476      	movs	r4, #118	@ 0x76
 800103a:	1f43      	subs	r3, r0, #5
 800103c:	409e      	lsls	r6, r3
 800103e:	2300      	movs	r3, #0
 8001040:	4264      	negs	r4, r4
 8001042:	4699      	mov	r9, r3
 8001044:	469a      	mov	sl, r3
 8001046:	1a24      	subs	r4, r4, r0
 8001048:	e71a      	b.n	8000e80 <__aeabi_fmul+0x30>
 800104a:	4640      	mov	r0, r8
 800104c:	f000 fb24 	bl	8001698 <__clzsi2>
 8001050:	464b      	mov	r3, r9
 8001052:	1a24      	subs	r4, r4, r0
 8001054:	3c76      	subs	r4, #118	@ 0x76
 8001056:	2b0a      	cmp	r3, #10
 8001058:	dca1      	bgt.n	8000f9e <__aeabi_fmul+0x14e>
 800105a:	4643      	mov	r3, r8
 800105c:	3805      	subs	r0, #5
 800105e:	4083      	lsls	r3, r0
 8001060:	407d      	eors	r5, r7
 8001062:	4698      	mov	r8, r3
 8001064:	b2ea      	uxtb	r2, r5
 8001066:	e724      	b.n	8000eb2 <__aeabi_fmul+0x62>
 8001068:	464a      	mov	r2, r9
 800106a:	3302      	adds	r3, #2
 800106c:	4313      	orrs	r3, r2
 800106e:	002a      	movs	r2, r5
 8001070:	407a      	eors	r2, r7
 8001072:	b2d2      	uxtb	r2, r2
 8001074:	2b0a      	cmp	r3, #10
 8001076:	dc92      	bgt.n	8000f9e <__aeabi_fmul+0x14e>
 8001078:	4649      	mov	r1, r9
 800107a:	0015      	movs	r5, r2
 800107c:	2900      	cmp	r1, #0
 800107e:	d026      	beq.n	80010ce <__aeabi_fmul+0x27e>
 8001080:	4699      	mov	r9, r3
 8001082:	2002      	movs	r0, #2
 8001084:	e719      	b.n	8000eba <__aeabi_fmul+0x6a>
 8001086:	230c      	movs	r3, #12
 8001088:	4699      	mov	r9, r3
 800108a:	3b09      	subs	r3, #9
 800108c:	24ff      	movs	r4, #255	@ 0xff
 800108e:	469a      	mov	sl, r3
 8001090:	e6f6      	b.n	8000e80 <__aeabi_fmul+0x30>
 8001092:	0015      	movs	r5, r2
 8001094:	0021      	movs	r1, r4
 8001096:	2201      	movs	r2, #1
 8001098:	1ad3      	subs	r3, r2, r3
 800109a:	2b1b      	cmp	r3, #27
 800109c:	dd00      	ble.n	80010a0 <__aeabi_fmul+0x250>
 800109e:	e786      	b.n	8000fae <__aeabi_fmul+0x15e>
 80010a0:	319e      	adds	r1, #158	@ 0x9e
 80010a2:	0032      	movs	r2, r6
 80010a4:	408e      	lsls	r6, r1
 80010a6:	40da      	lsrs	r2, r3
 80010a8:	1e73      	subs	r3, r6, #1
 80010aa:	419e      	sbcs	r6, r3
 80010ac:	4332      	orrs	r2, r6
 80010ae:	0753      	lsls	r3, r2, #29
 80010b0:	d004      	beq.n	80010bc <__aeabi_fmul+0x26c>
 80010b2:	230f      	movs	r3, #15
 80010b4:	4013      	ands	r3, r2
 80010b6:	2b04      	cmp	r3, #4
 80010b8:	d000      	beq.n	80010bc <__aeabi_fmul+0x26c>
 80010ba:	3204      	adds	r2, #4
 80010bc:	0153      	lsls	r3, r2, #5
 80010be:	d510      	bpl.n	80010e2 <__aeabi_fmul+0x292>
 80010c0:	2301      	movs	r3, #1
 80010c2:	2200      	movs	r2, #0
 80010c4:	e792      	b.n	8000fec <__aeabi_fmul+0x19c>
 80010c6:	003d      	movs	r5, r7
 80010c8:	4646      	mov	r6, r8
 80010ca:	4682      	mov	sl, r0
 80010cc:	e767      	b.n	8000f9e <__aeabi_fmul+0x14e>
 80010ce:	23ff      	movs	r3, #255	@ 0xff
 80010d0:	2200      	movs	r2, #0
 80010d2:	e78b      	b.n	8000fec <__aeabi_fmul+0x19c>
 80010d4:	2280      	movs	r2, #128	@ 0x80
 80010d6:	2500      	movs	r5, #0
 80010d8:	03d2      	lsls	r2, r2, #15
 80010da:	e786      	b.n	8000fea <__aeabi_fmul+0x19a>
 80010dc:	003d      	movs	r5, r7
 80010de:	431a      	orrs	r2, r3
 80010e0:	e783      	b.n	8000fea <__aeabi_fmul+0x19a>
 80010e2:	0192      	lsls	r2, r2, #6
 80010e4:	2300      	movs	r3, #0
 80010e6:	0a52      	lsrs	r2, r2, #9
 80010e8:	e780      	b.n	8000fec <__aeabi_fmul+0x19c>
 80010ea:	003d      	movs	r5, r7
 80010ec:	4646      	mov	r6, r8
 80010ee:	e777      	b.n	8000fe0 <__aeabi_fmul+0x190>
 80010f0:	002a      	movs	r2, r5
 80010f2:	2301      	movs	r3, #1
 80010f4:	407a      	eors	r2, r7
 80010f6:	408b      	lsls	r3, r1
 80010f8:	2003      	movs	r0, #3
 80010fa:	b2d2      	uxtb	r2, r2
 80010fc:	e6e9      	b.n	8000ed2 <__aeabi_fmul+0x82>
 80010fe:	46c0      	nop			@ (mov r8, r8)
 8001100:	f7ffffff 	.word	0xf7ffffff

08001104 <__aeabi_fsub>:
 8001104:	b5f8      	push	{r3, r4, r5, r6, r7, lr}
 8001106:	4647      	mov	r7, r8
 8001108:	46ce      	mov	lr, r9
 800110a:	0243      	lsls	r3, r0, #9
 800110c:	b580      	push	{r7, lr}
 800110e:	0a5f      	lsrs	r7, r3, #9
 8001110:	099b      	lsrs	r3, r3, #6
 8001112:	0045      	lsls	r5, r0, #1
 8001114:	004a      	lsls	r2, r1, #1
 8001116:	469c      	mov	ip, r3
 8001118:	024b      	lsls	r3, r1, #9
 800111a:	0fc4      	lsrs	r4, r0, #31
 800111c:	0fce      	lsrs	r6, r1, #31
 800111e:	0e2d      	lsrs	r5, r5, #24
 8001120:	0a58      	lsrs	r0, r3, #9
 8001122:	0e12      	lsrs	r2, r2, #24
 8001124:	0999      	lsrs	r1, r3, #6
 8001126:	2aff      	cmp	r2, #255	@ 0xff
 8001128:	d06b      	beq.n	8001202 <__aeabi_fsub+0xfe>
 800112a:	2301      	movs	r3, #1
 800112c:	405e      	eors	r6, r3
 800112e:	1aab      	subs	r3, r5, r2
 8001130:	42b4      	cmp	r4, r6
 8001132:	d04b      	beq.n	80011cc <__aeabi_fsub+0xc8>
 8001134:	2b00      	cmp	r3, #0
 8001136:	dc00      	bgt.n	800113a <__aeabi_fsub+0x36>
 8001138:	e0ff      	b.n	800133a <__aeabi_fsub+0x236>
 800113a:	2a00      	cmp	r2, #0
 800113c:	d100      	bne.n	8001140 <__aeabi_fsub+0x3c>
 800113e:	e088      	b.n	8001252 <__aeabi_fsub+0x14e>
 8001140:	2dff      	cmp	r5, #255	@ 0xff
 8001142:	d100      	bne.n	8001146 <__aeabi_fsub+0x42>
 8001144:	e0ef      	b.n	8001326 <__aeabi_fsub+0x222>
 8001146:	2280      	movs	r2, #128	@ 0x80
 8001148:	04d2      	lsls	r2, r2, #19
 800114a:	4311      	orrs	r1, r2
 800114c:	2001      	movs	r0, #1
 800114e:	2b1b      	cmp	r3, #27
 8001150:	dc08      	bgt.n	8001164 <__aeabi_fsub+0x60>
 8001152:	0008      	movs	r0, r1
 8001154:	2220      	movs	r2, #32
 8001156:	40d8      	lsrs	r0, r3
 8001158:	1ad3      	subs	r3, r2, r3
 800115a:	4099      	lsls	r1, r3
 800115c:	000b      	movs	r3, r1
 800115e:	1e5a      	subs	r2, r3, #1
 8001160:	4193      	sbcs	r3, r2
 8001162:	4318      	orrs	r0, r3
 8001164:	4663      	mov	r3, ip
 8001166:	1a1b      	subs	r3, r3, r0
 8001168:	469c      	mov	ip, r3
 800116a:	4663      	mov	r3, ip
 800116c:	015b      	lsls	r3, r3, #5
 800116e:	d400      	bmi.n	8001172 <__aeabi_fsub+0x6e>
 8001170:	e0cd      	b.n	800130e <__aeabi_fsub+0x20a>
 8001172:	4663      	mov	r3, ip
 8001174:	019f      	lsls	r7, r3, #6
 8001176:	09bf      	lsrs	r7, r7, #6
 8001178:	0038      	movs	r0, r7
 800117a:	f000 fa8d 	bl	8001698 <__clzsi2>
 800117e:	003b      	movs	r3, r7
 8001180:	3805      	subs	r0, #5
 8001182:	4083      	lsls	r3, r0
 8001184:	4285      	cmp	r5, r0
 8001186:	dc00      	bgt.n	800118a <__aeabi_fsub+0x86>
 8001188:	e0a2      	b.n	80012d0 <__aeabi_fsub+0x1cc>
 800118a:	4ab7      	ldr	r2, [pc, #732]	@ (8001468 <__aeabi_fsub+0x364>)
 800118c:	1a2d      	subs	r5, r5, r0
 800118e:	401a      	ands	r2, r3
 8001190:	4694      	mov	ip, r2
 8001192:	075a      	lsls	r2, r3, #29
 8001194:	d100      	bne.n	8001198 <__aeabi_fsub+0x94>
 8001196:	e0c3      	b.n	8001320 <__aeabi_fsub+0x21c>
 8001198:	220f      	movs	r2, #15
 800119a:	4013      	ands	r3, r2
 800119c:	2b04      	cmp	r3, #4
 800119e:	d100      	bne.n	80011a2 <__aeabi_fsub+0x9e>
 80011a0:	e0be      	b.n	8001320 <__aeabi_fsub+0x21c>
 80011a2:	2304      	movs	r3, #4
 80011a4:	4698      	mov	r8, r3
 80011a6:	44c4      	add	ip, r8
 80011a8:	4663      	mov	r3, ip
 80011aa:	015b      	lsls	r3, r3, #5
 80011ac:	d400      	bmi.n	80011b0 <__aeabi_fsub+0xac>
 80011ae:	e0b7      	b.n	8001320 <__aeabi_fsub+0x21c>
 80011b0:	1c68      	adds	r0, r5, #1
 80011b2:	2dfe      	cmp	r5, #254	@ 0xfe
 80011b4:	d000      	beq.n	80011b8 <__aeabi_fsub+0xb4>
 80011b6:	e0a5      	b.n	8001304 <__aeabi_fsub+0x200>
 80011b8:	20ff      	movs	r0, #255	@ 0xff
 80011ba:	2200      	movs	r2, #0
 80011bc:	05c0      	lsls	r0, r0, #23
 80011be:	4310      	orrs	r0, r2
 80011c0:	07e4      	lsls	r4, r4, #31
 80011c2:	4320      	orrs	r0, r4
 80011c4:	bcc0      	pop	{r6, r7}
 80011c6:	46b9      	mov	r9, r7
 80011c8:	46b0      	mov	r8, r6
 80011ca:	bdf8      	pop	{r3, r4, r5, r6, r7, pc}
 80011cc:	2b00      	cmp	r3, #0
 80011ce:	dc00      	bgt.n	80011d2 <__aeabi_fsub+0xce>
 80011d0:	e1eb      	b.n	80015aa <__aeabi_fsub+0x4a6>
 80011d2:	2a00      	cmp	r2, #0
 80011d4:	d046      	beq.n	8001264 <__aeabi_fsub+0x160>
 80011d6:	2dff      	cmp	r5, #255	@ 0xff
 80011d8:	d100      	bne.n	80011dc <__aeabi_fsub+0xd8>
 80011da:	e0a4      	b.n	8001326 <__aeabi_fsub+0x222>
 80011dc:	2280      	movs	r2, #128	@ 0x80
 80011de:	04d2      	lsls	r2, r2, #19
 80011e0:	4311      	orrs	r1, r2
 80011e2:	2b1b      	cmp	r3, #27
 80011e4:	dc00      	bgt.n	80011e8 <__aeabi_fsub+0xe4>
 80011e6:	e0fb      	b.n	80013e0 <__aeabi_fsub+0x2dc>
 80011e8:	2305      	movs	r3, #5
 80011ea:	4698      	mov	r8, r3
 80011ec:	002b      	movs	r3, r5
 80011ee:	44c4      	add	ip, r8
 80011f0:	4662      	mov	r2, ip
 80011f2:	08d7      	lsrs	r7, r2, #3
 80011f4:	2bff      	cmp	r3, #255	@ 0xff
 80011f6:	d100      	bne.n	80011fa <__aeabi_fsub+0xf6>
 80011f8:	e095      	b.n	8001326 <__aeabi_fsub+0x222>
 80011fa:	027a      	lsls	r2, r7, #9
 80011fc:	0a52      	lsrs	r2, r2, #9
 80011fe:	b2d8      	uxtb	r0, r3
 8001200:	e7dc      	b.n	80011bc <__aeabi_fsub+0xb8>
 8001202:	002b      	movs	r3, r5
 8001204:	3bff      	subs	r3, #255	@ 0xff
 8001206:	4699      	mov	r9, r3
 8001208:	2900      	cmp	r1, #0
 800120a:	d118      	bne.n	800123e <__aeabi_fsub+0x13a>
 800120c:	2301      	movs	r3, #1
 800120e:	405e      	eors	r6, r3
 8001210:	42b4      	cmp	r4, r6
 8001212:	d100      	bne.n	8001216 <__aeabi_fsub+0x112>
 8001214:	e0ca      	b.n	80013ac <__aeabi_fsub+0x2a8>
 8001216:	464b      	mov	r3, r9
 8001218:	2b00      	cmp	r3, #0
 800121a:	d02d      	beq.n	8001278 <__aeabi_fsub+0x174>
 800121c:	2d00      	cmp	r5, #0
 800121e:	d000      	beq.n	8001222 <__aeabi_fsub+0x11e>
 8001220:	e13c      	b.n	800149c <__aeabi_fsub+0x398>
 8001222:	23ff      	movs	r3, #255	@ 0xff
 8001224:	4664      	mov	r4, ip
 8001226:	2c00      	cmp	r4, #0
 8001228:	d100      	bne.n	800122c <__aeabi_fsub+0x128>
 800122a:	e15f      	b.n	80014ec <__aeabi_fsub+0x3e8>
 800122c:	1e5d      	subs	r5, r3, #1
 800122e:	2b01      	cmp	r3, #1
 8001230:	d100      	bne.n	8001234 <__aeabi_fsub+0x130>
 8001232:	e174      	b.n	800151e <__aeabi_fsub+0x41a>
 8001234:	0034      	movs	r4, r6
 8001236:	2bff      	cmp	r3, #255	@ 0xff
 8001238:	d074      	beq.n	8001324 <__aeabi_fsub+0x220>
 800123a:	002b      	movs	r3, r5
 800123c:	e103      	b.n	8001446 <__aeabi_fsub+0x342>
 800123e:	42b4      	cmp	r4, r6
 8001240:	d100      	bne.n	8001244 <__aeabi_fsub+0x140>
 8001242:	e09c      	b.n	800137e <__aeabi_fsub+0x27a>
 8001244:	2b00      	cmp	r3, #0
 8001246:	d017      	beq.n	8001278 <__aeabi_fsub+0x174>
 8001248:	2d00      	cmp	r5, #0
 800124a:	d0ea      	beq.n	8001222 <__aeabi_fsub+0x11e>
 800124c:	0007      	movs	r7, r0
 800124e:	0034      	movs	r4, r6
 8001250:	e06c      	b.n	800132c <__aeabi_fsub+0x228>
 8001252:	2900      	cmp	r1, #0
 8001254:	d0cc      	beq.n	80011f0 <__aeabi_fsub+0xec>
 8001256:	1e5a      	subs	r2, r3, #1
 8001258:	2b01      	cmp	r3, #1
 800125a:	d02b      	beq.n	80012b4 <__aeabi_fsub+0x1b0>
 800125c:	2bff      	cmp	r3, #255	@ 0xff
 800125e:	d062      	beq.n	8001326 <__aeabi_fsub+0x222>
 8001260:	0013      	movs	r3, r2
 8001262:	e773      	b.n	800114c <__aeabi_fsub+0x48>
 8001264:	2900      	cmp	r1, #0
 8001266:	d0c3      	beq.n	80011f0 <__aeabi_fsub+0xec>
 8001268:	1e5a      	subs	r2, r3, #1
 800126a:	2b01      	cmp	r3, #1
 800126c:	d100      	bne.n	8001270 <__aeabi_fsub+0x16c>
 800126e:	e11e      	b.n	80014ae <__aeabi_fsub+0x3aa>
 8001270:	2bff      	cmp	r3, #255	@ 0xff
 8001272:	d058      	beq.n	8001326 <__aeabi_fsub+0x222>
 8001274:	0013      	movs	r3, r2
 8001276:	e7b4      	b.n	80011e2 <__aeabi_fsub+0xde>
 8001278:	22fe      	movs	r2, #254	@ 0xfe
 800127a:	1c6b      	adds	r3, r5, #1
 800127c:	421a      	tst	r2, r3
 800127e:	d10d      	bne.n	800129c <__aeabi_fsub+0x198>
 8001280:	2d00      	cmp	r5, #0
 8001282:	d060      	beq.n	8001346 <__aeabi_fsub+0x242>
 8001284:	4663      	mov	r3, ip
 8001286:	2b00      	cmp	r3, #0
 8001288:	d000      	beq.n	800128c <__aeabi_fsub+0x188>
 800128a:	e120      	b.n	80014ce <__aeabi_fsub+0x3ca>
 800128c:	2900      	cmp	r1, #0
 800128e:	d000      	beq.n	8001292 <__aeabi_fsub+0x18e>
 8001290:	e128      	b.n	80014e4 <__aeabi_fsub+0x3e0>
 8001292:	2280      	movs	r2, #128	@ 0x80
 8001294:	2400      	movs	r4, #0
 8001296:	20ff      	movs	r0, #255	@ 0xff
 8001298:	03d2      	lsls	r2, r2, #15
 800129a:	e78f      	b.n	80011bc <__aeabi_fsub+0xb8>
 800129c:	4663      	mov	r3, ip
 800129e:	1a5f      	subs	r7, r3, r1
 80012a0:	017b      	lsls	r3, r7, #5
 80012a2:	d500      	bpl.n	80012a6 <__aeabi_fsub+0x1a2>
 80012a4:	e0fe      	b.n	80014a4 <__aeabi_fsub+0x3a0>
 80012a6:	2f00      	cmp	r7, #0
 80012a8:	d000      	beq.n	80012ac <__aeabi_fsub+0x1a8>
 80012aa:	e765      	b.n	8001178 <__aeabi_fsub+0x74>
 80012ac:	2400      	movs	r4, #0
 80012ae:	2000      	movs	r0, #0
 80012b0:	2200      	movs	r2, #0
 80012b2:	e783      	b.n	80011bc <__aeabi_fsub+0xb8>
 80012b4:	4663      	mov	r3, ip
 80012b6:	1a59      	subs	r1, r3, r1
 80012b8:	014b      	lsls	r3, r1, #5
 80012ba:	d400      	bmi.n	80012be <__aeabi_fsub+0x1ba>
 80012bc:	e119      	b.n	80014f2 <__aeabi_fsub+0x3ee>
 80012be:	018f      	lsls	r7, r1, #6
 80012c0:	09bf      	lsrs	r7, r7, #6
 80012c2:	0038      	movs	r0, r7
 80012c4:	f000 f9e8 	bl	8001698 <__clzsi2>
 80012c8:	003b      	movs	r3, r7
 80012ca:	3805      	subs	r0, #5
 80012cc:	4083      	lsls	r3, r0
 80012ce:	2501      	movs	r5, #1
 80012d0:	2220      	movs	r2, #32
 80012d2:	1b40      	subs	r0, r0, r5
 80012d4:	3001      	adds	r0, #1
 80012d6:	1a12      	subs	r2, r2, r0
 80012d8:	0019      	movs	r1, r3
 80012da:	4093      	lsls	r3, r2
 80012dc:	40c1      	lsrs	r1, r0
 80012de:	1e5a      	subs	r2, r3, #1
 80012e0:	4193      	sbcs	r3, r2
 80012e2:	4319      	orrs	r1, r3
 80012e4:	468c      	mov	ip, r1
 80012e6:	1e0b      	subs	r3, r1, #0
 80012e8:	d0e1      	beq.n	80012ae <__aeabi_fsub+0x1aa>
 80012ea:	075b      	lsls	r3, r3, #29
 80012ec:	d100      	bne.n	80012f0 <__aeabi_fsub+0x1ec>
 80012ee:	e152      	b.n	8001596 <__aeabi_fsub+0x492>
 80012f0:	230f      	movs	r3, #15
 80012f2:	2500      	movs	r5, #0
 80012f4:	400b      	ands	r3, r1
 80012f6:	2b04      	cmp	r3, #4
 80012f8:	d000      	beq.n	80012fc <__aeabi_fsub+0x1f8>
 80012fa:	e752      	b.n	80011a2 <__aeabi_fsub+0x9e>
 80012fc:	2001      	movs	r0, #1
 80012fe:	014a      	lsls	r2, r1, #5
 8001300:	d400      	bmi.n	8001304 <__aeabi_fsub+0x200>
 8001302:	e092      	b.n	800142a <__aeabi_fsub+0x326>
 8001304:	b2c0      	uxtb	r0, r0
 8001306:	4663      	mov	r3, ip
 8001308:	019a      	lsls	r2, r3, #6
 800130a:	0a52      	lsrs	r2, r2, #9
 800130c:	e756      	b.n	80011bc <__aeabi_fsub+0xb8>
 800130e:	4663      	mov	r3, ip
 8001310:	075b      	lsls	r3, r3, #29
 8001312:	d005      	beq.n	8001320 <__aeabi_fsub+0x21c>
 8001314:	230f      	movs	r3, #15
 8001316:	4662      	mov	r2, ip
 8001318:	4013      	ands	r3, r2
 800131a:	2b04      	cmp	r3, #4
 800131c:	d000      	beq.n	8001320 <__aeabi_fsub+0x21c>
 800131e:	e740      	b.n	80011a2 <__aeabi_fsub+0x9e>
 8001320:	002b      	movs	r3, r5
 8001322:	e765      	b.n	80011f0 <__aeabi_fsub+0xec>
 8001324:	0007      	movs	r7, r0
 8001326:	2f00      	cmp	r7, #0
 8001328:	d100      	bne.n	800132c <__aeabi_fsub+0x228>
 800132a:	e745      	b.n	80011b8 <__aeabi_fsub+0xb4>
 800132c:	2280      	movs	r2, #128	@ 0x80
 800132e:	03d2      	lsls	r2, r2, #15
 8001330:	433a      	orrs	r2, r7
 8001332:	0252      	lsls	r2, r2, #9
 8001334:	20ff      	movs	r0, #255	@ 0xff
 8001336:	0a52      	lsrs	r2, r2, #9
 8001338:	e740      	b.n	80011bc <__aeabi_fsub+0xb8>
 800133a:	2b00      	cmp	r3, #0
 800133c:	d179      	bne.n	8001432 <__aeabi_fsub+0x32e>
 800133e:	22fe      	movs	r2, #254	@ 0xfe
 8001340:	1c6b      	adds	r3, r5, #1
 8001342:	421a      	tst	r2, r3
 8001344:	d1aa      	bne.n	800129c <__aeabi_fsub+0x198>
 8001346:	4663      	mov	r3, ip
 8001348:	2b00      	cmp	r3, #0
 800134a:	d100      	bne.n	800134e <__aeabi_fsub+0x24a>
 800134c:	e0f5      	b.n	800153a <__aeabi_fsub+0x436>
 800134e:	2900      	cmp	r1, #0
 8001350:	d100      	bne.n	8001354 <__aeabi_fsub+0x250>
 8001352:	e0d1      	b.n	80014f8 <__aeabi_fsub+0x3f4>
 8001354:	1a5f      	subs	r7, r3, r1
 8001356:	2380      	movs	r3, #128	@ 0x80
 8001358:	04db      	lsls	r3, r3, #19
 800135a:	421f      	tst	r7, r3
 800135c:	d100      	bne.n	8001360 <__aeabi_fsub+0x25c>
 800135e:	e10e      	b.n	800157e <__aeabi_fsub+0x47a>
 8001360:	4662      	mov	r2, ip
 8001362:	2401      	movs	r4, #1
 8001364:	1a8a      	subs	r2, r1, r2
 8001366:	4694      	mov	ip, r2
 8001368:	2000      	movs	r0, #0
 800136a:	4034      	ands	r4, r6
 800136c:	2a00      	cmp	r2, #0
 800136e:	d100      	bne.n	8001372 <__aeabi_fsub+0x26e>
 8001370:	e724      	b.n	80011bc <__aeabi_fsub+0xb8>
 8001372:	2001      	movs	r0, #1
 8001374:	421a      	tst	r2, r3
 8001376:	d1c6      	bne.n	8001306 <__aeabi_fsub+0x202>
 8001378:	2300      	movs	r3, #0
 800137a:	08d7      	lsrs	r7, r2, #3
 800137c:	e73d      	b.n	80011fa <__aeabi_fsub+0xf6>
 800137e:	2b00      	cmp	r3, #0
 8001380:	d017      	beq.n	80013b2 <__aeabi_fsub+0x2ae>
 8001382:	2d00      	cmp	r5, #0
 8001384:	d000      	beq.n	8001388 <__aeabi_fsub+0x284>
 8001386:	e0af      	b.n	80014e8 <__aeabi_fsub+0x3e4>
 8001388:	23ff      	movs	r3, #255	@ 0xff
 800138a:	4665      	mov	r5, ip
 800138c:	2d00      	cmp	r5, #0
 800138e:	d100      	bne.n	8001392 <__aeabi_fsub+0x28e>
 8001390:	e0ad      	b.n	80014ee <__aeabi_fsub+0x3ea>
 8001392:	1e5e      	subs	r6, r3, #1
 8001394:	2b01      	cmp	r3, #1
 8001396:	d100      	bne.n	800139a <__aeabi_fsub+0x296>
 8001398:	e089      	b.n	80014ae <__aeabi_fsub+0x3aa>
 800139a:	2bff      	cmp	r3, #255	@ 0xff
 800139c:	d0c2      	beq.n	8001324 <__aeabi_fsub+0x220>
 800139e:	2e1b      	cmp	r6, #27
 80013a0:	dc00      	bgt.n	80013a4 <__aeabi_fsub+0x2a0>
 80013a2:	e0ab      	b.n	80014fc <__aeabi_fsub+0x3f8>
 80013a4:	1d4b      	adds	r3, r1, #5
 80013a6:	469c      	mov	ip, r3
 80013a8:	0013      	movs	r3, r2
 80013aa:	e721      	b.n	80011f0 <__aeabi_fsub+0xec>
 80013ac:	464b      	mov	r3, r9
 80013ae:	2b00      	cmp	r3, #0
 80013b0:	d170      	bne.n	8001494 <__aeabi_fsub+0x390>
 80013b2:	22fe      	movs	r2, #254	@ 0xfe
 80013b4:	1c6b      	adds	r3, r5, #1
 80013b6:	421a      	tst	r2, r3
 80013b8:	d15e      	bne.n	8001478 <__aeabi_fsub+0x374>
 80013ba:	2d00      	cmp	r5, #0
 80013bc:	d000      	beq.n	80013c0 <__aeabi_fsub+0x2bc>
 80013be:	e0c3      	b.n	8001548 <__aeabi_fsub+0x444>
 80013c0:	4663      	mov	r3, ip
 80013c2:	2b00      	cmp	r3, #0
 80013c4:	d100      	bne.n	80013c8 <__aeabi_fsub+0x2c4>
 80013c6:	e0d0      	b.n	800156a <__aeabi_fsub+0x466>
 80013c8:	2900      	cmp	r1, #0
 80013ca:	d100      	bne.n	80013ce <__aeabi_fsub+0x2ca>
 80013cc:	e094      	b.n	80014f8 <__aeabi_fsub+0x3f4>
 80013ce:	000a      	movs	r2, r1
 80013d0:	4462      	add	r2, ip
 80013d2:	0153      	lsls	r3, r2, #5
 80013d4:	d400      	bmi.n	80013d8 <__aeabi_fsub+0x2d4>
 80013d6:	e0d8      	b.n	800158a <__aeabi_fsub+0x486>
 80013d8:	0192      	lsls	r2, r2, #6
 80013da:	2001      	movs	r0, #1
 80013dc:	0a52      	lsrs	r2, r2, #9
 80013de:	e6ed      	b.n	80011bc <__aeabi_fsub+0xb8>
 80013e0:	0008      	movs	r0, r1
 80013e2:	2220      	movs	r2, #32
 80013e4:	40d8      	lsrs	r0, r3
 80013e6:	1ad3      	subs	r3, r2, r3
 80013e8:	4099      	lsls	r1, r3
 80013ea:	000b      	movs	r3, r1
 80013ec:	1e5a      	subs	r2, r3, #1
 80013ee:	4193      	sbcs	r3, r2
 80013f0:	4303      	orrs	r3, r0
 80013f2:	449c      	add	ip, r3
 80013f4:	4663      	mov	r3, ip
 80013f6:	015b      	lsls	r3, r3, #5
 80013f8:	d589      	bpl.n	800130e <__aeabi_fsub+0x20a>
 80013fa:	3501      	adds	r5, #1
 80013fc:	2dff      	cmp	r5, #255	@ 0xff
 80013fe:	d100      	bne.n	8001402 <__aeabi_fsub+0x2fe>
 8001400:	e6da      	b.n	80011b8 <__aeabi_fsub+0xb4>
 8001402:	4662      	mov	r2, ip
 8001404:	2301      	movs	r3, #1
 8001406:	4919      	ldr	r1, [pc, #100]	@ (800146c <__aeabi_fsub+0x368>)
 8001408:	4013      	ands	r3, r2
 800140a:	0852      	lsrs	r2, r2, #1
 800140c:	400a      	ands	r2, r1
 800140e:	431a      	orrs	r2, r3
 8001410:	0013      	movs	r3, r2
 8001412:	4694      	mov	ip, r2
 8001414:	075b      	lsls	r3, r3, #29
 8001416:	d004      	beq.n	8001422 <__aeabi_fsub+0x31e>
 8001418:	230f      	movs	r3, #15
 800141a:	4013      	ands	r3, r2
 800141c:	2b04      	cmp	r3, #4
 800141e:	d000      	beq.n	8001422 <__aeabi_fsub+0x31e>
 8001420:	e6bf      	b.n	80011a2 <__aeabi_fsub+0x9e>
 8001422:	4663      	mov	r3, ip
 8001424:	015b      	lsls	r3, r3, #5
 8001426:	d500      	bpl.n	800142a <__aeabi_fsub+0x326>
 8001428:	e6c2      	b.n	80011b0 <__aeabi_fsub+0xac>
 800142a:	4663      	mov	r3, ip
 800142c:	08df      	lsrs	r7, r3, #3
 800142e:	002b      	movs	r3, r5
 8001430:	e6e3      	b.n	80011fa <__aeabi_fsub+0xf6>
 8001432:	1b53      	subs	r3, r2, r5
 8001434:	2d00      	cmp	r5, #0
 8001436:	d100      	bne.n	800143a <__aeabi_fsub+0x336>
 8001438:	e6f4      	b.n	8001224 <__aeabi_fsub+0x120>
 800143a:	2080      	movs	r0, #128	@ 0x80
 800143c:	4664      	mov	r4, ip
 800143e:	04c0      	lsls	r0, r0, #19
 8001440:	4304      	orrs	r4, r0
 8001442:	46a4      	mov	ip, r4
 8001444:	0034      	movs	r4, r6
 8001446:	2001      	movs	r0, #1
 8001448:	2b1b      	cmp	r3, #27
 800144a:	dc09      	bgt.n	8001460 <__aeabi_fsub+0x35c>
 800144c:	2520      	movs	r5, #32
 800144e:	4660      	mov	r0, ip
 8001450:	40d8      	lsrs	r0, r3
 8001452:	1aeb      	subs	r3, r5, r3
 8001454:	4665      	mov	r5, ip
 8001456:	409d      	lsls	r5, r3
 8001458:	002b      	movs	r3, r5
 800145a:	1e5d      	subs	r5, r3, #1
 800145c:	41ab      	sbcs	r3, r5
 800145e:	4318      	orrs	r0, r3
 8001460:	1a0b      	subs	r3, r1, r0
 8001462:	469c      	mov	ip, r3
 8001464:	0015      	movs	r5, r2
 8001466:	e680      	b.n	800116a <__aeabi_fsub+0x66>
 8001468:	fbffffff 	.word	0xfbffffff
 800146c:	7dffffff 	.word	0x7dffffff
 8001470:	22fe      	movs	r2, #254	@ 0xfe
 8001472:	1c6b      	adds	r3, r5, #1
 8001474:	4213      	tst	r3, r2
 8001476:	d0a3      	beq.n	80013c0 <__aeabi_fsub+0x2bc>
 8001478:	2bff      	cmp	r3, #255	@ 0xff
 800147a:	d100      	bne.n	800147e <__aeabi_fsub+0x37a>
 800147c:	e69c      	b.n	80011b8 <__aeabi_fsub+0xb4>
 800147e:	4461      	add	r1, ip
 8001480:	0849      	lsrs	r1, r1, #1
 8001482:	074a      	lsls	r2, r1, #29
 8001484:	d049      	beq.n	800151a <__aeabi_fsub+0x416>
 8001486:	220f      	movs	r2, #15
 8001488:	400a      	ands	r2, r1
 800148a:	2a04      	cmp	r2, #4
 800148c:	d045      	beq.n	800151a <__aeabi_fsub+0x416>
 800148e:	1d0a      	adds	r2, r1, #4
 8001490:	4694      	mov	ip, r2
 8001492:	e6ad      	b.n	80011f0 <__aeabi_fsub+0xec>
 8001494:	2d00      	cmp	r5, #0
 8001496:	d100      	bne.n	800149a <__aeabi_fsub+0x396>
 8001498:	e776      	b.n	8001388 <__aeabi_fsub+0x284>
 800149a:	e68d      	b.n	80011b8 <__aeabi_fsub+0xb4>
 800149c:	0034      	movs	r4, r6
 800149e:	20ff      	movs	r0, #255	@ 0xff
 80014a0:	2200      	movs	r2, #0
 80014a2:	e68b      	b.n	80011bc <__aeabi_fsub+0xb8>
 80014a4:	4663      	mov	r3, ip
 80014a6:	2401      	movs	r4, #1
 80014a8:	1acf      	subs	r7, r1, r3
 80014aa:	4034      	ands	r4, r6
 80014ac:	e664      	b.n	8001178 <__aeabi_fsub+0x74>
 80014ae:	4461      	add	r1, ip
 80014b0:	014b      	lsls	r3, r1, #5
 80014b2:	d56d      	bpl.n	8001590 <__aeabi_fsub+0x48c>
 80014b4:	0848      	lsrs	r0, r1, #1
 80014b6:	4944      	ldr	r1, [pc, #272]	@ (80015c8 <__aeabi_fsub+0x4c4>)
 80014b8:	4001      	ands	r1, r0
 80014ba:	0743      	lsls	r3, r0, #29
 80014bc:	d02c      	beq.n	8001518 <__aeabi_fsub+0x414>
 80014be:	230f      	movs	r3, #15
 80014c0:	4003      	ands	r3, r0
 80014c2:	2b04      	cmp	r3, #4
 80014c4:	d028      	beq.n	8001518 <__aeabi_fsub+0x414>
 80014c6:	1d0b      	adds	r3, r1, #4
 80014c8:	469c      	mov	ip, r3
 80014ca:	2302      	movs	r3, #2
 80014cc:	e690      	b.n	80011f0 <__aeabi_fsub+0xec>
 80014ce:	2900      	cmp	r1, #0
 80014d0:	d100      	bne.n	80014d4 <__aeabi_fsub+0x3d0>
 80014d2:	e72b      	b.n	800132c <__aeabi_fsub+0x228>
 80014d4:	2380      	movs	r3, #128	@ 0x80
 80014d6:	03db      	lsls	r3, r3, #15
 80014d8:	429f      	cmp	r7, r3
 80014da:	d200      	bcs.n	80014de <__aeabi_fsub+0x3da>
 80014dc:	e726      	b.n	800132c <__aeabi_fsub+0x228>
 80014de:	4298      	cmp	r0, r3
 80014e0:	d300      	bcc.n	80014e4 <__aeabi_fsub+0x3e0>
 80014e2:	e723      	b.n	800132c <__aeabi_fsub+0x228>
 80014e4:	2401      	movs	r4, #1
 80014e6:	4034      	ands	r4, r6
 80014e8:	0007      	movs	r7, r0
 80014ea:	e71f      	b.n	800132c <__aeabi_fsub+0x228>
 80014ec:	0034      	movs	r4, r6
 80014ee:	468c      	mov	ip, r1
 80014f0:	e67e      	b.n	80011f0 <__aeabi_fsub+0xec>
 80014f2:	2301      	movs	r3, #1
 80014f4:	08cf      	lsrs	r7, r1, #3
 80014f6:	e680      	b.n	80011fa <__aeabi_fsub+0xf6>
 80014f8:	2300      	movs	r3, #0
 80014fa:	e67e      	b.n	80011fa <__aeabi_fsub+0xf6>
 80014fc:	2020      	movs	r0, #32
 80014fe:	4665      	mov	r5, ip
 8001500:	1b80      	subs	r0, r0, r6
 8001502:	4085      	lsls	r5, r0
 8001504:	4663      	mov	r3, ip
 8001506:	0028      	movs	r0, r5
 8001508:	40f3      	lsrs	r3, r6
 800150a:	1e45      	subs	r5, r0, #1
 800150c:	41a8      	sbcs	r0, r5
 800150e:	4303      	orrs	r3, r0
 8001510:	469c      	mov	ip, r3
 8001512:	0015      	movs	r5, r2
 8001514:	448c      	add	ip, r1
 8001516:	e76d      	b.n	80013f4 <__aeabi_fsub+0x2f0>
 8001518:	2302      	movs	r3, #2
 800151a:	08cf      	lsrs	r7, r1, #3
 800151c:	e66d      	b.n	80011fa <__aeabi_fsub+0xf6>
 800151e:	1b0f      	subs	r7, r1, r4
 8001520:	017b      	lsls	r3, r7, #5
 8001522:	d528      	bpl.n	8001576 <__aeabi_fsub+0x472>
 8001524:	01bf      	lsls	r7, r7, #6
 8001526:	09bf      	lsrs	r7, r7, #6
 8001528:	0038      	movs	r0, r7
 800152a:	f000 f8b5 	bl	8001698 <__clzsi2>
 800152e:	003b      	movs	r3, r7
 8001530:	3805      	subs	r0, #5
 8001532:	4083      	lsls	r3, r0
 8001534:	0034      	movs	r4, r6
 8001536:	2501      	movs	r5, #1
 8001538:	e6ca      	b.n	80012d0 <__aeabi_fsub+0x1cc>
 800153a:	2900      	cmp	r1, #0
 800153c:	d100      	bne.n	8001540 <__aeabi_fsub+0x43c>
 800153e:	e6b5      	b.n	80012ac <__aeabi_fsub+0x1a8>
 8001540:	2401      	movs	r4, #1
 8001542:	0007      	movs	r7, r0
 8001544:	4034      	ands	r4, r6
 8001546:	e658      	b.n	80011fa <__aeabi_fsub+0xf6>
 8001548:	4663      	mov	r3, ip
 800154a:	2b00      	cmp	r3, #0
 800154c:	d100      	bne.n	8001550 <__aeabi_fsub+0x44c>
 800154e:	e6e9      	b.n	8001324 <__aeabi_fsub+0x220>
 8001550:	2900      	cmp	r1, #0
 8001552:	d100      	bne.n	8001556 <__aeabi_fsub+0x452>
 8001554:	e6ea      	b.n	800132c <__aeabi_fsub+0x228>
 8001556:	2380      	movs	r3, #128	@ 0x80
 8001558:	03db      	lsls	r3, r3, #15
 800155a:	429f      	cmp	r7, r3
 800155c:	d200      	bcs.n	8001560 <__aeabi_fsub+0x45c>
 800155e:	e6e5      	b.n	800132c <__aeabi_fsub+0x228>
 8001560:	4298      	cmp	r0, r3
 8001562:	d300      	bcc.n	8001566 <__aeabi_fsub+0x462>
 8001564:	e6e2      	b.n	800132c <__aeabi_fsub+0x228>
 8001566:	0007      	movs	r7, r0
 8001568:	e6e0      	b.n	800132c <__aeabi_fsub+0x228>
 800156a:	2900      	cmp	r1, #0
 800156c:	d100      	bne.n	8001570 <__aeabi_fsub+0x46c>
 800156e:	e69e      	b.n	80012ae <__aeabi_fsub+0x1aa>
 8001570:	2300      	movs	r3, #0
 8001572:	08cf      	lsrs	r7, r1, #3
 8001574:	e641      	b.n	80011fa <__aeabi_fsub+0xf6>
 8001576:	0034      	movs	r4, r6
 8001578:	2301      	movs	r3, #1
 800157a:	08ff      	lsrs	r7, r7, #3
 800157c:	e63d      	b.n	80011fa <__aeabi_fsub+0xf6>
 800157e:	2f00      	cmp	r7, #0
 8001580:	d100      	bne.n	8001584 <__aeabi_fsub+0x480>
 8001582:	e693      	b.n	80012ac <__aeabi_fsub+0x1a8>
 8001584:	2300      	movs	r3, #0
 8001586:	08ff      	lsrs	r7, r7, #3
 8001588:	e637      	b.n	80011fa <__aeabi_fsub+0xf6>
 800158a:	2300      	movs	r3, #0
 800158c:	08d7      	lsrs	r7, r2, #3
 800158e:	e634      	b.n	80011fa <__aeabi_fsub+0xf6>
 8001590:	2301      	movs	r3, #1
 8001592:	08cf      	lsrs	r7, r1, #3
 8001594:	e631      	b.n	80011fa <__aeabi_fsub+0xf6>
 8001596:	2280      	movs	r2, #128	@ 0x80
 8001598:	000b      	movs	r3, r1
 800159a:	04d2      	lsls	r2, r2, #19
 800159c:	2001      	movs	r0, #1
 800159e:	4013      	ands	r3, r2
 80015a0:	4211      	tst	r1, r2
 80015a2:	d000      	beq.n	80015a6 <__aeabi_fsub+0x4a2>
 80015a4:	e6ae      	b.n	8001304 <__aeabi_fsub+0x200>
 80015a6:	08cf      	lsrs	r7, r1, #3
 80015a8:	e627      	b.n	80011fa <__aeabi_fsub+0xf6>
 80015aa:	2b00      	cmp	r3, #0
 80015ac:	d100      	bne.n	80015b0 <__aeabi_fsub+0x4ac>
 80015ae:	e75f      	b.n	8001470 <__aeabi_fsub+0x36c>
 80015b0:	1b56      	subs	r6, r2, r5
 80015b2:	2d00      	cmp	r5, #0
 80015b4:	d101      	bne.n	80015ba <__aeabi_fsub+0x4b6>
 80015b6:	0033      	movs	r3, r6
 80015b8:	e6e7      	b.n	800138a <__aeabi_fsub+0x286>
 80015ba:	2380      	movs	r3, #128	@ 0x80
 80015bc:	4660      	mov	r0, ip
 80015be:	04db      	lsls	r3, r3, #19
 80015c0:	4318      	orrs	r0, r3
 80015c2:	4684      	mov	ip, r0
 80015c4:	e6eb      	b.n	800139e <__aeabi_fsub+0x29a>
 80015c6:	46c0      	nop			@ (mov r8, r8)
 80015c8:	7dffffff 	.word	0x7dffffff

080015cc <__aeabi_f2iz>:
 80015cc:	0241      	lsls	r1, r0, #9
 80015ce:	0042      	lsls	r2, r0, #1
 80015d0:	0fc3      	lsrs	r3, r0, #31
 80015d2:	0a49      	lsrs	r1, r1, #9
 80015d4:	2000      	movs	r0, #0
 80015d6:	0e12      	lsrs	r2, r2, #24
 80015d8:	2a7e      	cmp	r2, #126	@ 0x7e
 80015da:	dd03      	ble.n	80015e4 <__aeabi_f2iz+0x18>
 80015dc:	2a9d      	cmp	r2, #157	@ 0x9d
 80015de:	dd02      	ble.n	80015e6 <__aeabi_f2iz+0x1a>
 80015e0:	4a09      	ldr	r2, [pc, #36]	@ (8001608 <__aeabi_f2iz+0x3c>)
 80015e2:	1898      	adds	r0, r3, r2
 80015e4:	4770      	bx	lr
 80015e6:	2080      	movs	r0, #128	@ 0x80
 80015e8:	0400      	lsls	r0, r0, #16
 80015ea:	4301      	orrs	r1, r0
 80015ec:	2a95      	cmp	r2, #149	@ 0x95
 80015ee:	dc07      	bgt.n	8001600 <__aeabi_f2iz+0x34>
 80015f0:	2096      	movs	r0, #150	@ 0x96
 80015f2:	1a82      	subs	r2, r0, r2
 80015f4:	40d1      	lsrs	r1, r2
 80015f6:	4248      	negs	r0, r1
 80015f8:	2b00      	cmp	r3, #0
 80015fa:	d1f3      	bne.n	80015e4 <__aeabi_f2iz+0x18>
 80015fc:	0008      	movs	r0, r1
 80015fe:	e7f1      	b.n	80015e4 <__aeabi_f2iz+0x18>
 8001600:	3a96      	subs	r2, #150	@ 0x96
 8001602:	4091      	lsls	r1, r2
 8001604:	e7f7      	b.n	80015f6 <__aeabi_f2iz+0x2a>
 8001606:	46c0      	nop			@ (mov r8, r8)
 8001608:	7fffffff 	.word	0x7fffffff

0800160c <__aeabi_ui2f>:
 800160c:	b510      	push	{r4, lr}
 800160e:	1e04      	subs	r4, r0, #0
 8001610:	d00d      	beq.n	800162e <__aeabi_ui2f+0x22>
 8001612:	f000 f841 	bl	8001698 <__clzsi2>
 8001616:	239e      	movs	r3, #158	@ 0x9e
 8001618:	1a1b      	subs	r3, r3, r0
 800161a:	2b96      	cmp	r3, #150	@ 0x96
 800161c:	dc0c      	bgt.n	8001638 <__aeabi_ui2f+0x2c>
 800161e:	2808      	cmp	r0, #8
 8001620:	d034      	beq.n	800168c <__aeabi_ui2f+0x80>
 8001622:	3808      	subs	r0, #8
 8001624:	4084      	lsls	r4, r0
 8001626:	0264      	lsls	r4, r4, #9
 8001628:	0a64      	lsrs	r4, r4, #9
 800162a:	b2d8      	uxtb	r0, r3
 800162c:	e001      	b.n	8001632 <__aeabi_ui2f+0x26>
 800162e:	2000      	movs	r0, #0
 8001630:	2400      	movs	r4, #0
 8001632:	05c0      	lsls	r0, r0, #23
 8001634:	4320      	orrs	r0, r4
 8001636:	bd10      	pop	{r4, pc}
 8001638:	2b99      	cmp	r3, #153	@ 0x99
 800163a:	dc13      	bgt.n	8001664 <__aeabi_ui2f+0x58>
 800163c:	1f42      	subs	r2, r0, #5
 800163e:	4094      	lsls	r4, r2
 8001640:	4a14      	ldr	r2, [pc, #80]	@ (8001694 <__aeabi_ui2f+0x88>)
 8001642:	4022      	ands	r2, r4
 8001644:	0761      	lsls	r1, r4, #29
 8001646:	d01c      	beq.n	8001682 <__aeabi_ui2f+0x76>
 8001648:	210f      	movs	r1, #15
 800164a:	4021      	ands	r1, r4
 800164c:	2904      	cmp	r1, #4
 800164e:	d018      	beq.n	8001682 <__aeabi_ui2f+0x76>
 8001650:	3204      	adds	r2, #4
 8001652:	08d4      	lsrs	r4, r2, #3
 8001654:	0152      	lsls	r2, r2, #5
 8001656:	d515      	bpl.n	8001684 <__aeabi_ui2f+0x78>
 8001658:	239f      	movs	r3, #159	@ 0x9f
 800165a:	0264      	lsls	r4, r4, #9
 800165c:	1a18      	subs	r0, r3, r0
 800165e:	0a64      	lsrs	r4, r4, #9
 8001660:	b2c0      	uxtb	r0, r0
 8001662:	e7e6      	b.n	8001632 <__aeabi_ui2f+0x26>
 8001664:	0002      	movs	r2, r0
 8001666:	0021      	movs	r1, r4
 8001668:	321b      	adds	r2, #27
 800166a:	4091      	lsls	r1, r2
 800166c:	000a      	movs	r2, r1
 800166e:	1e51      	subs	r1, r2, #1
 8001670:	418a      	sbcs	r2, r1
 8001672:	2105      	movs	r1, #5
 8001674:	1a09      	subs	r1, r1, r0
 8001676:	40cc      	lsrs	r4, r1
 8001678:	4314      	orrs	r4, r2
 800167a:	4a06      	ldr	r2, [pc, #24]	@ (8001694 <__aeabi_ui2f+0x88>)
 800167c:	4022      	ands	r2, r4
 800167e:	0761      	lsls	r1, r4, #29
 8001680:	d1e2      	bne.n	8001648 <__aeabi_ui2f+0x3c>
 8001682:	08d4      	lsrs	r4, r2, #3
 8001684:	0264      	lsls	r4, r4, #9
 8001686:	0a64      	lsrs	r4, r4, #9
 8001688:	b2d8      	uxtb	r0, r3
 800168a:	e7d2      	b.n	8001632 <__aeabi_ui2f+0x26>
 800168c:	0264      	lsls	r4, r4, #9
 800168e:	0a64      	lsrs	r4, r4, #9
 8001690:	308e      	adds	r0, #142	@ 0x8e
 8001692:	e7ce      	b.n	8001632 <__aeabi_ui2f+0x26>
 8001694:	fbffffff 	.word	0xfbffffff

08001698 <__clzsi2>:
 8001698:	211c      	movs	r1, #28
 800169a:	2301      	movs	r3, #1
 800169c:	041b      	lsls	r3, r3, #16
 800169e:	4298      	cmp	r0, r3
 80016a0:	d301      	bcc.n	80016a6 <__clzsi2+0xe>
 80016a2:	0c00      	lsrs	r0, r0, #16
 80016a4:	3910      	subs	r1, #16
 80016a6:	0a1b      	lsrs	r3, r3, #8
 80016a8:	4298      	cmp	r0, r3
 80016aa:	d301      	bcc.n	80016b0 <__clzsi2+0x18>
 80016ac:	0a00      	lsrs	r0, r0, #8
 80016ae:	3908      	subs	r1, #8
 80016b0:	091b      	lsrs	r3, r3, #4
 80016b2:	4298      	cmp	r0, r3
 80016b4:	d301      	bcc.n	80016ba <__clzsi2+0x22>
 80016b6:	0900      	lsrs	r0, r0, #4
 80016b8:	3904      	subs	r1, #4
 80016ba:	a202      	add	r2, pc, #8	@ (adr r2, 80016c4 <__clzsi2+0x2c>)
 80016bc:	5c10      	ldrb	r0, [r2, r0]
 80016be:	1840      	adds	r0, r0, r1
 80016c0:	4770      	bx	lr
 80016c2:	46c0      	nop			@ (mov r8, r8)
 80016c4:	02020304 	.word	0x02020304
 80016c8:	01010101 	.word	0x01010101
	...

080016d4 <__clzdi2>:
 80016d4:	b510      	push	{r4, lr}
 80016d6:	2900      	cmp	r1, #0
 80016d8:	d103      	bne.n	80016e2 <__clzdi2+0xe>
 80016da:	f7ff ffdd 	bl	8001698 <__clzsi2>
 80016de:	3020      	adds	r0, #32
 80016e0:	e002      	b.n	80016e8 <__clzdi2+0x14>
 80016e2:	0008      	movs	r0, r1
 80016e4:	f7ff ffd8 	bl	8001698 <__clzsi2>
 80016e8:	bd10      	pop	{r4, pc}
 80016ea:	46c0      	nop			@ (mov r8, r8)

080016ec <Get_Battery_Percentage>:
 * 			  then this value gets multiplied by 2 (VDR) to get battery value.
 *
 * @return Battery level in percentage (0–100).
 */
uint8_t Get_Battery_Percentage(void)
{
 80016ec:	b530      	push	{r4, r5, lr}
	 uint16_t raw;			// Variable to store raw ADC conversion result (0–4095 for 12-bit ADC)

	 // Perform ADC Conversion
	     HAL_ADC_Start(&hadc1);                              // Start ADC conversion
 80016ee:	4d2a      	ldr	r5, [pc, #168]	@ (8001798 <Get_Battery_Percentage+0xac>)
{
 80016f0:	b089      	sub	sp, #36	@ 0x24
	     HAL_ADC_Start(&hadc1);                              // Start ADC conversion
 80016f2:	0028      	movs	r0, r5
 80016f4:	f001 fdee 	bl	80032d4 <HAL_ADC_Start>
	     HAL_ADC_PollForConversion(&hadc1, HAL_MAX_DELAY);   // Wait until conversion completes
 80016f8:	2101      	movs	r1, #1
 80016fa:	0028      	movs	r0, r5
 80016fc:	4249      	negs	r1, r1
 80016fe:	f001 fbd1 	bl	8002ea4 <HAL_ADC_PollForConversion>
	     raw = HAL_ADC_GetValue(&hadc1);                     // Read converted ADC value
 8001702:	0028      	movs	r0, r5
 8001704:	f001 fc32 	bl	8002f6c <HAL_ADC_GetValue>
 8001708:	0004      	movs	r4, r0
	     HAL_ADC_Stop(&hadc1);                               // Stop ADC to save power
 800170a:	0028      	movs	r0, r5
 800170c:	f001 fe4c 	bl	80033a8 <HAL_ADC_Stop>


    //Convert ADC reading to measured voltage (3.3V reference)
    float Vadc = ((float)raw / 4095.0f) * 2.3f;
 8001710:	b2a0      	uxth	r0, r4
 8001712:	f7ff ff7b 	bl	800160c <__aeabi_ui2f>
 8001716:	4921      	ldr	r1, [pc, #132]	@ (800179c <Get_Battery_Percentage+0xb0>)
 8001718:	f7ff f9cc 	bl	8000ab4 <__aeabi_fdiv>
 800171c:	4920      	ldr	r1, [pc, #128]	@ (80017a0 <Get_Battery_Percentage+0xb4>)
 800171e:	f7ff fb97 	bl	8000e50 <__aeabi_fmul>

    //voltage divider ratio (R1=R2) so multiply by 2
    float Vbat = Vadc * 2.0f;
 8001722:	1c01      	adds	r1, r0, #0
 8001724:	f7fe ffd4 	bl	80006d0 <__aeabi_fadd>
 8001728:	1c05      	adds	r5, r0, #0

    // Compute Vadc in millivolts: (raw/4095)*2300 mV
        uint32_t vadc_mv = (raw * 2300UL) / 4095UL;
 800172a:	481e      	ldr	r0, [pc, #120]	@ (80017a4 <Get_Battery_Percentage+0xb8>)
 800172c:	b2a4      	uxth	r4, r4
 800172e:	4360      	muls	r0, r4
 8001730:	491d      	ldr	r1, [pc, #116]	@ (80017a8 <Get_Battery_Percentage+0xbc>)
 8001732:	f7fe fd19 	bl	8000168 <__udivsi3>

        // Battery voltage (x2 for divider)
        uint32_t vbat_mv = vadc_mv * 2;

        char msg[32];
        snprintf(msg, sizeof(msg), "Vbat = %lu mV\r\n", vbat_mv);
 8001736:	2120      	movs	r1, #32
        uint32_t vbat_mv = vadc_mv * 2;
 8001738:	0043      	lsls	r3, r0, #1
        snprintf(msg, sizeof(msg), "Vbat = %lu mV\r\n", vbat_mv);
 800173a:	4a1c      	ldr	r2, [pc, #112]	@ (80017ac <Get_Battery_Percentage+0xc0>)
 800173c:	4668      	mov	r0, sp
 800173e:	f004 fa5b 	bl	8005bf8 <sniprintf>
        HAL_UART_Transmit(&huart1, (uint8_t*)msg, strlen(msg), HAL_MAX_DELAY);
 8001742:	4668      	mov	r0, sp
 8001744:	f7fe fcea 	bl	800011c <strlen>
 8001748:	2301      	movs	r3, #1
 800174a:	b282      	uxth	r2, r0
 800174c:	425b      	negs	r3, r3
 800174e:	4669      	mov	r1, sp
 8001750:	4817      	ldr	r0, [pc, #92]	@ (80017b0 <Get_Battery_Percentage+0xc4>)
 8001752:	f003 fff4 	bl	800573e <HAL_UART_Transmit>

    //Linear mapping between 3.2V and 4.2V for battery percentage calculation.
    float Vmin = 3.2f;
    float Vmax = 4.2f;
    float percent = ((Vbat - Vmin) / (Vmax - Vmin)) * 100.0f;
 8001756:	4917      	ldr	r1, [pc, #92]	@ (80017b4 <Get_Battery_Percentage+0xc8>)
 8001758:	1c28      	adds	r0, r5, #0
 800175a:	f7ff fcd3 	bl	8001104 <__aeabi_fsub>
 800175e:	4916      	ldr	r1, [pc, #88]	@ (80017b8 <Get_Battery_Percentage+0xcc>)
 8001760:	f7ff f9a8 	bl	8000ab4 <__aeabi_fdiv>
 8001764:	4915      	ldr	r1, [pc, #84]	@ (80017bc <Get_Battery_Percentage+0xd0>)
 8001766:	f7ff fb73 	bl	8000e50 <__aeabi_fmul>

    // Clamp between 0–100
    if (percent < 0) percent = 0;
 800176a:	2100      	movs	r1, #0
    float percent = ((Vbat - Vmin) / (Vmax - Vmin)) * 100.0f;
 800176c:	1c04      	adds	r4, r0, #0
    if (percent < 0) percent = 0;
 800176e:	f7fe fe83 	bl	8000478 <__aeabi_fcmplt>
 8001772:	2800      	cmp	r0, #0
 8001774:	d10b      	bne.n	800178e <Get_Battery_Percentage+0xa2>
    if (percent > 100) percent = 100;
 8001776:	4911      	ldr	r1, [pc, #68]	@ (80017bc <Get_Battery_Percentage+0xd0>)
 8001778:	1c20      	adds	r0, r4, #0
 800177a:	f7fe fe91 	bl	80004a0 <__aeabi_fcmpgt>
 800177e:	2800      	cmp	r0, #0
 8001780:	d107      	bne.n	8001792 <Get_Battery_Percentage+0xa6>
//    uint8_t test = 25;
//   return test;
    return (uint8_t)percent;
 8001782:	1c20      	adds	r0, r4, #0
 8001784:	f7fe fec0 	bl	8000508 <__aeabi_f2uiz>
 8001788:	b2c0      	uxtb	r0, r0

   // return (uint16_t)raw;

}
 800178a:	b009      	add	sp, #36	@ 0x24
 800178c:	bd30      	pop	{r4, r5, pc}
    if (percent < 0) percent = 0;
 800178e:	2400      	movs	r4, #0
 8001790:	e7f7      	b.n	8001782 <Get_Battery_Percentage+0x96>
    if (percent > 100) percent = 100;
 8001792:	4c0a      	ldr	r4, [pc, #40]	@ (80017bc <Get_Battery_Percentage+0xd0>)
 8001794:	e7f5      	b.n	8001782 <Get_Battery_Percentage+0x96>
 8001796:	46c0      	nop			@ (mov r8, r8)
 8001798:	20000878 	.word	0x20000878
 800179c:	457ff000 	.word	0x457ff000
 80017a0:	40133333 	.word	0x40133333
 80017a4:	000008fc 	.word	0x000008fc
 80017a8:	00000fff 	.word	0x00000fff
 80017ac:	08006604 	.word	0x08006604
 80017b0:	200006f8 	.word	0x200006f8
 80017b4:	404ccccd 	.word	0x404ccccd
 80017b8:	3f7ffffc 	.word	0x3f7ffffc
 80017bc:	42c80000 	.word	0x42c80000

080017c0 <HAL_UART_RxCpltCallback>:
 *			increments byte_count, which is checked in the process_UART() for processing the bytes
 *			Re-enables UART interrupt for next byte.
 */
void HAL_UART_RxCpltCallback(UART_HandleTypeDef *huart)
{
    if (huart->Instance == USART2)
 80017c0:	4b0d      	ldr	r3, [pc, #52]	@ (80017f8 <HAL_UART_RxCpltCallback+0x38>)
 80017c2:	6802      	ldr	r2, [r0, #0]
{
 80017c4:	b510      	push	{r4, lr}
    if (huart->Instance == USART2)
 80017c6:	429a      	cmp	r2, r3
 80017c8:	d114      	bne.n	80017f4 <HAL_UART_RxCpltCallback+0x34>
    {

    	uint8_t index = uart_rx_head;
 80017ca:	4a0c      	ldr	r2, [pc, #48]	@ (80017fc <HAL_UART_RxCpltCallback+0x3c>)
       	byte_buffer[index] = rx_byte;
 80017cc:	490c      	ldr	r1, [pc, #48]	@ (8001800 <HAL_UART_RxCpltCallback+0x40>)
    	uint8_t index = uart_rx_head;
 80017ce:	8813      	ldrh	r3, [r2, #0]
       	byte_buffer[index] = rx_byte;
 80017d0:	480c      	ldr	r0, [pc, #48]	@ (8001804 <HAL_UART_RxCpltCallback+0x44>)
 80017d2:	780c      	ldrb	r4, [r1, #0]
 80017d4:	b2db      	uxtb	r3, r3
 80017d6:	54c4      	strb	r4, [r0, r3]
       	byte_count++;
 80017d8:	480b      	ldr	r0, [pc, #44]	@ (8001808 <HAL_UART_RxCpltCallback+0x48>)
 80017da:	7803      	ldrb	r3, [r0, #0]
 80017dc:	3301      	adds	r3, #1
 80017de:	b2db      	uxtb	r3, r3
 80017e0:	7003      	strb	r3, [r0, #0]

       	uart_rx_head = (uart_rx_head+1) % MAX_FRAME_SIZE;
 80017e2:	203f      	movs	r0, #63	@ 0x3f
 80017e4:	8813      	ldrh	r3, [r2, #0]
 80017e6:	3301      	adds	r3, #1
 80017e8:	4003      	ands	r3, r0
 80017ea:	8013      	strh	r3, [r2, #0]

        // Re-enable UART interrupt for next byte
        HAL_UART_Receive_IT(&huart2, &rx_byte, 1);
 80017ec:	4807      	ldr	r0, [pc, #28]	@ (800180c <HAL_UART_RxCpltCallback+0x4c>)
 80017ee:	2201      	movs	r2, #1
 80017f0:	f004 f942 	bl	8005a78 <HAL_UART_Receive_IT>
    }
}
 80017f4:	bd10      	pop	{r4, pc}
 80017f6:	46c0      	nop			@ (mov r8, r8)
 80017f8:	40004400 	.word	0x40004400
 80017fc:	2000065e 	.word	0x2000065e
 8001800:	20000660 	.word	0x20000660
 8001804:	2000061c 	.word	0x2000061c
 8001808:	2000061b 	.word	0x2000061b
 800180c:	20000664 	.word	0x20000664

08001810 <crc16_modbus>:

        // Process 8 bits (each bit of the byte)
        for (uint8_t i = 0; i < 8; i++) {

            // Check if LSB is 1 (LSB-first CRC)
            if (crc & 0x0001) {
 8001810:	4b0d      	ldr	r3, [pc, #52]	@ (8001848 <crc16_modbus+0x38>)
{
 8001812:	b5f0      	push	{r4, r5, r6, r7, lr}
            if (crc & 0x0001) {
 8001814:	469c      	mov	ip, r3
    for (uint16_t pos = 0; pos < len; pos++) {
 8001816:	2400      	movs	r4, #0
            if (crc & 0x0001) {
 8001818:	2701      	movs	r7, #1
{
 800181a:	0005      	movs	r5, r0
    uint16_t crc = 0xFFFF;
 800181c:	480b      	ldr	r0, [pc, #44]	@ (800184c <crc16_modbus+0x3c>)
    for (uint16_t pos = 0; pos < len; pos++) {
 800181e:	b2a3      	uxth	r3, r4
 8001820:	4299      	cmp	r1, r3
 8001822:	d800      	bhi.n	8001826 <crc16_modbus+0x16>
        }
    }

    // Final CRC result (LSB first, as required by Modbus)
    return crc;
}
 8001824:	bdf0      	pop	{r4, r5, r6, r7, pc}
        crc ^= (uint16_t)data[pos];
 8001826:	2208      	movs	r2, #8
 8001828:	5d2b      	ldrb	r3, [r5, r4]
 800182a:	4058      	eors	r0, r3
            if (crc & 0x0001) {
 800182c:	0003      	movs	r3, r0
 800182e:	4666      	mov	r6, ip
 8001830:	403b      	ands	r3, r7
 8001832:	425b      	negs	r3, r3
 8001834:	4033      	ands	r3, r6
                crc = (crc >> 1) ^ 0xA001;
 8001836:	0840      	lsrs	r0, r0, #1
        for (uint8_t i = 0; i < 8; i++) {
 8001838:	3a01      	subs	r2, #1
            if (crc & 0x0001) {
 800183a:	4058      	eors	r0, r3
        for (uint8_t i = 0; i < 8; i++) {
 800183c:	b2d2      	uxtb	r2, r2
            if (crc & 0x0001) {
 800183e:	b280      	uxth	r0, r0
        for (uint8_t i = 0; i < 8; i++) {
 8001840:	2a00      	cmp	r2, #0
 8001842:	d1f3      	bne.n	800182c <crc16_modbus+0x1c>
    for (uint16_t pos = 0; pos < len; pos++) {
 8001844:	3401      	adds	r4, #1
 8001846:	e7ea      	b.n	800181e <crc16_modbus+0xe>
 8001848:	ffffa001 	.word	0xffffa001
 800184c:	0000ffff 	.word	0x0000ffff

08001850 <sendResponse>:
 * @param seq       Sequence number received in the request.
 * @param respCode  Response type (NACK or PACK).
 * @param data      Pointer to response payload buffer.
 * @param dataLen   Length of the response payload.
 */
void sendResponse(uint8_t seq, uint8_t respCode, uint8_t *data, uint8_t dataLen) {
 8001850:	b530      	push	{r4, r5, lr}
 8001852:	b089      	sub	sp, #36	@ 0x24
    uint8_t frame[32];
    uint16_t pos = 0;

    // Frame header construction
    frame[pos++] = START_PILOT;    // Start byte of frame
 8001854:	466d      	mov	r5, sp
void sendResponse(uint8_t seq, uint8_t respCode, uint8_t *data, uint8_t dataLen) {
 8001856:	001c      	movs	r4, r3
    frame[pos++] = START_PILOT;    // Start byte of frame
 8001858:	2324      	movs	r3, #36	@ 0x24
 800185a:	702b      	strb	r3, [r5, #0]
    frame[pos++] = seq;            // Sequence number
 800185c:	466b      	mov	r3, sp
    frame[pos++] = respCode;       // Response code (NACK or PACK)
 800185e:	70a9      	strb	r1, [r5, #2]
    frame[pos++] = seq;            // Sequence number
 8001860:	7068      	strb	r0, [r5, #1]
    frame[pos++] = dataLen;        // Length of payload
 8001862:	70ec      	strb	r4, [r5, #3]

    for (uint8_t i = 0; i < dataLen; i++)
 8001864:	1911      	adds	r1, r2, r4
 8001866:	3301      	adds	r3, #1
 8001868:	428a      	cmp	r2, r1
 800186a:	d117      	bne.n	800189c <sendResponse+0x4c>

    // Compute CRC16
    // CRC is calculated on:
    //   SEQ, RESP_CODE, DATA_LEN, DATA...
    // i.e., frame[1] to frame[3 + dataLen]
    uint16_t crc = crc16_modbus(&frame[1], 2 + 1 + dataLen);
 800186c:	466b      	mov	r3, sp
 800186e:	1ce1      	adds	r1, r4, #3
 8001870:	1c58      	adds	r0, r3, #1
 8001872:	f7ff ffcd 	bl	8001810 <crc16_modbus>

    // Append CRC (LSB first, MSB next)
    frame[pos++] = crc & 0xFF;
 8001876:	0023      	movs	r3, r4
    frame[pos++] = (crc >> 8) & 0xFF;
 8001878:	466a      	mov	r2, sp
    frame[pos++] = crc & 0xFF;
 800187a:	446b      	add	r3, sp
 800187c:	7118      	strb	r0, [r3, #4]
    frame[pos++] = (crc >> 8) & 0xFF;
 800187e:	1d63      	adds	r3, r4, #5
 8001880:	0a00      	lsrs	r0, r0, #8
 8001882:	54d0      	strb	r0, [r2, r3]
    frame[pos++] = END_PILOT;		//End Marker
 8001884:	4669      	mov	r1, sp
 8001886:	2223      	movs	r2, #35	@ 0x23
 8001888:	1da3      	adds	r3, r4, #6
 800188a:	54ca      	strb	r2, [r1, r3]

    // Transmit complete frame.
    HAL_UART_Transmit(&huart2, frame, pos, HAL_MAX_DELAY);
 800188c:	2301      	movs	r3, #1
 800188e:	1de2      	adds	r2, r4, #7
 8001890:	425b      	negs	r3, r3
 8001892:	4804      	ldr	r0, [pc, #16]	@ (80018a4 <sendResponse+0x54>)
 8001894:	f003 ff53 	bl	800573e <HAL_UART_Transmit>
}
 8001898:	b009      	add	sp, #36	@ 0x24
 800189a:	bd30      	pop	{r4, r5, pc}
        frame[pos++] = data[i];		// Copy payload bytes
 800189c:	7810      	ldrb	r0, [r2, #0]
 800189e:	3201      	adds	r2, #1
 80018a0:	70d8      	strb	r0, [r3, #3]
    for (uint8_t i = 0; i < dataLen; i++)
 80018a2:	e7e0      	b.n	8001866 <sendResponse+0x16>
 80018a4:	20000664 	.word	0x20000664

080018a8 <process_UART>:
void process_UART(){
 80018a8:	b5f0      	push	{r4, r5, r6, r7, lr}
					          	        	  	        	  byte_buf_overflow_flag = true;
 80018aa:	2601      	movs	r6, #1
void process_UART(){
 80018ac:	b085      	sub	sp, #20
			while(byte_count>0){
 80018ae:	4d30      	ldr	r5, [pc, #192]	@ (8001970 <process_UART+0xc8>)
 80018b0:	782b      	ldrb	r3, [r5, #0]
 80018b2:	2b00      	cmp	r3, #0
 80018b4:	d101      	bne.n	80018ba <process_UART+0x12>
}
 80018b6:	b005      	add	sp, #20
 80018b8:	bdf0      	pop	{r4, r5, r6, r7, pc}
					          uart_rx_tail = (uart_rx_tail + 1) % MAX_FRAME_SIZE;
 80018ba:	243f      	movs	r4, #63	@ 0x3f
							  uint8_t index = uart_rx_tail;
 80018bc:	492d      	ldr	r1, [pc, #180]	@ (8001974 <process_UART+0xcc>)
					          uint8_t byte = byte_buffer[index];
 80018be:	482e      	ldr	r0, [pc, #184]	@ (8001978 <process_UART+0xd0>)
							  uint8_t index = uart_rx_tail;
 80018c0:	880b      	ldrh	r3, [r1, #0]
					          uint8_t byte = byte_buffer[index];
 80018c2:	b2da      	uxtb	r2, r3
 80018c4:	5c82      	ldrb	r2, [r0, r2]
					          uart_rx_tail = (uart_rx_tail + 1) % MAX_FRAME_SIZE;
 80018c6:	3301      	adds	r3, #1
 80018c8:	4023      	ands	r3, r4
 80018ca:	800b      	strh	r3, [r1, #0]
 80018cc:	4c2b      	ldr	r4, [pc, #172]	@ (800197c <process_UART+0xd4>)
 80018ce:	492c      	ldr	r1, [pc, #176]	@ (8001980 <process_UART+0xd8>)
					          uint8_t byte = byte_buffer[index];
 80018d0:	b2d0      	uxtb	r0, r2
					          if (byte == START_PILOT){
 80018d2:	2a24      	cmp	r2, #36	@ 0x24
 80018d4:	d12d      	bne.n	8001932 <process_UART+0x8a>
					        	  	  	  	 frame[frame_index++] = byte; // Stores Start pilot and then increments the frame index.
 80018d6:	7026      	strb	r6, [r4, #0]
 80018d8:	7008      	strb	r0, [r1, #0]
					          uint8_t expected_len = 8 + frame[4];   // header + data payload
 80018da:	790b      	ldrb	r3, [r1, #4]
					          if(frame_index == expected_len){
 80018dc:	7822      	ldrb	r2, [r4, #0]
					          uint8_t expected_len = 8 + frame[4];   // header + data payload
 80018de:	3308      	adds	r3, #8
					          if(frame_index == expected_len){
 80018e0:	b2db      	uxtb	r3, r3
 80018e2:	429a      	cmp	r2, r3
 80018e4:	d11e      	bne.n	8001924 <process_UART+0x7c>
					        	  	  if (byte == END_PILOT){
 80018e6:	2823      	cmp	r0, #35	@ 0x23
 80018e8:	d135      	bne.n	8001956 <process_UART+0xae>
					        	  	        	  if (frameCount < MAX_FRAMES) {
 80018ea:	4b26      	ldr	r3, [pc, #152]	@ (8001984 <process_UART+0xdc>)
 80018ec:	9301      	str	r3, [sp, #4]
 80018ee:	781b      	ldrb	r3, [r3, #0]
 80018f0:	9300      	str	r3, [sp, #0]
 80018f2:	2b13      	cmp	r3, #19
 80018f4:	d82b      	bhi.n	800194e <process_UART+0xa6>
					        	  	        	                  frameQueue[frameHead].len = frame_index;
 80018f6:	2341      	movs	r3, #65	@ 0x41
 80018f8:	4f23      	ldr	r7, [pc, #140]	@ (8001988 <process_UART+0xe0>)
 80018fa:	4824      	ldr	r0, [pc, #144]	@ (800198c <process_UART+0xe4>)
 80018fc:	783c      	ldrb	r4, [r7, #0]
 80018fe:	4363      	muls	r3, r4
 8001900:	18c0      	adds	r0, r0, r3
 8001902:	0003      	movs	r3, r0
 8001904:	3340      	adds	r3, #64	@ 0x40
 8001906:	701a      	strb	r2, [r3, #0]
					        	  	        	                  memcpy((uint8_t*)frameQueue[frameHead].data, (const uint8_t*)frame, frame_index);
 8001908:	f004 f9e0 	bl	8005ccc <memcpy>
					        	  	        	                  frameHead = (frameHead + 1) % MAX_FRAMES;
 800190c:	2114      	movs	r1, #20
 800190e:	1c60      	adds	r0, r4, #1
 8001910:	f7fe fd9a 	bl	8000448 <__aeabi_idivmod>
					        	  	        	                  frameCount++;
 8001914:	9b00      	ldr	r3, [sp, #0]
 8001916:	9a01      	ldr	r2, [sp, #4]
 8001918:	3301      	adds	r3, #1
					        	  	        	                  frameHead = (frameHead + 1) % MAX_FRAMES;
 800191a:	7039      	strb	r1, [r7, #0]
					        	  	        	                  frameCount++;
 800191c:	7013      	strb	r3, [r2, #0]
					        	  	        	  frame_index = 0;			//Reset frame index for next frame.
 800191e:	2200      	movs	r2, #0
 8001920:	4b16      	ldr	r3, [pc, #88]	@ (800197c <process_UART+0xd4>)
 8001922:	701a      	strb	r2, [r3, #0]
  \details Disables IRQ interrupts by setting the I-bit in the CPSR.
           Can only be executed in Privileged modes.
 */
__STATIC_FORCEINLINE void __disable_irq(void)
{
  __ASM volatile ("cpsid i" : : : "memory");
 8001924:	b672      	cpsid	i
					          byte_count--;
 8001926:	782b      	ldrb	r3, [r5, #0]
 8001928:	3b01      	subs	r3, #1
 800192a:	b2db      	uxtb	r3, r3
 800192c:	702b      	strb	r3, [r5, #0]
  __ASM volatile ("cpsie i" : : : "memory");
 800192e:	b662      	cpsie	i
}
 8001930:	e7bd      	b.n	80018ae <process_UART+0x6>
					          else if(frame_index>0){
 8001932:	7823      	ldrb	r3, [r4, #0]
 8001934:	2b00      	cmp	r3, #0
 8001936:	d0d0      	beq.n	80018da <process_UART+0x32>
					          	        	  if(frame_index >= MAX_FRAME_SIZE){ 				// Prevent writing beyond frame buffer size
 8001938:	2b3f      	cmp	r3, #63	@ 0x3f
 800193a:	d903      	bls.n	8001944 <process_UART+0x9c>
					          	        	  	        	  frame_index=0;					// reset frame index due to overflow
 800193c:	2300      	movs	r3, #0
 800193e:	7023      	strb	r3, [r4, #0]
					          	        	  	        	  byte_buf_overflow_flag = true;
 8001940:	4b13      	ldr	r3, [pc, #76]	@ (8001990 <process_UART+0xe8>)
 8001942:	701e      	strb	r6, [r3, #0]
					          	        	  frame[frame_index++] = byte;						//Stores the next byte and incremets the frame index.
 8001944:	7823      	ldrb	r3, [r4, #0]
 8001946:	1c5a      	adds	r2, r3, #1
 8001948:	7022      	strb	r2, [r4, #0]
 800194a:	54c8      	strb	r0, [r1, r3]
 800194c:	e7c5      	b.n	80018da <process_UART+0x32>
					        	  	        	   }else frame_buf_overflow_flag = true; // frame Queue buffer full → cannot store
 800194e:	2201      	movs	r2, #1
 8001950:	4b10      	ldr	r3, [pc, #64]	@ (8001994 <process_UART+0xec>)
 8001952:	701a      	strb	r2, [r3, #0]
 8001954:	e7e3      	b.n	800191e <process_UART+0x76>
					        	  	       uint8_t err = Missing_End_pilot;
 8001956:	2106      	movs	r1, #6
 8001958:	ab02      	add	r3, sp, #8
 800195a:	1dda      	adds	r2, r3, #7
					        	  	       sendResponse(seq, NACK, &err, 1);// notify host
 800195c:	4b0e      	ldr	r3, [pc, #56]	@ (8001998 <process_UART+0xf0>)
					        	  	       uint8_t err = Missing_End_pilot;
 800195e:	7011      	strb	r1, [r2, #0]
					        	  	       sendResponse(seq, NACK, &err, 1);// notify host
 8001960:	7818      	ldrb	r0, [r3, #0]
 8001962:	0033      	movs	r3, r6
 8001964:	f7ff ff74 	bl	8001850 <sendResponse>
					        	  	       frame_index = 0;
 8001968:	2300      	movs	r3, #0
 800196a:	7023      	strb	r3, [r4, #0]
 800196c:	e7da      	b.n	8001924 <process_UART+0x7c>
 800196e:	46c0      	nop			@ (mov r8, r8)
 8001970:	2000061b 	.word	0x2000061b
 8001974:	2000065c 	.word	0x2000065c
 8001978:	2000061c 	.word	0x2000061c
 800197c:	200005da 	.word	0x200005da
 8001980:	200005db 	.word	0x200005db
 8001984:	200000c3 	.word	0x200000c3
 8001988:	200000c5 	.word	0x200000c5
 800198c:	200000c6 	.word	0x200000c6
 8001990:	200000b1 	.word	0x200000b1
 8001994:	200000b2 	.word	0x200000b2
 8001998:	200000c2 	.word	0x200000c2

0800199c <processFrame>:
void processFrame(uint8_t *frame, uint8_t len) {
 800199c:	b5f0      	push	{r4, r5, r6, r7, lr}
 800199e:	0006      	movs	r6, r0
 80019a0:	b087      	sub	sp, #28
    				if (len < 8) return;
 80019a2:	2907      	cmp	r1, #7
 80019a4:	d97b      	bls.n	8001a9e <processFrame+0x102>
    uint8_t dataLen = frame[4];			// Length of the payload
 80019a6:	7903      	ldrb	r3, [r0, #4]
    uint8_t cmd  = frame[2];			// Command code
 80019a8:	7885      	ldrb	r5, [r0, #2]
    uint8_t dataLen = frame[4];			// Length of the payload
 80019aa:	9301      	str	r3, [sp, #4]
    if ((uint8_t)~cmd != cmdC) {
 80019ac:	43eb      	mvns	r3, r5
    seq  = frame[1];					// Sequence number
 80019ae:	7847      	ldrb	r7, [r0, #1]
 80019b0:	4ca6      	ldr	r4, [pc, #664]	@ (8001c4c <processFrame+0x2b0>)
    if ((uint8_t)~cmd != cmdC) {
 80019b2:	78c2      	ldrb	r2, [r0, #3]
 80019b4:	b2db      	uxtb	r3, r3
    seq  = frame[1];					// Sequence number
 80019b6:	7027      	strb	r7, [r4, #0]
    if ((uint8_t)~cmd != cmdC) {
 80019b8:	429a      	cmp	r2, r3
 80019ba:	d008      	beq.n	80019ce <processFrame+0x32>
        uint8_t err = Cmd_compliment_mismatch;
 80019bc:	2307      	movs	r3, #7
 80019be:	aa03      	add	r2, sp, #12
 80019c0:	7013      	strb	r3, [r2, #0]
        sendResponse(seq, NACK, &err, 1);
 80019c2:	3b06      	subs	r3, #6
        sendResponse(seq, NACK, &err, 1);
 80019c4:	2106      	movs	r1, #6
 80019c6:	0038      	movs	r0, r7
            sendResponse(seq, NACK, &err, 1);
 80019c8:	f7ff ff42 	bl	8001850 <sendResponse>
            break;
 80019cc:	e067      	b.n	8001a9e <processFrame+0x102>
    uint16_t crc_calc = crc16_modbus(&frame[1], 4 + dataLen);
 80019ce:	9b01      	ldr	r3, [sp, #4]
 80019d0:	3001      	adds	r0, #1
 80019d2:	1d19      	adds	r1, r3, #4
 80019d4:	f7ff ff1c 	bl	8001810 <crc16_modbus>
    uint16_t crc_recv = frame[5 + dataLen] | (frame[6 + dataLen] << 8);
 80019d8:	9b01      	ldr	r3, [sp, #4]
 80019da:	18f3      	adds	r3, r6, r3
 80019dc:	799a      	ldrb	r2, [r3, #6]
 80019de:	795b      	ldrb	r3, [r3, #5]
 80019e0:	0212      	lsls	r2, r2, #8
    if (crc_calc != crc_recv) {
 80019e2:	4313      	orrs	r3, r2
 80019e4:	4298      	cmp	r0, r3
 80019e6:	d004      	beq.n	80019f2 <processFrame+0x56>
        uint8_t err = Checksum_error;
 80019e8:	2305      	movs	r3, #5
 80019ea:	aa03      	add	r2, sp, #12
 80019ec:	7013      	strb	r3, [r2, #0]
        sendResponse(seq, NACK, &err, 1);
 80019ee:	3b04      	subs	r3, #4
 80019f0:	e7e8      	b.n	80019c4 <processFrame+0x28>
    if(dev_charging_flag){
 80019f2:	4b97      	ldr	r3, [pc, #604]	@ (8001c50 <processFrame+0x2b4>)
 80019f4:	9301      	str	r3, [sp, #4]
 80019f6:	781b      	ldrb	r3, [r3, #0]
 80019f8:	2b00      	cmp	r3, #0
 80019fa:	d00e      	beq.n	8001a1a <processFrame+0x7e>
    	switch (cmd) {
 80019fc:	2d09      	cmp	r5, #9
 80019fe:	d03e      	beq.n	8001a7e <processFrame+0xe2>
 8001a00:	2d0e      	cmp	r5, #14
 8001a02:	d042      	beq.n	8001a8a <processFrame+0xee>
 8001a04:	2d05      	cmp	r5, #5
 8001a06:	d108      	bne.n	8001a1a <processFrame+0x7e>
            	uint8_t percent = Get_Battery_Percentage();
 8001a08:	f7ff fe70 	bl	80016ec <Get_Battery_Percentage>
            	sendResponse(seq, PACK, &percent, 1);
 8001a0c:	2301      	movs	r3, #1
            	uint8_t percent = Get_Battery_Percentage();
 8001a0e:	aa03      	add	r2, sp, #12
 8001a10:	7010      	strb	r0, [r2, #0]
            	sendResponse(seq, PACK, &percent, 1);
 8001a12:	7820      	ldrb	r0, [r4, #0]
                    	sendResponse(seq, PACK, 0x0, 1);
 8001a14:	2105      	movs	r1, #5
                    	sendResponse(seq, PACK, &status_code, 1);
 8001a16:	f7ff ff1b 	bl	8001850 <sendResponse>
    if(!dev_charging_flag){
 8001a1a:	9b01      	ldr	r3, [sp, #4]
 8001a1c:	781b      	ldrb	r3, [r3, #0]
 8001a1e:	2b00      	cmp	r3, #0
 8001a20:	d13d      	bne.n	8001a9e <processFrame+0x102>
    switch (cmd) {
 8001a22:	2d27      	cmp	r5, #39	@ 0x27
 8001a24:	d838      	bhi.n	8001a98 <processFrame+0xfc>
 8001a26:	2d04      	cmp	r5, #4
 8001a28:	d800      	bhi.n	8001a2c <processFrame+0x90>
 8001a2a:	e109      	b.n	8001c40 <processFrame+0x2a4>
 8001a2c:	1f68      	subs	r0, r5, #5
 8001a2e:	2822      	cmp	r0, #34	@ 0x22
 8001a30:	d900      	bls.n	8001a34 <processFrame+0x98>
 8001a32:	e105      	b.n	8001c40 <processFrame+0x2a4>
 8001a34:	f7fe fb8e 	bl	8000154 <__gnu_thumb1_case_uhi>
 8001a38:	003b0035 	.word	0x003b0035
 8001a3c:	00330042 	.word	0x00330042
 8001a40:	004b0045 	.word	0x004b0045
 8001a44:	0033005b 	.word	0x0033005b
 8001a48:	006a0033 	.word	0x006a0033
 8001a4c:	007d007a 	.word	0x007d007a
 8001a50:	01040104 	.word	0x01040104
 8001a54:	00470033 	.word	0x00470033
 8001a58:	00860033 	.word	0x00860033
 8001a5c:	009a0033 	.word	0x009a0033
 8001a60:	003300b0 	.word	0x003300b0
 8001a64:	003300c3 	.word	0x003300c3
 8001a68:	003300c5 	.word	0x003300c5
 8001a6c:	00330033 	.word	0x00330033
 8001a70:	00be00ea 	.word	0x00be00ea
 8001a74:	01040104 	.word	0x01040104
 8001a78:	00fb0104 	.word	0x00fb0104
 8001a7c:	0100      	.short	0x0100
                    	ping();
 8001a7e:	f000 fcab 	bl	80023d8 <ping>
                    	sendResponse(seq, PACK, 0x0, 1);
 8001a82:	2301      	movs	r3, #1
 8001a84:	2200      	movs	r2, #0
 8001a86:	7820      	ldrb	r0, [r4, #0]
 8001a88:	e7c4      	b.n	8001a14 <processFrame+0x78>
                    	uint8_t status_code = 0x13;
 8001a8a:	2313      	movs	r3, #19
 8001a8c:	aa03      	add	r2, sp, #12
 8001a8e:	7013      	strb	r3, [r2, #0]
                    	sendResponse(seq, PACK, &status_code, 1);
 8001a90:	2105      	movs	r1, #5
 8001a92:	0038      	movs	r0, r7
 8001a94:	3b12      	subs	r3, #18
 8001a96:	e7be      	b.n	8001a16 <processFrame+0x7a>
    switch (cmd) {
 8001a98:	2d7e      	cmp	r5, #126	@ 0x7e
 8001a9a:	d000      	beq.n	8001a9e <processFrame+0x102>
 8001a9c:	e0d0      	b.n	8001c40 <processFrame+0x2a4>
}
 8001a9e:	b007      	add	sp, #28
 8001aa0:	bdf0      	pop	{r4, r5, r6, r7, pc}
        	uint8_t percent = Get_Battery_Percentage();
 8001aa2:	f7ff fe23 	bl	80016ec <Get_Battery_Percentage>
 8001aa6:	aa03      	add	r2, sp, #12
 8001aa8:	7010      	strb	r0, [r2, #0]
                	sendResponse(seq, PACK, 0x0, 1);
 8001aaa:	7820      	ldrb	r0, [r4, #0]
 8001aac:	e026      	b.n	8001afc <processFrame+0x160>
        	app_part_count++;
 8001aae:	4a69      	ldr	r2, [pc, #420]	@ (8001c54 <processFrame+0x2b8>)
 8001ab0:	8813      	ldrh	r3, [r2, #0]
 8001ab2:	3301      	adds	r3, #1
 8001ab4:	8013      	strh	r3, [r2, #0]
        	app_session_start();
 8001ab6:	f000 fcef 	bl	8002498 <app_session_start>
            break;
 8001aba:	e7f0      	b.n	8001a9e <processFrame+0x102>
        	app_session_end();
 8001abc:	f000 fcb4 	bl	8002428 <app_session_end>
            break;
 8001ac0:	e7ed      	b.n	8001a9e <processFrame+0x102>
        	ping();
 8001ac2:	f000 fc89 	bl	80023d8 <ping>
        	sendResponse(seq, PACK, 0x00, 1);
 8001ac6:	2301      	movs	r3, #1
 8001ac8:	7820      	ldrb	r0, [r4, #0]
        	sendResponse(seq, PACK, 0x0, 1);
 8001aca:	2200      	movs	r2, #0
 8001acc:	e01c      	b.n	8001b08 <processFrame+0x16c>
        	duty = data[0];
 8001ace:	7970      	ldrb	r0, [r6, #5]
 8001ad0:	4b61      	ldr	r3, [pc, #388]	@ (8001c58 <processFrame+0x2bc>)
 8001ad2:	7018      	strb	r0, [r3, #0]
        	if(duty>0 && duty<101){
 8001ad4:	1e43      	subs	r3, r0, #1
 8001ad6:	2b63      	cmp	r3, #99	@ 0x63
 8001ad8:	d802      	bhi.n	8001ae0 <processFrame+0x144>
        	treatment_led(65);
 8001ada:	f000 fb63 	bl	80021a4 <treatment_led>
 8001ade:	e7f2      	b.n	8001ac6 <processFrame+0x12a>
        	       uint8_t err = Param_out_of_bounds;
 8001ae0:	2302      	movs	r3, #2
 8001ae2:	aa03      	add	r2, sp, #12
        	       sendResponse(seq, NACK, &err, 1);
 8001ae4:	7820      	ldrb	r0, [r4, #0]
        	       uint8_t err = Param_out_of_bounds;
 8001ae6:	7013      	strb	r3, [r2, #0]
        	       sendResponse(seq, NACK, &err, 1);
 8001ae8:	3b01      	subs	r3, #1
            sendResponse(seq, NACK, &err, 1);
 8001aea:	2106      	movs	r1, #6
 8001aec:	e76c      	b.n	80019c8 <processFrame+0x2c>
        	duty = data[0];
 8001aee:	7973      	ldrb	r3, [r6, #5]
 8001af0:	4a59      	ldr	r2, [pc, #356]	@ (8001c58 <processFrame+0x2bc>)
        	       sendResponse(seq, NACK, &err, 1);
 8001af2:	7820      	ldrb	r0, [r4, #0]
        	duty = data[0];
 8001af4:	7013      	strb	r3, [r2, #0]
        	if(duty>0 && duty<101){
 8001af6:	3b01      	subs	r3, #1
 8001af8:	2b63      	cmp	r3, #99	@ 0x63
 8001afa:	d801      	bhi.n	8001b00 <processFrame+0x164>
                	sendResponse(seq, PACK, 0x0, 1);
 8001afc:	2301      	movs	r3, #1
 8001afe:	e003      	b.n	8001b08 <processFrame+0x16c>
        		  uint8_t err = Param_out_of_bounds;
 8001b00:	2302      	movs	r3, #2
 8001b02:	aa03      	add	r2, sp, #12
 8001b04:	7013      	strb	r3, [r2, #0]
        		  sendResponse(seq, PACK, &err, 1);}
 8001b06:	3b01      	subs	r3, #1
                	sendResponse(seq, PACK, 0x0, 1);
 8001b08:	2105      	movs	r1, #5
 8001b0a:	e75d      	b.n	80019c8 <processFrame+0x2c>
        	if(!end_control_flag){
 8001b0c:	4b53      	ldr	r3, [pc, #332]	@ (8001c5c <processFrame+0x2c0>)
        	       sendResponse(seq, NACK, &err, 1);
 8001b0e:	7820      	ldrb	r0, [r4, #0]
        	if(!end_control_flag){
 8001b10:	781b      	ldrb	r3, [r3, #0]
 8001b12:	2b00      	cmp	r3, #0
 8001b14:	d105      	bne.n	8001b22 <processFrame+0x186>
        		status_code =0x12;
 8001b16:	3312      	adds	r3, #18
 8001b18:	aa02      	add	r2, sp, #8
 8001b1a:	7113      	strb	r3, [r2, #4]
        		sendResponse(seq, PACK, &status_code, 1);
 8001b1c:	3b11      	subs	r3, #17
        	    	sendResponse(seq, PACK, &status_code, 1);
 8001b1e:	aa03      	add	r2, sp, #12
 8001b20:	e7f2      	b.n	8001b08 <processFrame+0x16c>
        	    	status_code = 0x11;
 8001b22:	2311      	movs	r3, #17
 8001b24:	aa02      	add	r2, sp, #8
 8001b26:	7113      	strb	r3, [r2, #4]
        	    	sendResponse(seq, PACK, &status_code, 1);
 8001b28:	3b10      	subs	r3, #16
 8001b2a:	e7f8      	b.n	8001b1e <processFrame+0x182>
        	self_diagnosis();
 8001b2c:	f000 fdbc 	bl	80026a8 <self_diagnosis>
            break;
 8001b30:	e7b5      	b.n	8001a9e <processFrame+0x102>
        	sendResponse(seq, PACK, 0x0, 1);
 8001b32:	2301      	movs	r3, #1
 8001b34:	2200      	movs	r2, #0
 8001b36:	2105      	movs	r1, #5
 8001b38:	7820      	ldrb	r0, [r4, #0]
 8001b3a:	f7ff fe89 	bl	8001850 <sendResponse>
        	shutdown_routine();
 8001b3e:	f000 fc17 	bl	8002370 <shutdown_routine>
            break;
 8001b42:	e7ac      	b.n	8001a9e <processFrame+0x102>
            if (!end_control_flag)
 8001b44:	4b45      	ldr	r3, [pc, #276]	@ (8001c5c <processFrame+0x2c0>)
 8001b46:	781b      	ldrb	r3, [r3, #0]
 8001b48:	2b00      	cmp	r3, #0
 8001b4a:	d10a      	bne.n	8001b62 <processFrame+0x1c6>
                uint32_t cur_sess_duration = HAL_GetTick() - session_start_tick;   	 // time in ms
 8001b4c:	f001 f87e 	bl	8002c4c <HAL_GetTick>
 8001b50:	4b43      	ldr	r3, [pc, #268]	@ (8001c60 <processFrame+0x2c4>)
                uint32_t remaining_ms = session_duration - cur_sess_duration;
 8001b52:	4a44      	ldr	r2, [pc, #272]	@ (8001c64 <processFrame+0x2c8>)
 8001b54:	681b      	ldr	r3, [r3, #0]
 8001b56:	189b      	adds	r3, r3, r2
 8001b58:	1a1b      	subs	r3, r3, r0
 8001b5a:	9303      	str	r3, [sp, #12]
                sendResponse(seq, PACK, (uint8_t*)&remaining_ms, 4);            // send 4 bytes
 8001b5c:	7820      	ldrb	r0, [r4, #0]
 8001b5e:	2304      	movs	r3, #4
 8001b60:	e7dd      	b.n	8001b1e <processFrame+0x182>
                uint32_t zero = 0;
 8001b62:	2300      	movs	r3, #0
                sendResponse(seq, PACK, (uint8_t*)&zero, 4);
 8001b64:	7820      	ldrb	r0, [r4, #0]
                uint32_t zero = 0;
 8001b66:	9303      	str	r3, [sp, #12]
                sendResponse(seq, PACK, (uint8_t*)&zero, 4);
 8001b68:	3304      	adds	r3, #4
 8001b6a:	e7d8      	b.n	8001b1e <processFrame+0x182>
                stats[0]  =  manual_full_count & 0xFF;
 8001b6c:	4b3e      	ldr	r3, [pc, #248]	@ (8001c68 <processFrame+0x2cc>)
 8001b6e:	aa03      	add	r2, sp, #12
 8001b70:	881b      	ldrh	r3, [r3, #0]
                sendResponse(seq, PACK, stats, 12);
 8001b72:	7820      	ldrb	r0, [r4, #0]
                stats[0]  =  manual_full_count & 0xFF;
 8001b74:	8013      	strh	r3, [r2, #0]
                stats[2]  =  app_full_count & 0xFF;
 8001b76:	4b3d      	ldr	r3, [pc, #244]	@ (8001c6c <processFrame+0x2d0>)
 8001b78:	881b      	ldrh	r3, [r3, #0]
 8001b7a:	8053      	strh	r3, [r2, #2]
                stats[4]  =  manual_perm_count & 0xFF;
 8001b7c:	4b3c      	ldr	r3, [pc, #240]	@ (8001c70 <processFrame+0x2d4>)
 8001b7e:	881b      	ldrh	r3, [r3, #0]
 8001b80:	8093      	strh	r3, [r2, #4]
                stats[6]  =  app_perm_count & 0xFF;
 8001b82:	4b3c      	ldr	r3, [pc, #240]	@ (8001c74 <processFrame+0x2d8>)
 8001b84:	881b      	ldrh	r3, [r3, #0]
 8001b86:	80d3      	strh	r3, [r2, #6]
                stats[8]  =  man_part_count & 0xFF;
 8001b88:	4b3b      	ldr	r3, [pc, #236]	@ (8001c78 <processFrame+0x2dc>)
 8001b8a:	881b      	ldrh	r3, [r3, #0]
 8001b8c:	8113      	strh	r3, [r2, #8]
                stats[10] =  app_part_count & 0xFF;
 8001b8e:	4b31      	ldr	r3, [pc, #196]	@ (8001c54 <processFrame+0x2b8>)
 8001b90:	881b      	ldrh	r3, [r3, #0]
 8001b92:	8153      	strh	r3, [r2, #10]
                sendResponse(seq, PACK, stats, 12);
 8001b94:	230c      	movs	r3, #12
 8001b96:	e7b7      	b.n	8001b08 <processFrame+0x16c>
            manual_full_count = 0;
 8001b98:	2300      	movs	r3, #0
 8001b9a:	4a33      	ldr	r2, [pc, #204]	@ (8001c68 <processFrame+0x2cc>)
 8001b9c:	8013      	strh	r3, [r2, #0]
            app_full_count = 0;
 8001b9e:	4a33      	ldr	r2, [pc, #204]	@ (8001c6c <processFrame+0x2d0>)
 8001ba0:	8013      	strh	r3, [r2, #0]
            man_part_count = 0;
 8001ba2:	4a35      	ldr	r2, [pc, #212]	@ (8001c78 <processFrame+0x2dc>)
 8001ba4:	8013      	strh	r3, [r2, #0]
            app_part_count = 0;
 8001ba6:	4a2b      	ldr	r2, [pc, #172]	@ (8001c54 <processFrame+0x2b8>)
        	app_perm_count = 0;
 8001ba8:	8013      	strh	r3, [r2, #0]
            uint8_t ack = 0x00;   // success
 8001baa:	aa03      	add	r2, sp, #12
 8001bac:	7013      	strb	r3, [r2, #0]
            sendResponse(seq, PACK, &ack, 1);
 8001bae:	7820      	ldrb	r0, [r4, #0]
 8001bb0:	3301      	adds	r3, #1
 8001bb2:	e7a9      	b.n	8001b08 <processFrame+0x16c>
        	manual_perm_count = 0;
 8001bb4:	2300      	movs	r3, #0
 8001bb6:	4a2e      	ldr	r2, [pc, #184]	@ (8001c70 <processFrame+0x2d4>)
 8001bb8:	8013      	strh	r3, [r2, #0]
        	app_perm_count = 0;
 8001bba:	4a2e      	ldr	r2, [pc, #184]	@ (8001c74 <processFrame+0x2d8>)
 8001bbc:	e7f4      	b.n	8001ba8 <processFrame+0x20c>
        	treatment_led(65);
 8001bbe:	2041      	movs	r0, #65	@ 0x41
 8001bc0:	e78b      	b.n	8001ada <processFrame+0x13e>
        	uint8_t mode = data[0];
 8001bc2:	aa02      	add	r2, sp, #8
 8001bc4:	7973      	ldrb	r3, [r6, #5]
 8001bc6:	3203      	adds	r2, #3
        	       sendResponse(seq, NACK, &err, 1);
 8001bc8:	7820      	ldrb	r0, [r4, #0]
        	uint8_t mode = data[0];
 8001bca:	7013      	strb	r3, [r2, #0]
        	if (mode == 0xaa){
 8001bcc:	2baa      	cmp	r3, #170	@ 0xaa
 8001bce:	d10e      	bne.n	8001bee <processFrame+0x252>
        		clinical_mode_flag = true;
 8001bd0:	4d2a      	ldr	r5, [pc, #168]	@ (8001c7c <processFrame+0x2e0>)
 8001bd2:	3ba9      	subs	r3, #169	@ 0xa9
        		sendResponse(seq, PACK, &mode, 1);
 8001bd4:	2105      	movs	r1, #5
        		clinical_mode_flag = true;
 8001bd6:	702b      	strb	r3, [r5, #0]
        		sendResponse(seq, PACK, &mode, 1);
 8001bd8:	f7ff fe3a 	bl	8001850 <sendResponse>
        		Flash_WriteFlag(clinical_mode_flag);
 8001bdc:	7828      	ldrb	r0, [r5, #0]
 8001bde:	f000 f89d 	bl	8001d1c <Flash_WriteFlag>
        		uint8_t err = C_mode_data_mismatch;
 8001be2:	230d      	movs	r3, #13
 8001be4:	aa03      	add	r2, sp, #12
 8001be6:	7013      	strb	r3, [r2, #0]
        		sendResponse(seq, NACK, &err, 1);
 8001be8:	7820      	ldrb	r0, [r4, #0]
 8001bea:	3b0c      	subs	r3, #12
 8001bec:	e77d      	b.n	8001aea <processFrame+0x14e>
        	if (mode == 0x55){
 8001bee:	2b55      	cmp	r3, #85	@ 0x55
 8001bf0:	d1f7      	bne.n	8001be2 <processFrame+0x246>
        	    clinical_mode_flag = false;
 8001bf2:	2300      	movs	r3, #0
 8001bf4:	4c21      	ldr	r4, [pc, #132]	@ (8001c7c <processFrame+0x2e0>)
        	    touchlocked_flag = 0;
 8001bf6:	4922      	ldr	r1, [pc, #136]	@ (8001c80 <processFrame+0x2e4>)
        	    clinical_mode_flag = false;
 8001bf8:	7023      	strb	r3, [r4, #0]
        	    touchlocked_flag = 0;
 8001bfa:	700b      	strb	r3, [r1, #0]
        	    sendResponse(seq, PACK, &mode, 1);
 8001bfc:	2105      	movs	r1, #5
 8001bfe:	3301      	adds	r3, #1
 8001c00:	f7ff fe26 	bl	8001850 <sendResponse>
        	    Flash_WriteFlag(clinical_mode_flag);
 8001c04:	7820      	ldrb	r0, [r4, #0]
 8001c06:	f000 f889 	bl	8001d1c <Flash_WriteFlag>
 8001c0a:	e748      	b.n	8001a9e <processFrame+0x102>
        	HAL_GPIO_WritePin(GPIOC, BT_RST_Pin, GPIO_PIN_RESET);
 8001c0c:	2200      	movs	r2, #0
 8001c0e:	2120      	movs	r1, #32
 8001c10:	481c      	ldr	r0, [pc, #112]	@ (8001c84 <processFrame+0x2e8>)
 8001c12:	f001 fe4d 	bl	80038b0 <HAL_GPIO_WritePin>
        	HAL_Delay(100);
 8001c16:	2064      	movs	r0, #100	@ 0x64
 8001c18:	f001 f81e 	bl	8002c58 <HAL_Delay>
        	HAL_GPIO_WritePin(GPIOC, BT_RST_Pin, GPIO_PIN_SET);
 8001c1c:	2201      	movs	r2, #1
 8001c1e:	2120      	movs	r1, #32
 8001c20:	4818      	ldr	r0, [pc, #96]	@ (8001c84 <processFrame+0x2e8>)
 8001c22:	f001 fe45 	bl	80038b0 <HAL_GPIO_WritePin>
        	HAL_Delay(100);
 8001c26:	2064      	movs	r0, #100	@ 0x64
 8001c28:	f001 f816 	bl	8002c58 <HAL_Delay>
        	break;
 8001c2c:	e737      	b.n	8001a9e <processFrame+0x102>
        	touchlocked_flag = 1;
 8001c2e:	2301      	movs	r3, #1
 8001c30:	4a13      	ldr	r2, [pc, #76]	@ (8001c80 <processFrame+0x2e4>)
        	sendResponse(seq, PACK, 0x0, 1);
 8001c32:	7820      	ldrb	r0, [r4, #0]
        	touchlocked_flag = 1;
 8001c34:	7013      	strb	r3, [r2, #0]
        	sendResponse(seq, PACK, 0x0, 1);
 8001c36:	e748      	b.n	8001aca <processFrame+0x12e>
                	touchlocked_flag = 0;
 8001c38:	2200      	movs	r2, #0
 8001c3a:	4b11      	ldr	r3, [pc, #68]	@ (8001c80 <processFrame+0x2e4>)
 8001c3c:	701a      	strb	r2, [r3, #0]
 8001c3e:	e734      	b.n	8001aaa <processFrame+0x10e>
            uint8_t err = Unknown_cmd_code;
 8001c40:	2301      	movs	r3, #1
 8001c42:	aa03      	add	r2, sp, #12
            sendResponse(seq, NACK, &err, 1);
 8001c44:	7820      	ldrb	r0, [r4, #0]
            uint8_t err = Unknown_cmd_code;
 8001c46:	7013      	strb	r3, [r2, #0]
            sendResponse(seq, NACK, &err, 1);
 8001c48:	e74f      	b.n	8001aea <processFrame+0x14e>
 8001c4a:	46c0      	nop			@ (mov r8, r8)
 8001c4c:	200000c2 	.word	0x200000c2
 8001c50:	200000b3 	.word	0x200000b3
 8001c54:	200000b6 	.word	0x200000b6
 8001c58:	200008dc 	.word	0x200008dc
 8001c5c:	200008eb 	.word	0x200008eb
 8001c60:	200008e4 	.word	0x200008e4
 8001c64:	001b7740 	.word	0x001b7740
 8001c68:	200000c0 	.word	0x200000c0
 8001c6c:	200000be 	.word	0x200000be
 8001c70:	200000bc 	.word	0x200000bc
 8001c74:	200000ba 	.word	0x200000ba
 8001c78:	200000b8 	.word	0x200000b8
 8001c7c:	200000b4 	.word	0x200000b4
 8001c80:	200000b0 	.word	0x200000b0
 8001c84:	50000800 	.word	0x50000800

08001c88 <frame_count_check>:
void frame_count_check(){
 8001c88:	b573      	push	{r0, r1, r4, r5, r6, lr}
	if(frameCount > 0) // If at least one frame is available in the queue
 8001c8a:	4c13      	ldr	r4, [pc, #76]	@ (8001cd8 <frame_count_check+0x50>)
 8001c8c:	7823      	ldrb	r3, [r4, #0]
 8001c8e:	2b00      	cmp	r3, #0
 8001c90:	d020      	beq.n	8001cd4 <frame_count_check+0x4c>
			  if(frame_buf_overflow_flag) {
 8001c92:	4b12      	ldr	r3, [pc, #72]	@ (8001cdc <frame_count_check+0x54>)
 8001c94:	781b      	ldrb	r3, [r3, #0]
 8001c96:	2b00      	cmp	r3, #0
 8001c98:	d009      	beq.n	8001cae <frame_count_check+0x26>
			  	      		  uint8_t err = frame_buffer_overflow;
 8001c9a:	466b      	mov	r3, sp
 8001c9c:	1dda      	adds	r2, r3, #7
 8001c9e:	230c      	movs	r3, #12
 8001ca0:	7013      	strb	r3, [r2, #0]
			  	      	  	  sendResponse(seq, NACK, &err, 1);
 8001ca2:	4b0f      	ldr	r3, [pc, #60]	@ (8001ce0 <frame_count_check+0x58>)
 8001ca4:	2106      	movs	r1, #6
 8001ca6:	7818      	ldrb	r0, [r3, #0]
 8001ca8:	2301      	movs	r3, #1
 8001caa:	f7ff fdd1 	bl	8001850 <sendResponse>
			  uint8_t index = frameTail;  				// Get index of the next frame to process
 8001cae:	4e0d      	ldr	r6, [pc, #52]	@ (8001ce4 <frame_count_check+0x5c>)
		      frameTail = (frameTail + 1) % MAX_FRAMES; // Advance tail pointer to next frame (circular buffer wrap-around)
 8001cb0:	2114      	movs	r1, #20
			  uint8_t index = frameTail;  				// Get index of the next frame to process
 8001cb2:	7835      	ldrb	r5, [r6, #0]
		      frameTail = (frameTail + 1) % MAX_FRAMES; // Advance tail pointer to next frame (circular buffer wrap-around)
 8001cb4:	1c68      	adds	r0, r5, #1
 8001cb6:	f7fe fbc7 	bl	8000448 <__aeabi_idivmod>
		      	      frameCount--;						// Decrement the number of pending frames
 8001cba:	7823      	ldrb	r3, [r4, #0]
		      processFrame((uint8_t *)frameQueue[index].data, frameQueue[index].len);	// Process the frame data at the retrieved index
 8001cbc:	480a      	ldr	r0, [pc, #40]	@ (8001ce8 <frame_count_check+0x60>)
		      	      frameCount--;						// Decrement the number of pending frames
 8001cbe:	3b01      	subs	r3, #1
 8001cc0:	7023      	strb	r3, [r4, #0]
		      processFrame((uint8_t *)frameQueue[index].data, frameQueue[index].len);	// Process the frame data at the retrieved index
 8001cc2:	2341      	movs	r3, #65	@ 0x41
 8001cc4:	436b      	muls	r3, r5
 8001cc6:	18c0      	adds	r0, r0, r3
 8001cc8:	0003      	movs	r3, r0
 8001cca:	3340      	adds	r3, #64	@ 0x40
		      frameTail = (frameTail + 1) % MAX_FRAMES; // Advance tail pointer to next frame (circular buffer wrap-around)
 8001ccc:	7031      	strb	r1, [r6, #0]
		      processFrame((uint8_t *)frameQueue[index].data, frameQueue[index].len);	// Process the frame data at the retrieved index
 8001cce:	7819      	ldrb	r1, [r3, #0]
 8001cd0:	f7ff fe64 	bl	800199c <processFrame>
}
 8001cd4:	bd73      	pop	{r0, r1, r4, r5, r6, pc}
 8001cd6:	46c0      	nop			@ (mov r8, r8)
 8001cd8:	200000c3 	.word	0x200000c3
 8001cdc:	200000b2 	.word	0x200000b2
 8001ce0:	200000c2 	.word	0x200000c2
 8001ce4:	200000c4 	.word	0x200000c4
 8001ce8:	200000c6 	.word	0x200000c6

08001cec <Flash_Init>:
#include "flash.h"



void Flash_Init(void)
{
 8001cec:	b510      	push	{r4, lr}
    HAL_FLASH_Unlock();
 8001cee:	f001 fc3d 	bl	800356c <HAL_FLASH_Unlock>
    HAL_FLASH_Lock();
 8001cf2:	f001 fcb9 	bl	8003668 <HAL_FLASH_Lock>
}
 8001cf6:	bd10      	pop	{r4, pc}

08001cf8 <Flash_ErasePage>:

void Flash_ErasePage(uint32_t address)
{
 8001cf8:	b57f      	push	{r0, r1, r2, r3, r4, r5, r6, lr}
    FLASH_EraseInitTypeDef erase;
    uint32_t PageError = 0;
 8001cfa:	2300      	movs	r3, #0
 8001cfc:	9301      	str	r3, [sp, #4]

    erase.TypeErase = FLASH_TYPEERASE_PAGES;
 8001cfe:	3302      	adds	r3, #2
 8001d00:	9302      	str	r3, [sp, #8]
    erase.Page = (address - FLASH_BASE) / FLASH_PAGE_SIZE;
 8001d02:	23f8      	movs	r3, #248	@ 0xf8
 8001d04:	061b      	lsls	r3, r3, #24
 8001d06:	18c0      	adds	r0, r0, r3
    erase.NbPages = 1;
 8001d08:	2301      	movs	r3, #1
    erase.Page = (address - FLASH_BASE) / FLASH_PAGE_SIZE;
 8001d0a:	0ac0      	lsrs	r0, r0, #11
 8001d0c:	9004      	str	r0, [sp, #16]

    HAL_FLASHEx_Erase(&erase, &PageError);
 8001d0e:	a901      	add	r1, sp, #4
 8001d10:	a802      	add	r0, sp, #8
    erase.NbPages = 1;
 8001d12:	9305      	str	r3, [sp, #20]
    HAL_FLASHEx_Erase(&erase, &PageError);
 8001d14:	f001 fcca 	bl	80036ac <HAL_FLASHEx_Erase>
}
 8001d18:	b007      	add	sp, #28
 8001d1a:	bd00      	pop	{pc}

08001d1c <Flash_WriteFlag>:


void Flash_WriteFlag(bool flag)
{
 8001d1c:	b570      	push	{r4, r5, r6, lr}
 8001d1e:	0004      	movs	r4, r0
    HAL_FLASH_Unlock();

    // just erase the page — no return check
    Flash_ErasePage(FLAG_FLASH_ADDR);
 8001d20:	4d07      	ldr	r5, [pc, #28]	@ (8001d40 <Flash_WriteFlag+0x24>)
    HAL_FLASH_Unlock();
 8001d22:	f001 fc23 	bl	800356c <HAL_FLASH_Unlock>
    Flash_ErasePage(FLAG_FLASH_ADDR);
 8001d26:	0028      	movs	r0, r5
 8001d28:	f7ff ffe6 	bl	8001cf8 <Flash_ErasePage>

    uint64_t data64 = flag ? 1 : 0;
    HAL_FLASH_Program(FLASH_TYPEPROGRAM_DOUBLEWORD, FLAG_FLASH_ADDR, data64);
 8001d2c:	0029      	movs	r1, r5
 8001d2e:	0022      	movs	r2, r4
 8001d30:	2300      	movs	r3, #0
 8001d32:	2001      	movs	r0, #1
 8001d34:	f001 fc64 	bl	8003600 <HAL_FLASH_Program>

    HAL_FLASH_Lock();
 8001d38:	f001 fc96 	bl	8003668 <HAL_FLASH_Lock>
}
 8001d3c:	bd70      	pop	{r4, r5, r6, pc}
 8001d3e:	46c0      	nop			@ (mov r8, r8)
 8001d40:	08007800 	.word	0x08007800

08001d44 <Flash_ReadFlag>:


bool Flash_ReadFlag()
{
    uint8_t flag = *(uint8_t *)FLAG_FLASH_ADDR;
 8001d44:	4b03      	ldr	r3, [pc, #12]	@ (8001d54 <Flash_ReadFlag+0x10>)
    return (flag == 1);  // return true if 1, false otherwise
 8001d46:	7818      	ldrb	r0, [r3, #0]
 8001d48:	3801      	subs	r0, #1
 8001d4a:	4243      	negs	r3, r0
 8001d4c:	4158      	adcs	r0, r3
 8001d4e:	b2c0      	uxtb	r0, r0
}
 8001d50:	4770      	bx	lr
 8001d52:	46c0      	nop			@ (mov r8, r8)
 8001d54:	08007800 	.word	0x08007800

08001d58 <SystemClock_Config>:
/**
  * @brief System Clock Configuration
  * @retval None
  */
void SystemClock_Config(void)
{
 8001d58:	b500      	push	{lr}
 8001d5a:	b093      	sub	sp, #76	@ 0x4c
  RCC_OscInitTypeDef RCC_OscInitStruct = {0};
 8001d5c:	2238      	movs	r2, #56	@ 0x38
 8001d5e:	2100      	movs	r1, #0
 8001d60:	a804      	add	r0, sp, #16
 8001d62:	f003 ff7f 	bl	8005c64 <memset>
  RCC_ClkInitTypeDef RCC_ClkInitStruct = {0};
 8001d66:	2100      	movs	r1, #0
 8001d68:	2210      	movs	r2, #16
 8001d6a:	4668      	mov	r0, sp
 8001d6c:	f003 ff7a 	bl	8005c64 <memset>

  /** Configure the main internal regulator output voltage
  */
  HAL_PWREx_ControlVoltageScaling(PWR_REGULATOR_VOLTAGE_SCALE1);
 8001d70:	2080      	movs	r0, #128	@ 0x80
 8001d72:	0080      	lsls	r0, r0, #2
 8001d74:	f001 fe4a 	bl	8003a0c <HAL_PWREx_ControlVoltageScaling>

  /** Initializes the RCC Oscillators according to the specified parameters
  * in the RCC_OscInitTypeDef structure.
  */
  RCC_OscInitStruct.OscillatorType = RCC_OSCILLATORTYPE_HSI;
 8001d78:	2302      	movs	r3, #2
 8001d7a:	9304      	str	r3, [sp, #16]
  RCC_OscInitStruct.HSIState = RCC_HSI_ON;
 8001d7c:	33fe      	adds	r3, #254	@ 0xfe
  RCC_OscInitStruct.HSIDiv = RCC_HSI_DIV1;
  RCC_OscInitStruct.HSICalibrationValue = RCC_HSICALIBRATION_DEFAULT;
 8001d7e:	2240      	movs	r2, #64	@ 0x40
  RCC_OscInitStruct.HSIState = RCC_HSI_ON;
 8001d80:	9307      	str	r3, [sp, #28]
  RCC_OscInitStruct.HSIDiv = RCC_HSI_DIV1;
 8001d82:	2300      	movs	r3, #0
  RCC_OscInitStruct.PLL.PLLState = RCC_PLL_NONE;
  if (HAL_RCC_OscConfig(&RCC_OscInitStruct) != HAL_OK)
 8001d84:	a804      	add	r0, sp, #16
  RCC_OscInitStruct.HSIDiv = RCC_HSI_DIV1;
 8001d86:	9308      	str	r3, [sp, #32]
  RCC_OscInitStruct.HSICalibrationValue = RCC_HSICALIBRATION_DEFAULT;
 8001d88:	9209      	str	r2, [sp, #36]	@ 0x24
  RCC_OscInitStruct.PLL.PLLState = RCC_PLL_NONE;
 8001d8a:	930b      	str	r3, [sp, #44]	@ 0x2c
  if (HAL_RCC_OscConfig(&RCC_OscInitStruct) != HAL_OK)
 8001d8c:	f001 fe6a 	bl	8003a64 <HAL_RCC_OscConfig>
 8001d90:	1e01      	subs	r1, r0, #0
 8001d92:	d001      	beq.n	8001d98 <SystemClock_Config+0x40>
  __ASM volatile ("cpsid i" : : : "memory");
 8001d94:	b672      	cpsid	i
void Error_Handler(void)
{
  /* USER CODE BEGIN Error_Handler_Debug */
  /* User can add his own implementation to report the HAL error return state */
  __disable_irq();
  while (1)
 8001d96:	e7fe      	b.n	8001d96 <SystemClock_Config+0x3e>
  RCC_ClkInitStruct.ClockType = RCC_CLOCKTYPE_HCLK|RCC_CLOCKTYPE_SYSCLK
 8001d98:	2307      	movs	r3, #7
  RCC_ClkInitStruct.SYSCLKSource = RCC_SYSCLKSOURCE_HSI;
 8001d9a:	9001      	str	r0, [sp, #4]
  RCC_ClkInitStruct.AHBCLKDivider = RCC_SYSCLK_DIV1;
 8001d9c:	9002      	str	r0, [sp, #8]
  RCC_ClkInitStruct.APB1CLKDivider = RCC_HCLK_DIV1;
 8001d9e:	9003      	str	r0, [sp, #12]
  if (HAL_RCC_ClockConfig(&RCC_ClkInitStruct, FLASH_LATENCY_0) != HAL_OK)
 8001da0:	4668      	mov	r0, sp
  RCC_ClkInitStruct.ClockType = RCC_CLOCKTYPE_HCLK|RCC_CLOCKTYPE_SYSCLK
 8001da2:	9300      	str	r3, [sp, #0]
  if (HAL_RCC_ClockConfig(&RCC_ClkInitStruct, FLASH_LATENCY_0) != HAL_OK)
 8001da4:	f002 f8c6 	bl	8003f34 <HAL_RCC_ClockConfig>
 8001da8:	2800      	cmp	r0, #0
 8001daa:	d001      	beq.n	8001db0 <SystemClock_Config+0x58>
 8001dac:	b672      	cpsid	i
  while (1)
 8001dae:	e7fe      	b.n	8001dae <SystemClock_Config+0x56>
}
 8001db0:	b013      	add	sp, #76	@ 0x4c
 8001db2:	bd00      	pop	{pc}

08001db4 <main>:
{
 8001db4:	b5f0      	push	{r4, r5, r6, r7, lr}
  __HAL_RCC_GPIOC_CLK_ENABLE();
 8001db6:	2604      	movs	r6, #4
  __HAL_RCC_GPIOA_CLK_ENABLE();
 8001db8:	2501      	movs	r5, #1
{
 8001dba:	b09f      	sub	sp, #124	@ 0x7c
  HAL_Init();
 8001dbc:	f000 ff26 	bl	8002c0c <HAL_Init>
  Flash_Init();
 8001dc0:	f7ff ff94 	bl	8001cec <Flash_Init>
  SystemClock_Config();
 8001dc4:	f7ff ffc8 	bl	8001d58 <SystemClock_Config>
  GPIO_InitTypeDef GPIO_InitStruct = {0};
 8001dc8:	2214      	movs	r2, #20
 8001dca:	2100      	movs	r1, #0
 8001dcc:	a811      	add	r0, sp, #68	@ 0x44
 8001dce:	f003 ff49 	bl	8005c64 <memset>
  __HAL_RCC_GPIOB_CLK_ENABLE();
 8001dd2:	2102      	movs	r1, #2
  HAL_GPIO_WritePin(PWR_CTRL_GPIO_Port, PWR_CTRL_Pin, GPIO_PIN_RESET);
 8001dd4:	2480      	movs	r4, #128	@ 0x80
  __HAL_RCC_GPIOC_CLK_ENABLE();
 8001dd6:	4bcb      	ldr	r3, [pc, #812]	@ (8002104 <main+0x350>)
  HAL_GPIO_WritePin(PWR_CTRL_GPIO_Port, PWR_CTRL_Pin, GPIO_PIN_RESET);
 8001dd8:	01e4      	lsls	r4, r4, #7
  __HAL_RCC_GPIOC_CLK_ENABLE();
 8001dda:	6b5a      	ldr	r2, [r3, #52]	@ 0x34
  HAL_GPIO_WritePin(PWR_CTRL_GPIO_Port, PWR_CTRL_Pin, GPIO_PIN_RESET);
 8001ddc:	48ca      	ldr	r0, [pc, #808]	@ (8002108 <main+0x354>)
  __HAL_RCC_GPIOC_CLK_ENABLE();
 8001dde:	4332      	orrs	r2, r6
 8001de0:	635a      	str	r2, [r3, #52]	@ 0x34
 8001de2:	6b5a      	ldr	r2, [r3, #52]	@ 0x34
  HAL_GPIO_WritePin(POWER_CTRL_REG_GPIO_Port, POWER_CTRL_REG_Pin, GPIO_PIN_RESET);
 8001de4:	2780      	movs	r7, #128	@ 0x80
  __HAL_RCC_GPIOC_CLK_ENABLE();
 8001de6:	4032      	ands	r2, r6
 8001de8:	9200      	str	r2, [sp, #0]
 8001dea:	9a00      	ldr	r2, [sp, #0]
  __HAL_RCC_GPIOA_CLK_ENABLE();
 8001dec:	6b5a      	ldr	r2, [r3, #52]	@ 0x34
  HAL_GPIO_WritePin(POWER_CTRL_REG_GPIO_Port, POWER_CTRL_REG_Pin, GPIO_PIN_RESET);
 8001dee:	023f      	lsls	r7, r7, #8
  __HAL_RCC_GPIOA_CLK_ENABLE();
 8001df0:	432a      	orrs	r2, r5
 8001df2:	635a      	str	r2, [r3, #52]	@ 0x34
 8001df4:	6b5a      	ldr	r2, [r3, #52]	@ 0x34
 8001df6:	402a      	ands	r2, r5
 8001df8:	9201      	str	r2, [sp, #4]
 8001dfa:	9a01      	ldr	r2, [sp, #4]
  __HAL_RCC_GPIOB_CLK_ENABLE();
 8001dfc:	6b5a      	ldr	r2, [r3, #52]	@ 0x34
 8001dfe:	430a      	orrs	r2, r1
 8001e00:	635a      	str	r2, [r3, #52]	@ 0x34
 8001e02:	6b5b      	ldr	r3, [r3, #52]	@ 0x34
  HAL_GPIO_WritePin(PWR_CTRL_GPIO_Port, PWR_CTRL_Pin, GPIO_PIN_RESET);
 8001e04:	2200      	movs	r2, #0
  __HAL_RCC_GPIOB_CLK_ENABLE();
 8001e06:	400b      	ands	r3, r1
 8001e08:	9302      	str	r3, [sp, #8]
  HAL_GPIO_WritePin(PWR_CTRL_GPIO_Port, PWR_CTRL_Pin, GPIO_PIN_RESET);
 8001e0a:	0021      	movs	r1, r4
  __HAL_RCC_GPIOB_CLK_ENABLE();
 8001e0c:	9b02      	ldr	r3, [sp, #8]
  HAL_GPIO_WritePin(PWR_CTRL_GPIO_Port, PWR_CTRL_Pin, GPIO_PIN_RESET);
 8001e0e:	f001 fd4f 	bl	80038b0 <HAL_GPIO_WritePin>
  HAL_GPIO_WritePin(GPIOA, led_G_Pin|led_B_Pin|BT_RST_Pin, GPIO_PIN_SET);
 8001e12:	20a0      	movs	r0, #160	@ 0xa0
 8001e14:	002a      	movs	r2, r5
 8001e16:	2123      	movs	r1, #35	@ 0x23
 8001e18:	05c0      	lsls	r0, r0, #23
 8001e1a:	f001 fd49 	bl	80038b0 <HAL_GPIO_WritePin>
  HAL_GPIO_WritePin(GPIOB, GPIO_PIN_0|led_R_Pin, GPIO_PIN_SET);
 8001e1e:	2102      	movs	r1, #2
 8001e20:	002a      	movs	r2, r5
 8001e22:	48ba      	ldr	r0, [pc, #744]	@ (800210c <main+0x358>)
 8001e24:	31ff      	adds	r1, #255	@ 0xff
 8001e26:	f001 fd43 	bl	80038b0 <HAL_GPIO_WritePin>
  HAL_GPIO_WritePin(POWER_CTRL_REG_GPIO_Port, POWER_CTRL_REG_Pin, GPIO_PIN_RESET);
 8001e2a:	20a0      	movs	r0, #160	@ 0xa0
 8001e2c:	2200      	movs	r2, #0
 8001e2e:	0039      	movs	r1, r7
 8001e30:	05c0      	lsls	r0, r0, #23
 8001e32:	f001 fd3d 	bl	80038b0 <HAL_GPIO_WritePin>
  GPIO_InitStruct.Pin = PWR_CTRL_Pin;
 8001e36:	9411      	str	r4, [sp, #68]	@ 0x44
  GPIO_InitStruct.Pull = GPIO_NOPULL;
 8001e38:	2400      	movs	r4, #0
  HAL_GPIO_Init(PWR_CTRL_GPIO_Port, &GPIO_InitStruct);
 8001e3a:	48b3      	ldr	r0, [pc, #716]	@ (8002108 <main+0x354>)
 8001e3c:	a911      	add	r1, sp, #68	@ 0x44
  GPIO_InitStruct.Mode = GPIO_MODE_OUTPUT_PP;
 8001e3e:	9512      	str	r5, [sp, #72]	@ 0x48
  GPIO_InitStruct.Pull = GPIO_NOPULL;
 8001e40:	9413      	str	r4, [sp, #76]	@ 0x4c
  GPIO_InitStruct.Speed = GPIO_SPEED_FREQ_LOW;
 8001e42:	9414      	str	r4, [sp, #80]	@ 0x50
  HAL_GPIO_Init(PWR_CTRL_GPIO_Port, &GPIO_InitStruct);
 8001e44:	f001 fc7c 	bl	8003740 <HAL_GPIO_Init>
  HAL_GPIO_Init(TOUCH_RD_GPIO_Port, &GPIO_InitStruct);
 8001e48:	48af      	ldr	r0, [pc, #700]	@ (8002108 <main+0x354>)
 8001e4a:	a911      	add	r1, sp, #68	@ 0x44
  GPIO_InitStruct.Pin = TOUCH_RD_Pin;
 8001e4c:	9711      	str	r7, [sp, #68]	@ 0x44
  GPIO_InitStruct.Mode = GPIO_MODE_INPUT;
 8001e4e:	9412      	str	r4, [sp, #72]	@ 0x48
  GPIO_InitStruct.Pull = GPIO_NOPULL;
 8001e50:	9413      	str	r4, [sp, #76]	@ 0x4c
  HAL_GPIO_Init(TOUCH_RD_GPIO_Port, &GPIO_InitStruct);
 8001e52:	f001 fc75 	bl	8003740 <HAL_GPIO_Init>
  HAL_GPIO_Init(GPIOA, &GPIO_InitStruct);
 8001e56:	20a0      	movs	r0, #160	@ 0xa0
  GPIO_InitStruct.Pin = led_G_Pin|led_B_Pin|BT_RST_Pin|POWER_CTRL_REG_Pin;
 8001e58:	4bad      	ldr	r3, [pc, #692]	@ (8002110 <main+0x35c>)
  HAL_GPIO_Init(GPIOA, &GPIO_InitStruct);
 8001e5a:	a911      	add	r1, sp, #68	@ 0x44
 8001e5c:	05c0      	lsls	r0, r0, #23
  GPIO_InitStruct.Pin = led_G_Pin|led_B_Pin|BT_RST_Pin|POWER_CTRL_REG_Pin;
 8001e5e:	9311      	str	r3, [sp, #68]	@ 0x44
  GPIO_InitStruct.Mode = GPIO_MODE_OUTPUT_PP;
 8001e60:	9512      	str	r5, [sp, #72]	@ 0x48
  GPIO_InitStruct.Pull = GPIO_NOPULL;
 8001e62:	9413      	str	r4, [sp, #76]	@ 0x4c
  GPIO_InitStruct.Speed = GPIO_SPEED_FREQ_LOW;
 8001e64:	9414      	str	r4, [sp, #80]	@ 0x50
  HAL_GPIO_Init(GPIOA, &GPIO_InitStruct);
 8001e66:	f001 fc6b 	bl	8003740 <HAL_GPIO_Init>
  GPIO_InitStruct.Pin = GPIO_PIN_0|led_R_Pin;
 8001e6a:	2302      	movs	r3, #2
  HAL_GPIO_Init(GPIOB, &GPIO_InitStruct);
 8001e6c:	48a7      	ldr	r0, [pc, #668]	@ (800210c <main+0x358>)
  GPIO_InitStruct.Pin = GPIO_PIN_0|led_R_Pin;
 8001e6e:	33ff      	adds	r3, #255	@ 0xff
  HAL_GPIO_Init(GPIOB, &GPIO_InitStruct);
 8001e70:	a911      	add	r1, sp, #68	@ 0x44
  GPIO_InitStruct.Pin = GPIO_PIN_0|led_R_Pin;
 8001e72:	9311      	str	r3, [sp, #68]	@ 0x44
  GPIO_InitStruct.Mode = GPIO_MODE_OUTPUT_PP;
 8001e74:	9512      	str	r5, [sp, #72]	@ 0x48
  GPIO_InitStruct.Pull = GPIO_NOPULL;
 8001e76:	9413      	str	r4, [sp, #76]	@ 0x4c
  GPIO_InitStruct.Speed = GPIO_SPEED_FREQ_LOW;
 8001e78:	9414      	str	r4, [sp, #80]	@ 0x50
  HAL_GPIO_Init(GPIOB, &GPIO_InitStruct);
 8001e7a:	f001 fc61 	bl	8003740 <HAL_GPIO_Init>
  GPIO_InitStruct.Pin = BAT_FULL_Pin|BAT_CHG_Pin;
 8001e7e:	2330      	movs	r3, #48	@ 0x30
  HAL_GPIO_Init(GPIOB, &GPIO_InitStruct);
 8001e80:	48a2      	ldr	r0, [pc, #648]	@ (800210c <main+0x358>)
 8001e82:	a911      	add	r1, sp, #68	@ 0x44
  GPIO_InitStruct.Pin = BAT_FULL_Pin|BAT_CHG_Pin;
 8001e84:	9311      	str	r3, [sp, #68]	@ 0x44
  GPIO_InitStruct.Mode = GPIO_MODE_INPUT;
 8001e86:	9412      	str	r4, [sp, #72]	@ 0x48
  GPIO_InitStruct.Pull = GPIO_NOPULL;
 8001e88:	9413      	str	r4, [sp, #76]	@ 0x4c
  HAL_GPIO_Init(GPIOB, &GPIO_InitStruct);
 8001e8a:	f001 fc59 	bl	8003740 <HAL_GPIO_Init>
  ADC_ChannelConfTypeDef sConfig = {0};
 8001e8e:	220c      	movs	r2, #12
 8001e90:	0021      	movs	r1, r4
 8001e92:	a811      	add	r0, sp, #68	@ 0x44
 8001e94:	f003 fee6 	bl	8005c64 <memset>
  hadc1.Instance = ADC1;
 8001e98:	4f9e      	ldr	r7, [pc, #632]	@ (8002114 <main+0x360>)
 8001e9a:	4b9f      	ldr	r3, [pc, #636]	@ (8002118 <main+0x364>)
  if (HAL_ADC_Init(&hadc1) != HAL_OK)
 8001e9c:	0038      	movs	r0, r7
  hadc1.Instance = ADC1;
 8001e9e:	603b      	str	r3, [r7, #0]
  hadc1.Init.ClockPrescaler = ADC_CLOCK_SYNC_PCLK_DIV2;
 8001ea0:	2380      	movs	r3, #128	@ 0x80
 8001ea2:	05db      	lsls	r3, r3, #23
 8001ea4:	607b      	str	r3, [r7, #4]
  hadc1.Init.DiscontinuousConvMode = DISABLE;
 8001ea6:	197b      	adds	r3, r7, r5
 8001ea8:	77dc      	strb	r4, [r3, #31]
  hadc1.Init.DMAContinuousRequests = DISABLE;
 8001eaa:	003b      	movs	r3, r7
 8001eac:	332c      	adds	r3, #44	@ 0x2c
 8001eae:	701c      	strb	r4, [r3, #0]
  hadc1.Init.OversamplingMode = DISABLE;
 8001eb0:	003b      	movs	r3, r7
 8001eb2:	333c      	adds	r3, #60	@ 0x3c
  hadc1.Init.Resolution = ADC_RESOLUTION_12B;
 8001eb4:	60bc      	str	r4, [r7, #8]
  hadc1.Init.DataAlign = ADC_DATAALIGN_RIGHT;
 8001eb6:	60fc      	str	r4, [r7, #12]
  hadc1.Init.ScanConvMode = ADC_SCAN_DISABLE;
 8001eb8:	613c      	str	r4, [r7, #16]
  hadc1.Init.EOCSelection = ADC_EOC_SINGLE_CONV;
 8001eba:	617e      	str	r6, [r7, #20]
  hadc1.Init.LowPowerAutoWait = DISABLE;
 8001ebc:	833c      	strh	r4, [r7, #24]
  hadc1.Init.ContinuousConvMode = DISABLE;
 8001ebe:	76bc      	strb	r4, [r7, #26]
  hadc1.Init.NbrOfConversion = 1;
 8001ec0:	61fd      	str	r5, [r7, #28]
  hadc1.Init.ExternalTrigConv = ADC_SOFTWARE_START;
 8001ec2:	627c      	str	r4, [r7, #36]	@ 0x24
  hadc1.Init.ExternalTrigConvEdge = ADC_EXTERNALTRIGCONVEDGE_NONE;
 8001ec4:	62bc      	str	r4, [r7, #40]	@ 0x28
  hadc1.Init.Overrun = ADC_OVR_DATA_PRESERVED;
 8001ec6:	633c      	str	r4, [r7, #48]	@ 0x30
  hadc1.Init.SamplingTimeCommon1 = ADC_SAMPLETIME_1CYCLE_5;
 8001ec8:	637c      	str	r4, [r7, #52]	@ 0x34
  hadc1.Init.SamplingTimeCommon2 = ADC_SAMPLETIME_1CYCLE_5;
 8001eca:	63bc      	str	r4, [r7, #56]	@ 0x38
  hadc1.Init.OversamplingMode = DISABLE;
 8001ecc:	701c      	strb	r4, [r3, #0]
  hadc1.Init.TriggerFrequencyMode = ADC_TRIGGER_FREQ_HIGH;
 8001ece:	64fc      	str	r4, [r7, #76]	@ 0x4c
  if (HAL_ADC_Init(&hadc1) != HAL_OK)
 8001ed0:	f000 fed8 	bl	8002c84 <HAL_ADC_Init>
 8001ed4:	42a0      	cmp	r0, r4
 8001ed6:	d001      	beq.n	8001edc <main+0x128>
 8001ed8:	b672      	cpsid	i
  while (1)
 8001eda:	e7fe      	b.n	8001eda <main+0x126>
  sConfig.Channel = ADC_CHANNEL_6;
 8001edc:	4b8f      	ldr	r3, [pc, #572]	@ (800211c <main+0x368>)
  sConfig.Rank = ADC_REGULAR_RANK_1;
 8001ede:	9012      	str	r0, [sp, #72]	@ 0x48
  sConfig.SamplingTime = ADC_SAMPLINGTIME_COMMON_1;
 8001ee0:	9013      	str	r0, [sp, #76]	@ 0x4c
  if (HAL_ADC_ConfigChannel(&hadc1, &sConfig) != HAL_OK)
 8001ee2:	a911      	add	r1, sp, #68	@ 0x44
 8001ee4:	0038      	movs	r0, r7
  sConfig.Channel = ADC_CHANNEL_6;
 8001ee6:	9311      	str	r3, [sp, #68]	@ 0x44
  if (HAL_ADC_ConfigChannel(&hadc1, &sConfig) != HAL_OK)
 8001ee8:	f001 f844 	bl	8002f74 <HAL_ADC_ConfigChannel>
 8001eec:	1e05      	subs	r5, r0, #0
 8001eee:	d001      	beq.n	8001ef4 <main+0x140>
 8001ef0:	b672      	cpsid	i
  while (1)
 8001ef2:	e7fe      	b.n	8001ef2 <main+0x13e>
  TIM_ClockConfigTypeDef sClockSourceConfig = {0};
 8001ef4:	0001      	movs	r1, r0
 8001ef6:	2210      	movs	r2, #16
 8001ef8:	a806      	add	r0, sp, #24
 8001efa:	f003 feb3 	bl	8005c64 <memset>
  TIM_MasterConfigTypeDef sMasterConfig = {0};
 8001efe:	220c      	movs	r2, #12
 8001f00:	0029      	movs	r1, r5
 8001f02:	a803      	add	r0, sp, #12
 8001f04:	f003 feae 	bl	8005c64 <memset>
  TIM_OC_InitTypeDef sConfigOC = {0};
 8001f08:	221c      	movs	r2, #28
 8001f0a:	0029      	movs	r1, r5
 8001f0c:	a80a      	add	r0, sp, #40	@ 0x28
 8001f0e:	f003 fea9 	bl	8005c64 <memset>
  TIM_BreakDeadTimeConfigTypeDef sBreakDeadTimeConfig = {0};
 8001f12:	2234      	movs	r2, #52	@ 0x34
 8001f14:	0029      	movs	r1, r5
 8001f16:	a811      	add	r0, sp, #68	@ 0x44
 8001f18:	f003 fea4 	bl	8005c64 <memset>
  htim1.Instance = TIM1;
 8001f1c:	4c80      	ldr	r4, [pc, #512]	@ (8002120 <main+0x36c>)
 8001f1e:	4b81      	ldr	r3, [pc, #516]	@ (8002124 <main+0x370>)
  if (HAL_TIM_Base_Init(&htim1) != HAL_OK)
 8001f20:	0020      	movs	r0, r4
  htim1.Instance = TIM1;
 8001f22:	6023      	str	r3, [r4, #0]
  htim1.Init.Prescaler = 15;
 8001f24:	230f      	movs	r3, #15
 8001f26:	6063      	str	r3, [r4, #4]
  htim1.Init.Period = 99;
 8001f28:	3354      	adds	r3, #84	@ 0x54
  htim1.Init.CounterMode = TIM_COUNTERMODE_UP;
 8001f2a:	60a5      	str	r5, [r4, #8]
  htim1.Init.Period = 99;
 8001f2c:	60e3      	str	r3, [r4, #12]
  htim1.Init.ClockDivision = TIM_CLOCKDIVISION_DIV1;
 8001f2e:	6125      	str	r5, [r4, #16]
  htim1.Init.RepetitionCounter = 0;
 8001f30:	6165      	str	r5, [r4, #20]
  htim1.Init.AutoReloadPreload = TIM_AUTORELOAD_PRELOAD_DISABLE;
 8001f32:	61a5      	str	r5, [r4, #24]
  if (HAL_TIM_Base_Init(&htim1) != HAL_OK)
 8001f34:	f002 faf2 	bl	800451c <HAL_TIM_Base_Init>
 8001f38:	2800      	cmp	r0, #0
 8001f3a:	d001      	beq.n	8001f40 <main+0x18c>
 8001f3c:	b672      	cpsid	i
  while (1)
 8001f3e:	e7fe      	b.n	8001f3e <main+0x18a>
  sClockSourceConfig.ClockSource = TIM_CLOCKSOURCE_INTERNAL;
 8001f40:	2380      	movs	r3, #128	@ 0x80
  if (HAL_TIM_ConfigClockSource(&htim1, &sClockSourceConfig) != HAL_OK)
 8001f42:	0020      	movs	r0, r4
  sClockSourceConfig.ClockSource = TIM_CLOCKSOURCE_INTERNAL;
 8001f44:	015b      	lsls	r3, r3, #5
  if (HAL_TIM_ConfigClockSource(&htim1, &sClockSourceConfig) != HAL_OK)
 8001f46:	a906      	add	r1, sp, #24
  sClockSourceConfig.ClockSource = TIM_CLOCKSOURCE_INTERNAL;
 8001f48:	9306      	str	r3, [sp, #24]
  if (HAL_TIM_ConfigClockSource(&htim1, &sClockSourceConfig) != HAL_OK)
 8001f4a:	f002 fc09 	bl	8004760 <HAL_TIM_ConfigClockSource>
 8001f4e:	2800      	cmp	r0, #0
 8001f50:	d001      	beq.n	8001f56 <main+0x1a2>
 8001f52:	b672      	cpsid	i
  while (1)
 8001f54:	e7fe      	b.n	8001f54 <main+0x1a0>
  if (HAL_TIM_PWM_Init(&htim1) != HAL_OK)
 8001f56:	0020      	movs	r0, r4
 8001f58:	f002 fb0a 	bl	8004570 <HAL_TIM_PWM_Init>
 8001f5c:	2800      	cmp	r0, #0
 8001f5e:	d001      	beq.n	8001f64 <main+0x1b0>
 8001f60:	b672      	cpsid	i
  while (1)
 8001f62:	e7fe      	b.n	8001f62 <main+0x1ae>
  sMasterConfig.MasterOutputTrigger = TIM_TRGO_RESET;
 8001f64:	9003      	str	r0, [sp, #12]
  sMasterConfig.MasterOutputTrigger2 = TIM_TRGO2_RESET;
 8001f66:	9004      	str	r0, [sp, #16]
  sMasterConfig.MasterSlaveMode = TIM_MASTERSLAVEMODE_DISABLE;
 8001f68:	9005      	str	r0, [sp, #20]
  if (HAL_TIMEx_MasterConfigSynchronization(&htim1, &sMasterConfig) != HAL_OK)
 8001f6a:	a903      	add	r1, sp, #12
 8001f6c:	0020      	movs	r0, r4
 8001f6e:	f002 fd1d 	bl	80049ac <HAL_TIMEx_MasterConfigSynchronization>
 8001f72:	1e02      	subs	r2, r0, #0
 8001f74:	d001      	beq.n	8001f7a <main+0x1c6>
 8001f76:	b672      	cpsid	i
  while (1)
 8001f78:	e7fe      	b.n	8001f78 <main+0x1c4>
  sConfigOC.OCMode = TIM_OCMODE_PWM1;
 8001f7a:	2360      	movs	r3, #96	@ 0x60
  sConfigOC.Pulse = 0;
 8001f7c:	900b      	str	r0, [sp, #44]	@ 0x2c
  sConfigOC.OCPolarity = TIM_OCPOLARITY_HIGH;
 8001f7e:	900c      	str	r0, [sp, #48]	@ 0x30
  sConfigOC.OCNPolarity = TIM_OCNPOLARITY_HIGH;
 8001f80:	900d      	str	r0, [sp, #52]	@ 0x34
  sConfigOC.OCFastMode = TIM_OCFAST_DISABLE;
 8001f82:	900e      	str	r0, [sp, #56]	@ 0x38
  sConfigOC.OCIdleState = TIM_OCIDLESTATE_RESET;
 8001f84:	900f      	str	r0, [sp, #60]	@ 0x3c
  sConfigOC.OCNIdleState = TIM_OCNIDLESTATE_RESET;
 8001f86:	9010      	str	r0, [sp, #64]	@ 0x40
  if (HAL_TIM_PWM_ConfigChannel(&htim1, &sConfigOC, TIM_CHANNEL_1) != HAL_OK)
 8001f88:	a90a      	add	r1, sp, #40	@ 0x28
 8001f8a:	0020      	movs	r0, r4
  sConfigOC.OCMode = TIM_OCMODE_PWM1;
 8001f8c:	930a      	str	r3, [sp, #40]	@ 0x28
  if (HAL_TIM_PWM_ConfigChannel(&htim1, &sConfigOC, TIM_CHANNEL_1) != HAL_OK)
 8001f8e:	f002 fb55 	bl	800463c <HAL_TIM_PWM_ConfigChannel>
 8001f92:	2800      	cmp	r0, #0
 8001f94:	d001      	beq.n	8001f9a <main+0x1e6>
 8001f96:	b672      	cpsid	i
  while (1)
 8001f98:	e7fe      	b.n	8001f98 <main+0x1e4>
  sBreakDeadTimeConfig.BreakPolarity = TIM_BREAKPOLARITY_HIGH;
 8001f9a:	2380      	movs	r3, #128	@ 0x80
 8001f9c:	019b      	lsls	r3, r3, #6
 8001f9e:	9316      	str	r3, [sp, #88]	@ 0x58
  sBreakDeadTimeConfig.Break2Polarity = TIM_BREAK2POLARITY_HIGH;
 8001fa0:	2380      	movs	r3, #128	@ 0x80
  sBreakDeadTimeConfig.OffStateRunMode = TIM_OSSR_DISABLE;
 8001fa2:	9011      	str	r0, [sp, #68]	@ 0x44
  sBreakDeadTimeConfig.OffStateIDLEMode = TIM_OSSI_DISABLE;
 8001fa4:	9012      	str	r0, [sp, #72]	@ 0x48
  sBreakDeadTimeConfig.LockLevel = TIM_LOCKLEVEL_OFF;
 8001fa6:	9013      	str	r0, [sp, #76]	@ 0x4c
  sBreakDeadTimeConfig.DeadTime = 0;
 8001fa8:	9014      	str	r0, [sp, #80]	@ 0x50
  sBreakDeadTimeConfig.BreakState = TIM_BREAK_DISABLE;
 8001faa:	9015      	str	r0, [sp, #84]	@ 0x54
  sBreakDeadTimeConfig.BreakFilter = 0;
 8001fac:	9017      	str	r0, [sp, #92]	@ 0x5c
  sBreakDeadTimeConfig.BreakAFMode = TIM_BREAK_AFMODE_INPUT;
 8001fae:	9018      	str	r0, [sp, #96]	@ 0x60
  sBreakDeadTimeConfig.Break2State = TIM_BREAK2_DISABLE;
 8001fb0:	9019      	str	r0, [sp, #100]	@ 0x64
  sBreakDeadTimeConfig.Break2Polarity = TIM_BREAK2POLARITY_HIGH;
 8001fb2:	049b      	lsls	r3, r3, #18
  sBreakDeadTimeConfig.Break2Filter = 0;
 8001fb4:	901b      	str	r0, [sp, #108]	@ 0x6c
  sBreakDeadTimeConfig.Break2AFMode = TIM_BREAK_AFMODE_INPUT;
 8001fb6:	901c      	str	r0, [sp, #112]	@ 0x70
  sBreakDeadTimeConfig.AutomaticOutput = TIM_AUTOMATICOUTPUT_DISABLE;
 8001fb8:	901d      	str	r0, [sp, #116]	@ 0x74
  if (HAL_TIMEx_ConfigBreakDeadTime(&htim1, &sBreakDeadTimeConfig) != HAL_OK)
 8001fba:	a911      	add	r1, sp, #68	@ 0x44
 8001fbc:	0020      	movs	r0, r4
  sBreakDeadTimeConfig.Break2Polarity = TIM_BREAK2POLARITY_HIGH;
 8001fbe:	931a      	str	r3, [sp, #104]	@ 0x68
  if (HAL_TIMEx_ConfigBreakDeadTime(&htim1, &sBreakDeadTimeConfig) != HAL_OK)
 8001fc0:	f002 fd28 	bl	8004a14 <HAL_TIMEx_ConfigBreakDeadTime>
 8001fc4:	1e06      	subs	r6, r0, #0
 8001fc6:	d001      	beq.n	8001fcc <main+0x218>
 8001fc8:	b672      	cpsid	i
  while (1)
 8001fca:	e7fe      	b.n	8001fca <main+0x216>
  HAL_TIM_MspPostInit(&htim1);
 8001fcc:	0020      	movs	r0, r4
 8001fce:	f000 fc3b 	bl	8002848 <HAL_TIM_MspPostInit>
  TIM_MasterConfigTypeDef sMasterConfig = {0};
 8001fd2:	220c      	movs	r2, #12
 8001fd4:	0031      	movs	r1, r6
 8001fd6:	a80a      	add	r0, sp, #40	@ 0x28
 8001fd8:	f003 fe44 	bl	8005c64 <memset>
  TIM_OC_InitTypeDef sConfigOC = {0};
 8001fdc:	221c      	movs	r2, #28
 8001fde:	0031      	movs	r1, r6
 8001fe0:	a811      	add	r0, sp, #68	@ 0x44
 8001fe2:	f003 fe3f 	bl	8005c64 <memset>
  htim3.Instance = TIM3;
 8001fe6:	4d50      	ldr	r5, [pc, #320]	@ (8002128 <main+0x374>)
 8001fe8:	4b50      	ldr	r3, [pc, #320]	@ (800212c <main+0x378>)
  if (HAL_TIM_PWM_Init(&htim3) != HAL_OK)
 8001fea:	0028      	movs	r0, r5
  htim3.Instance = TIM3;
 8001fec:	602b      	str	r3, [r5, #0]
  htim3.Init.Prescaler = 63;
 8001fee:	233f      	movs	r3, #63	@ 0x3f
 8001ff0:	606b      	str	r3, [r5, #4]
  htim3.Init.Period = 999;
 8001ff2:	4b4f      	ldr	r3, [pc, #316]	@ (8002130 <main+0x37c>)
  htim3.Init.CounterMode = TIM_COUNTERMODE_UP;
 8001ff4:	60ae      	str	r6, [r5, #8]
  htim3.Init.Period = 999;
 8001ff6:	60eb      	str	r3, [r5, #12]
  htim3.Init.ClockDivision = TIM_CLOCKDIVISION_DIV1;
 8001ff8:	612e      	str	r6, [r5, #16]
  htim3.Init.AutoReloadPreload = TIM_AUTORELOAD_PRELOAD_DISABLE;
 8001ffa:	61ae      	str	r6, [r5, #24]
  if (HAL_TIM_PWM_Init(&htim3) != HAL_OK)
 8001ffc:	f002 fab8 	bl	8004570 <HAL_TIM_PWM_Init>
 8002000:	2800      	cmp	r0, #0
 8002002:	d001      	beq.n	8002008 <main+0x254>
 8002004:	b672      	cpsid	i
  while (1)
 8002006:	e7fe      	b.n	8002006 <main+0x252>
  sMasterConfig.MasterOutputTrigger = TIM_TRGO_RESET;
 8002008:	900a      	str	r0, [sp, #40]	@ 0x28
  sMasterConfig.MasterSlaveMode = TIM_MASTERSLAVEMODE_DISABLE;
 800200a:	900c      	str	r0, [sp, #48]	@ 0x30
  if (HAL_TIMEx_MasterConfigSynchronization(&htim3, &sMasterConfig) != HAL_OK)
 800200c:	a90a      	add	r1, sp, #40	@ 0x28
 800200e:	0028      	movs	r0, r5
 8002010:	f002 fccc 	bl	80049ac <HAL_TIMEx_MasterConfigSynchronization>
 8002014:	2800      	cmp	r0, #0
 8002016:	d001      	beq.n	800201c <main+0x268>
 8002018:	b672      	cpsid	i
  while (1)
 800201a:	e7fe      	b.n	800201a <main+0x266>
  sConfigOC.Pulse = 0;
 800201c:	2200      	movs	r2, #0
  sConfigOC.OCMode = TIM_OCMODE_PWM1;
 800201e:	2360      	movs	r3, #96	@ 0x60
  if (HAL_TIM_PWM_ConfigChannel(&htim3, &sConfigOC, TIM_CHANNEL_1) != HAL_OK)
 8002020:	0028      	movs	r0, r5
 8002022:	a911      	add	r1, sp, #68	@ 0x44
  sConfigOC.OCMode = TIM_OCMODE_PWM1;
 8002024:	9311      	str	r3, [sp, #68]	@ 0x44
  sConfigOC.Pulse = 0;
 8002026:	9212      	str	r2, [sp, #72]	@ 0x48
  sConfigOC.OCPolarity = TIM_OCPOLARITY_HIGH;
 8002028:	9213      	str	r2, [sp, #76]	@ 0x4c
  sConfigOC.OCFastMode = TIM_OCFAST_DISABLE;
 800202a:	9215      	str	r2, [sp, #84]	@ 0x54
  if (HAL_TIM_PWM_ConfigChannel(&htim3, &sConfigOC, TIM_CHANNEL_1) != HAL_OK)
 800202c:	f002 fb06 	bl	800463c <HAL_TIM_PWM_ConfigChannel>
 8002030:	1e04      	subs	r4, r0, #0
 8002032:	d001      	beq.n	8002038 <main+0x284>
 8002034:	b672      	cpsid	i
  while (1)
 8002036:	e7fe      	b.n	8002036 <main+0x282>
  huart2.Init.BaudRate = 115200;
 8002038:	27e1      	movs	r7, #225	@ 0xe1
  huart2.Init.Mode = UART_MODE_TX_RX;
 800203a:	260c      	movs	r6, #12
  HAL_TIM_MspPostInit(&htim3);
 800203c:	0028      	movs	r0, r5
 800203e:	f000 fc03 	bl	8002848 <HAL_TIM_MspPostInit>
  huart2.Instance = USART2;
 8002042:	4d3c      	ldr	r5, [pc, #240]	@ (8002134 <main+0x380>)
 8002044:	4b3c      	ldr	r3, [pc, #240]	@ (8002138 <main+0x384>)
  huart2.Init.BaudRate = 115200;
 8002046:	027f      	lsls	r7, r7, #9
  if (HAL_UART_Init(&huart2) != HAL_OK)
 8002048:	0028      	movs	r0, r5
  huart2.Instance = USART2;
 800204a:	602b      	str	r3, [r5, #0]
  huart2.Init.BaudRate = 115200;
 800204c:	606f      	str	r7, [r5, #4]
  huart2.Init.WordLength = UART_WORDLENGTH_8B;
 800204e:	60ac      	str	r4, [r5, #8]
  huart2.Init.StopBits = UART_STOPBITS_1;
 8002050:	60ec      	str	r4, [r5, #12]
  huart2.Init.Parity = UART_PARITY_NONE;
 8002052:	612c      	str	r4, [r5, #16]
  huart2.Init.Mode = UART_MODE_TX_RX;
 8002054:	616e      	str	r6, [r5, #20]
  huart2.Init.HwFlowCtl = UART_HWCONTROL_NONE;
 8002056:	61ac      	str	r4, [r5, #24]
  huart2.Init.OverSampling = UART_OVERSAMPLING_16;
 8002058:	61ec      	str	r4, [r5, #28]
  huart2.Init.OneBitSampling = UART_ONE_BIT_SAMPLE_DISABLE;
 800205a:	622c      	str	r4, [r5, #32]
  huart2.Init.ClockPrescaler = UART_PRESCALER_DIV1;
 800205c:	626c      	str	r4, [r5, #36]	@ 0x24
  huart2.AdvancedInit.AdvFeatureInit = UART_ADVFEATURE_NO_INIT;
 800205e:	62ac      	str	r4, [r5, #40]	@ 0x28
  if (HAL_UART_Init(&huart2) != HAL_OK)
 8002060:	f003 fc3c 	bl	80058dc <HAL_UART_Init>
 8002064:	2800      	cmp	r0, #0
 8002066:	d001      	beq.n	800206c <main+0x2b8>
 8002068:	b672      	cpsid	i
  while (1)
 800206a:	e7fe      	b.n	800206a <main+0x2b6>
  hi2c2.Instance = I2C2;
 800206c:	4c33      	ldr	r4, [pc, #204]	@ (800213c <main+0x388>)
 800206e:	4b34      	ldr	r3, [pc, #208]	@ (8002140 <main+0x38c>)
  hi2c2.Init.OwnAddress1 = 0;
 8002070:	60a0      	str	r0, [r4, #8]
  hi2c2.Instance = I2C2;
 8002072:	6023      	str	r3, [r4, #0]
  hi2c2.Init.Timing = 0x00503D58;
 8002074:	4b33      	ldr	r3, [pc, #204]	@ (8002144 <main+0x390>)
  hi2c2.Init.DualAddressMode = I2C_DUALADDRESS_DISABLE;
 8002076:	6120      	str	r0, [r4, #16]
  hi2c2.Init.Timing = 0x00503D58;
 8002078:	6063      	str	r3, [r4, #4]
  hi2c2.Init.AddressingMode = I2C_ADDRESSINGMODE_7BIT;
 800207a:	2301      	movs	r3, #1
  hi2c2.Init.OwnAddress2 = 0;
 800207c:	6160      	str	r0, [r4, #20]
  hi2c2.Init.OwnAddress2Masks = I2C_OA2_NOMASK;
 800207e:	61a0      	str	r0, [r4, #24]
  hi2c2.Init.GeneralCallMode = I2C_GENERALCALL_DISABLE;
 8002080:	61e0      	str	r0, [r4, #28]
  hi2c2.Init.NoStretchMode = I2C_NOSTRETCH_DISABLE;
 8002082:	6220      	str	r0, [r4, #32]
  if (HAL_I2C_Init(&hi2c2) != HAL_OK)
 8002084:	0020      	movs	r0, r4
  hi2c2.Init.AddressingMode = I2C_ADDRESSINGMODE_7BIT;
 8002086:	60e3      	str	r3, [r4, #12]
  if (HAL_I2C_Init(&hi2c2) != HAL_OK)
 8002088:	f001 fc18 	bl	80038bc <HAL_I2C_Init>
 800208c:	1e01      	subs	r1, r0, #0
 800208e:	d001      	beq.n	8002094 <main+0x2e0>
 8002090:	b672      	cpsid	i
  while (1)
 8002092:	e7fe      	b.n	8002092 <main+0x2de>
  if (HAL_I2CEx_ConfigAnalogFilter(&hi2c2, I2C_ANALOGFILTER_ENABLE) != HAL_OK)
 8002094:	0020      	movs	r0, r4
 8002096:	f001 fc6f 	bl	8003978 <HAL_I2CEx_ConfigAnalogFilter>
 800209a:	1e01      	subs	r1, r0, #0
 800209c:	d001      	beq.n	80020a2 <main+0x2ee>
 800209e:	b672      	cpsid	i
  while (1)
 80020a0:	e7fe      	b.n	80020a0 <main+0x2ec>
  if (HAL_I2CEx_ConfigDigitalFilter(&hi2c2, 0) != HAL_OK)
 80020a2:	0020      	movs	r0, r4
 80020a4:	f001 fc8e 	bl	80039c4 <HAL_I2CEx_ConfigDigitalFilter>
 80020a8:	2800      	cmp	r0, #0
 80020aa:	d001      	beq.n	80020b0 <main+0x2fc>
 80020ac:	b672      	cpsid	i
  while (1)
 80020ae:	e7fe      	b.n	80020ae <main+0x2fa>
  huart1.Instance = USART1;
 80020b0:	4c25      	ldr	r4, [pc, #148]	@ (8002148 <main+0x394>)
 80020b2:	4b26      	ldr	r3, [pc, #152]	@ (800214c <main+0x398>)
  huart1.Init.WordLength = UART_WORDLENGTH_8B;
 80020b4:	60a0      	str	r0, [r4, #8]
  huart1.Init.StopBits = UART_STOPBITS_1;
 80020b6:	60e0      	str	r0, [r4, #12]
  huart1.Init.Parity = UART_PARITY_NONE;
 80020b8:	6120      	str	r0, [r4, #16]
  huart1.Init.HwFlowCtl = UART_HWCONTROL_NONE;
 80020ba:	61a0      	str	r0, [r4, #24]
  huart1.Init.OverSampling = UART_OVERSAMPLING_16;
 80020bc:	61e0      	str	r0, [r4, #28]
  huart1.Init.OneBitSampling = UART_ONE_BIT_SAMPLE_DISABLE;
 80020be:	6220      	str	r0, [r4, #32]
  huart1.Init.ClockPrescaler = UART_PRESCALER_DIV1;
 80020c0:	6260      	str	r0, [r4, #36]	@ 0x24
  huart1.AdvancedInit.AdvFeatureInit = UART_ADVFEATURE_NO_INIT;
 80020c2:	62a0      	str	r0, [r4, #40]	@ 0x28
  if (HAL_UART_Init(&huart1) != HAL_OK)
 80020c4:	0020      	movs	r0, r4
  huart1.Instance = USART1;
 80020c6:	6023      	str	r3, [r4, #0]
  huart1.Init.BaudRate = 115200;
 80020c8:	6067      	str	r7, [r4, #4]
  huart1.Init.Mode = UART_MODE_TX_RX;
 80020ca:	6166      	str	r6, [r4, #20]
  if (HAL_UART_Init(&huart1) != HAL_OK)
 80020cc:	f003 fc06 	bl	80058dc <HAL_UART_Init>
 80020d0:	1e01      	subs	r1, r0, #0
 80020d2:	d001      	beq.n	80020d8 <main+0x324>
 80020d4:	b672      	cpsid	i
  while (1)
 80020d6:	e7fe      	b.n	80020d6 <main+0x322>
  if (HAL_UARTEx_SetTxFifoThreshold(&huart1, UART_TXFIFO_THRESHOLD_1_8) != HAL_OK)
 80020d8:	0020      	movs	r0, r4
 80020da:	f003 fd4b 	bl	8005b74 <HAL_UARTEx_SetTxFifoThreshold>
 80020de:	1e01      	subs	r1, r0, #0
 80020e0:	d001      	beq.n	80020e6 <main+0x332>
 80020e2:	b672      	cpsid	i
  while (1)
 80020e4:	e7fe      	b.n	80020e4 <main+0x330>
  if (HAL_UARTEx_SetRxFifoThreshold(&huart1, UART_RXFIFO_THRESHOLD_1_8) != HAL_OK)
 80020e6:	0020      	movs	r0, r4
 80020e8:	f003 fd64 	bl	8005bb4 <HAL_UARTEx_SetRxFifoThreshold>
 80020ec:	2800      	cmp	r0, #0
 80020ee:	d001      	beq.n	80020f4 <main+0x340>
 80020f0:	b672      	cpsid	i
  while (1)
 80020f2:	e7fe      	b.n	80020f2 <main+0x33e>
  if (HAL_UARTEx_DisableFifoMode(&huart1) != HAL_OK)
 80020f4:	0020      	movs	r0, r4
 80020f6:	f003 fd1f 	bl	8005b38 <HAL_UARTEx_DisableFifoMode>
 80020fa:	2800      	cmp	r0, #0
 80020fc:	d028      	beq.n	8002150 <main+0x39c>
 80020fe:	b672      	cpsid	i
  while (1)
 8002100:	e7fe      	b.n	8002100 <main+0x34c>
 8002102:	46c0      	nop			@ (mov r8, r8)
 8002104:	40021000 	.word	0x40021000
 8002108:	50000800 	.word	0x50000800
 800210c:	50000400 	.word	0x50000400
 8002110:	00008023 	.word	0x00008023
 8002114:	20000878 	.word	0x20000878
 8002118:	40012400 	.word	0x40012400
 800211c:	18000040 	.word	0x18000040
 8002120:	200007d8 	.word	0x200007d8
 8002124:	40012c00 	.word	0x40012c00
 8002128:	2000078c 	.word	0x2000078c
 800212c:	40000400 	.word	0x40000400
 8002130:	000003e7 	.word	0x000003e7
 8002134:	20000664 	.word	0x20000664
 8002138:	40004400 	.word	0x40004400
 800213c:	20000824 	.word	0x20000824
 8002140:	40005800 	.word	0x40005800
 8002144:	00503d58 	.word	0x00503d58
 8002148:	200006f8 	.word	0x200006f8
 800214c:	40013800 	.word	0x40013800
  HAL_UART_Receive_IT(&huart2, &rx_byte, 1);
 8002150:	2201      	movs	r2, #1
 8002152:	490b      	ldr	r1, [pc, #44]	@ (8002180 <main+0x3cc>)
 8002154:	0028      	movs	r0, r5
 8002156:	f003 fc8f 	bl	8005a78 <HAL_UART_Receive_IT>
  power_on();
 800215a:	f000 fc51 	bl	8002a00 <power_on>
  start_routine();
 800215e:	f000 f8a5 	bl	80022ac <start_routine>
  session_end();
 8002162:	f000 f947 	bl	80023f4 <session_end>
  clinical_mode_check();
 8002166:	f000 fab3 	bl	80026d0 <clinical_mode_check>
	  	  check_dev_charging();
 800216a:	f000 fa41 	bl	80025f0 <check_dev_charging>
		  process_UART();
 800216e:	f7ff fb9b 	bl	80018a8 <process_UART>
		  frame_count_check();
 8002172:	f7ff fd89 	bl	8001c88 <frame_count_check>
		  touch();
 8002176:	f000 fc67 	bl	8002a48 <touch>
		  session_state();
 800217a:	f000 f9c1 	bl	8002500 <session_state>
  while (1){
 800217e:	e7f4      	b.n	800216a <main+0x3b6>
 8002180:	20000660 	.word	0x20000660

08002184 <Error_Handler>:
 8002184:	b672      	cpsid	i
  while (1)
 8002186:	e7fe      	b.n	8002186 <Error_Handler+0x2>

08002188 <powerCtrl>:

#include "main.h"

void powerCtrl(){

	HAL_GPIO_WritePin(GPIOC, PWR_CTRL_Pin, GPIO_PIN_RESET);
 8002188:	2180      	movs	r1, #128	@ 0x80
void powerCtrl(){
 800218a:	b510      	push	{r4, lr}
	HAL_GPIO_WritePin(GPIOC, PWR_CTRL_Pin, GPIO_PIN_RESET);
 800218c:	2200      	movs	r2, #0
 800218e:	4804      	ldr	r0, [pc, #16]	@ (80021a0 <powerCtrl+0x18>)
 8002190:	01c9      	lsls	r1, r1, #7
 8002192:	f001 fb8d 	bl	80038b0 <HAL_GPIO_WritePin>
	HAL_Delay(100);
 8002196:	2064      	movs	r0, #100	@ 0x64
 8002198:	f000 fd5e 	bl	8002c58 <HAL_Delay>
	//HAL_GPIO_WritePin(GPIOA, POWER_CTRL_REG_Pin, GPIO_PIN_RESET);

}
 800219c:	bd10      	pop	{r4, pc}
 800219e:	46c0      	nop			@ (mov r8, r8)
 80021a0:	50000800 	.word	0x50000800

080021a4 <treatment_led>:


uint8_t duty;

void treatment_led(uint8_t duty){
	__HAL_TIM_SET_COMPARE(&htim1, TIM_CHANNEL_1, duty);
 80021a4:	4b01      	ldr	r3, [pc, #4]	@ (80021ac <treatment_led+0x8>)
 80021a6:	681b      	ldr	r3, [r3, #0]
 80021a8:	6358      	str	r0, [r3, #52]	@ 0x34

}
 80021aa:	4770      	bx	lr
 80021ac:	200007d8 	.word	0x200007d8

080021b0 <Set_RGB>:
        }
    }
}

void Set_RGB(uint8_t r, uint8_t g, uint8_t b)
{
 80021b0:	b5f8      	push	{r3, r4, r5, r6, r7, lr}
 80021b2:	000d      	movs	r5, r1
 80021b4:	0014      	movs	r4, r2
    // Update hardware
    HAL_GPIO_WritePin(GPIOB, led_R_Pin, r ? GPIO_PIN_RESET : GPIO_PIN_SET);
 80021b6:	2180      	movs	r1, #128	@ 0x80
 80021b8:	4242      	negs	r2, r0
 80021ba:	4142      	adcs	r2, r0
{
 80021bc:	0006      	movs	r6, r0
    HAL_GPIO_WritePin(GPIOB, led_R_Pin, r ? GPIO_PIN_RESET : GPIO_PIN_SET);
 80021be:	b2d2      	uxtb	r2, r2
 80021c0:	480c      	ldr	r0, [pc, #48]	@ (80021f4 <Set_RGB+0x44>)
 80021c2:	0049      	lsls	r1, r1, #1
    HAL_GPIO_WritePin(GPIOA, led_G_Pin, g ? GPIO_PIN_RESET : GPIO_PIN_SET);
 80021c4:	27a0      	movs	r7, #160	@ 0xa0
    HAL_GPIO_WritePin(GPIOB, led_R_Pin, r ? GPIO_PIN_RESET : GPIO_PIN_SET);
 80021c6:	f001 fb73 	bl	80038b0 <HAL_GPIO_WritePin>
    HAL_GPIO_WritePin(GPIOA, led_G_Pin, g ? GPIO_PIN_RESET : GPIO_PIN_SET);
 80021ca:	426a      	negs	r2, r5
 80021cc:	416a      	adcs	r2, r5
 80021ce:	05ff      	lsls	r7, r7, #23
 80021d0:	0038      	movs	r0, r7
 80021d2:	2101      	movs	r1, #1
 80021d4:	b2d2      	uxtb	r2, r2
 80021d6:	f001 fb6b 	bl	80038b0 <HAL_GPIO_WritePin>
    HAL_GPIO_WritePin(GPIOA, led_B_Pin, b ? GPIO_PIN_RESET : GPIO_PIN_SET);
 80021da:	4262      	negs	r2, r4
 80021dc:	4162      	adcs	r2, r4
 80021de:	0038      	movs	r0, r7
 80021e0:	2102      	movs	r1, #2
 80021e2:	b2d2      	uxtb	r2, r2
 80021e4:	f001 fb64 	bl	80038b0 <HAL_GPIO_WritePin>

    // Update stored state
    ledState.r = r;
 80021e8:	4b03      	ldr	r3, [pc, #12]	@ (80021f8 <Set_RGB+0x48>)
 80021ea:	701e      	strb	r6, [r3, #0]
    ledState.g = g;
 80021ec:	705d      	strb	r5, [r3, #1]
    ledState.b = b;
 80021ee:	709c      	strb	r4, [r3, #2]
}
 80021f0:	bdf8      	pop	{r3, r4, r5, r6, r7, pc}
 80021f2:	46c0      	nop			@ (mov r8, r8)
 80021f4:	50000400 	.word	0x50000400
 80021f8:	200008dd 	.word	0x200008dd

080021fc <Set_Color>:
{
 80021fc:	b5f8      	push	{r3, r4, r5, r6, r7, lr}
 80021fe:	0006      	movs	r6, r0
    for (int i = 0; i < 8; i++) {
 8002200:	2500      	movs	r5, #0
        if (strcmp(colorName, colorTable[i].name) == 0) {
 8002202:	4f09      	ldr	r7, [pc, #36]	@ (8002228 <Set_Color+0x2c>)
 8002204:	00ec      	lsls	r4, r5, #3
 8002206:	19e4      	adds	r4, r4, r7
 8002208:	0030      	movs	r0, r6
 800220a:	6821      	ldr	r1, [r4, #0]
 800220c:	f7fd ff7c 	bl	8000108 <strcmp>
 8002210:	2800      	cmp	r0, #0
 8002212:	d105      	bne.n	8002220 <Set_Color+0x24>
            Set_RGB(colorTable[i].r, colorTable[i].g, colorTable[i].b);
 8002214:	79a2      	ldrb	r2, [r4, #6]
 8002216:	7961      	ldrb	r1, [r4, #5]
 8002218:	7920      	ldrb	r0, [r4, #4]
 800221a:	f7ff ffc9 	bl	80021b0 <Set_RGB>
}
 800221e:	bdf8      	pop	{r3, r4, r5, r6, r7, pc}
    for (int i = 0; i < 8; i++) {
 8002220:	3501      	adds	r5, #1
 8002222:	2d08      	cmp	r5, #8
 8002224:	d1ee      	bne.n	8002204 <Set_Color+0x8>
 8002226:	e7fa      	b.n	800221e <Set_Color+0x22>
 8002228:	08006674 	.word	0x08006674

0800222c <Restore_RGB>:

void Restore_RGB(void)
{
 800222c:	b570      	push	{r4, r5, r6, lr}
    HAL_GPIO_WritePin(GPIOB, led_R_Pin, ledState.r ? GPIO_PIN_RESET : GPIO_PIN_SET);
 800222e:	4d0e      	ldr	r5, [pc, #56]	@ (8002268 <Restore_RGB+0x3c>)
 8002230:	2180      	movs	r1, #128	@ 0x80
 8002232:	782a      	ldrb	r2, [r5, #0]
 8002234:	480d      	ldr	r0, [pc, #52]	@ (800226c <Restore_RGB+0x40>)
 8002236:	4253      	negs	r3, r2
 8002238:	415a      	adcs	r2, r3
 800223a:	0049      	lsls	r1, r1, #1
 800223c:	b2d2      	uxtb	r2, r2
 800223e:	f001 fb37 	bl	80038b0 <HAL_GPIO_WritePin>
    HAL_GPIO_WritePin(GPIOA, led_G_Pin, ledState.g ? GPIO_PIN_RESET : GPIO_PIN_SET);
 8002242:	786a      	ldrb	r2, [r5, #1]
 8002244:	24a0      	movs	r4, #160	@ 0xa0
 8002246:	4253      	negs	r3, r2
 8002248:	415a      	adcs	r2, r3
 800224a:	05e4      	lsls	r4, r4, #23
 800224c:	0020      	movs	r0, r4
 800224e:	2101      	movs	r1, #1
 8002250:	b2d2      	uxtb	r2, r2
 8002252:	f001 fb2d 	bl	80038b0 <HAL_GPIO_WritePin>
    HAL_GPIO_WritePin(GPIOA, led_B_Pin, ledState.b ? GPIO_PIN_RESET : GPIO_PIN_SET);
 8002256:	78aa      	ldrb	r2, [r5, #2]
 8002258:	2102      	movs	r1, #2
 800225a:	4253      	negs	r3, r2
 800225c:	415a      	adcs	r2, r3
 800225e:	0020      	movs	r0, r4
 8002260:	b2d2      	uxtb	r2, r2
 8002262:	f001 fb25 	bl	80038b0 <HAL_GPIO_WritePin>
}
 8002266:	bd70      	pop	{r4, r5, r6, pc}
 8002268:	200008dd 	.word	0x200008dd
 800226c:	50000400 	.word	0x50000400

08002270 <RGB>:

void RGB(uint8_t r, uint8_t g, uint8_t b)
{
 8002270:	b570      	push	{r4, r5, r6, lr}
 8002272:	000d      	movs	r5, r1
 8002274:	0014      	movs	r4, r2
    // Update hardware
    HAL_GPIO_WritePin(GPIOB, led_R_Pin, r ? GPIO_PIN_RESET : GPIO_PIN_SET);
 8002276:	4243      	negs	r3, r0
 8002278:	4158      	adcs	r0, r3
 800227a:	2180      	movs	r1, #128	@ 0x80
    HAL_GPIO_WritePin(GPIOA, led_G_Pin, g ? GPIO_PIN_RESET : GPIO_PIN_SET);
 800227c:	26a0      	movs	r6, #160	@ 0xa0
 800227e:	426b      	negs	r3, r5
 8002280:	415d      	adcs	r5, r3
    HAL_GPIO_WritePin(GPIOA, led_B_Pin, b ? GPIO_PIN_RESET : GPIO_PIN_SET);
 8002282:	4263      	negs	r3, r4
 8002284:	415c      	adcs	r4, r3
    HAL_GPIO_WritePin(GPIOA, led_G_Pin, g ? GPIO_PIN_RESET : GPIO_PIN_SET);
 8002286:	05f6      	lsls	r6, r6, #23
    HAL_GPIO_WritePin(GPIOB, led_R_Pin, r ? GPIO_PIN_RESET : GPIO_PIN_SET);
 8002288:	b2c2      	uxtb	r2, r0
 800228a:	0049      	lsls	r1, r1, #1
 800228c:	4806      	ldr	r0, [pc, #24]	@ (80022a8 <RGB+0x38>)
 800228e:	f001 fb0f 	bl	80038b0 <HAL_GPIO_WritePin>
    HAL_GPIO_WritePin(GPIOA, led_G_Pin, g ? GPIO_PIN_RESET : GPIO_PIN_SET);
 8002292:	0030      	movs	r0, r6
 8002294:	b2ea      	uxtb	r2, r5
 8002296:	2101      	movs	r1, #1
 8002298:	f001 fb0a 	bl	80038b0 <HAL_GPIO_WritePin>
    HAL_GPIO_WritePin(GPIOA, led_B_Pin, b ? GPIO_PIN_RESET : GPIO_PIN_SET);
 800229c:	0030      	movs	r0, r6
 800229e:	2102      	movs	r1, #2
 80022a0:	b2e2      	uxtb	r2, r4
 80022a2:	f001 fb05 	bl	80038b0 <HAL_GPIO_WritePin>


}
 80022a6:	bd70      	pop	{r4, r5, r6, pc}
 80022a8:	50000400 	.word	0x50000400

080022ac <start_routine>:
 *
 * This functions is called after booting.
 * 	Shows sequence of 7 colours on status LED for checking rgb LED functionality.
 * 	Checks Treatment LEDs by blinking them once.
 */
void start_routine(){
 80022ac:	b510      	push	{r4, lr}

			HAL_TIM_PWM_Start(&htim1, TIM_CHANNEL_1);		//Starts pwm on timer channel 1 for Treatment LEDs.
			HAL_Delay(led_delay);
 80022ae:	24fa      	movs	r4, #250	@ 0xfa
 80022b0:	0064      	lsls	r4, r4, #1
			HAL_TIM_PWM_Start(&htim1, TIM_CHANNEL_1);		//Starts pwm on timer channel 1 for Treatment LEDs.
 80022b2:	2100      	movs	r1, #0
 80022b4:	4824      	ldr	r0, [pc, #144]	@ (8002348 <start_routine+0x9c>)
 80022b6:	f002 fb75 	bl	80049a4 <HAL_TIM_PWM_Start>
			HAL_Delay(led_delay);
 80022ba:	0020      	movs	r0, r4
 80022bc:	f000 fccc 	bl	8002c58 <HAL_Delay>
			HAL_GPIO_WritePin(GPIOC, PWR_CTRL_Pin, GPIO_PIN_SET);
 80022c0:	2180      	movs	r1, #128	@ 0x80
 80022c2:	2201      	movs	r2, #1
 80022c4:	01c9      	lsls	r1, r1, #7
 80022c6:	4821      	ldr	r0, [pc, #132]	@ (800234c <start_routine+0xa0>)
 80022c8:	f001 faf2 	bl	80038b0 <HAL_GPIO_WritePin>
			Set_Color("green");			//GREEN
 80022cc:	4820      	ldr	r0, [pc, #128]	@ (8002350 <start_routine+0xa4>)
 80022ce:	f7ff ff95 	bl	80021fc <Set_Color>
			HAL_Delay(led_delay);
 80022d2:	0020      	movs	r0, r4
 80022d4:	f000 fcc0 	bl	8002c58 <HAL_Delay>
			Set_Color("blue");			//BLUE
 80022d8:	481e      	ldr	r0, [pc, #120]	@ (8002354 <start_routine+0xa8>)
 80022da:	f7ff ff8f 	bl	80021fc <Set_Color>
			HAL_Delay(led_delay);
 80022de:	0020      	movs	r0, r4
 80022e0:	f000 fcba 	bl	8002c58 <HAL_Delay>
			Set_Color("red");			//RED
 80022e4:	481c      	ldr	r0, [pc, #112]	@ (8002358 <start_routine+0xac>)
 80022e6:	f7ff ff89 	bl	80021fc <Set_Color>
			HAL_Delay(led_delay);
 80022ea:	0020      	movs	r0, r4
 80022ec:	f000 fcb4 	bl	8002c58 <HAL_Delay>
			Set_Color("cyan");			//CYAN
 80022f0:	481a      	ldr	r0, [pc, #104]	@ (800235c <start_routine+0xb0>)
 80022f2:	f7ff ff83 	bl	80021fc <Set_Color>
			HAL_Delay(led_delay);
 80022f6:	0020      	movs	r0, r4
 80022f8:	f000 fcae 	bl	8002c58 <HAL_Delay>
			Set_Color("magenta");		//PURPLE
 80022fc:	4818      	ldr	r0, [pc, #96]	@ (8002360 <start_routine+0xb4>)
 80022fe:	f7ff ff7d 	bl	80021fc <Set_Color>
			HAL_Delay(led_delay);
 8002302:	0020      	movs	r0, r4
 8002304:	f000 fca8 	bl	8002c58 <HAL_Delay>
			Set_Color("lemon");			//LEMON
 8002308:	4816      	ldr	r0, [pc, #88]	@ (8002364 <start_routine+0xb8>)
 800230a:	f7ff ff77 	bl	80021fc <Set_Color>
			HAL_Delay(led_delay);
 800230e:	0020      	movs	r0, r4
 8002310:	f000 fca2 	bl	8002c58 <HAL_Delay>
			Set_Color("white");			//WHITE
 8002314:	4814      	ldr	r0, [pc, #80]	@ (8002368 <start_routine+0xbc>)
 8002316:	f7ff ff71 	bl	80021fc <Set_Color>
			HAL_Delay(led_delay);
 800231a:	0020      	movs	r0, r4
 800231c:	f000 fc9c 	bl	8002c58 <HAL_Delay>
			Set_Color("off");			//TURN-OFF
 8002320:	4812      	ldr	r0, [pc, #72]	@ (800236c <start_routine+0xc0>)
 8002322:	f7ff ff6b 	bl	80021fc <Set_Color>
			HAL_Delay(led_delay);
 8002326:	0020      	movs	r0, r4
 8002328:	f000 fc96 	bl	8002c58 <HAL_Delay>
			treatment_led(default_duty);
 800232c:	2041      	movs	r0, #65	@ 0x41
 800232e:	f7ff ff39 	bl	80021a4 <treatment_led>
			HAL_Delay(1000);
 8002332:	20fa      	movs	r0, #250	@ 0xfa
 8002334:	0080      	lsls	r0, r0, #2
 8002336:	f000 fc8f 	bl	8002c58 <HAL_Delay>

			treatment_led(0);
 800233a:	2000      	movs	r0, #0
 800233c:	f7ff ff32 	bl	80021a4 <treatment_led>
			Set_Color("lemon");			//LEMON
			HAL_Delay(led_delay);
			Set_Color("white");			//WHITE
			HAL_Delay(led_delay);
			Set_Color("off");			//TURN-OFF*/
			HAL_Delay(200);
 8002340:	20c8      	movs	r0, #200	@ 0xc8
 8002342:	f000 fc89 	bl	8002c58 <HAL_Delay>
}
 8002346:	bd10      	pop	{r4, pc}
 8002348:	200007d8 	.word	0x200007d8
 800234c:	50000800 	.word	0x50000800
 8002350:	08006618 	.word	0x08006618
 8002354:	0800661e 	.word	0x0800661e
 8002358:	08006614 	.word	0x08006614
 800235c:	08006623 	.word	0x08006623
 8002360:	08006628 	.word	0x08006628
 8002364:	08006636 	.word	0x08006636
 8002368:	08006630 	.word	0x08006630
 800236c:	0800663c 	.word	0x0800663c

08002370 <shutdown_routine>:
 * This function shuts down the device after completing shutdown routine.
 * 		Disables interrupt and stops BLE Command processing.
 * 		Shows shutdown status on Status LED by blinking red colour thrice.
 * 		Shutsdown the device using powerCtrl().
 */
void shutdown_routine(){
 8002370:	b570      	push	{r4, r5, r6, lr}

			//__disable_irq();

			treatment_led(0);
			Set_Color("red");				//RED
			HAL_Delay(led_delay);
 8002372:	24fa      	movs	r4, #250	@ 0xfa
			treatment_led(0);
 8002374:	2000      	movs	r0, #0
 8002376:	f7ff ff15 	bl	80021a4 <treatment_led>
			Set_Color("red");				//RED
 800237a:	4e15      	ldr	r6, [pc, #84]	@ (80023d0 <shutdown_routine+0x60>)
			HAL_Delay(led_delay);
 800237c:	0064      	lsls	r4, r4, #1
			Set_Color("red");				//RED
 800237e:	0030      	movs	r0, r6
 8002380:	f7ff ff3c 	bl	80021fc <Set_Color>
			HAL_Delay(led_delay);
 8002384:	0020      	movs	r0, r4
 8002386:	f000 fc67 	bl	8002c58 <HAL_Delay>
			Set_Color("off");				//TURN-OFF
 800238a:	4d12      	ldr	r5, [pc, #72]	@ (80023d4 <shutdown_routine+0x64>)
 800238c:	0028      	movs	r0, r5
 800238e:	f7ff ff35 	bl	80021fc <Set_Color>
			HAL_Delay(led_delay);
 8002392:	0020      	movs	r0, r4
 8002394:	f000 fc60 	bl	8002c58 <HAL_Delay>
			Set_Color("red");				//RED
 8002398:	0030      	movs	r0, r6
 800239a:	f7ff ff2f 	bl	80021fc <Set_Color>
			HAL_Delay(led_delay);
 800239e:	0020      	movs	r0, r4
 80023a0:	f000 fc5a 	bl	8002c58 <HAL_Delay>
			Set_Color("off");				//TURN-OFF
 80023a4:	0028      	movs	r0, r5
 80023a6:	f7ff ff29 	bl	80021fc <Set_Color>
			HAL_Delay(led_delay);
 80023aa:	0020      	movs	r0, r4
 80023ac:	f000 fc54 	bl	8002c58 <HAL_Delay>
			Set_Color("red");				//RED
 80023b0:	0030      	movs	r0, r6
 80023b2:	f7ff ff23 	bl	80021fc <Set_Color>
			HAL_Delay(led_delay);
 80023b6:	0020      	movs	r0, r4
 80023b8:	f000 fc4e 	bl	8002c58 <HAL_Delay>
			Set_Color("off");				//TURN-OFF
 80023bc:	0028      	movs	r0, r5
 80023be:	f7ff ff1d 	bl	80021fc <Set_Color>
			HAL_Delay(led_delay);
 80023c2:	0020      	movs	r0, r4
 80023c4:	f000 fc48 	bl	8002c58 <HAL_Delay>

			powerCtrl();
 80023c8:	f7ff fede 	bl	8002188 <powerCtrl>
}
 80023cc:	bd70      	pop	{r4, r5, r6, pc}
 80023ce:	46c0      	nop			@ (mov r8, r8)
 80023d0:	08006614 	.word	0x08006614
 80023d4:	0800663c 	.word	0x0800663c

080023d8 <ping>:
 * 	Holds this state for 400ms.
 * 	Restores the previous state on status LED.
 */
void ping(){
			//shows blue colour on Status LED for 400ms by controlling RGB Led related GPIOs
			RGB(0, 0, 1);
 80023d8:	2100      	movs	r1, #0
void ping(){
 80023da:	b510      	push	{r4, lr}
			RGB(0, 0, 1);
 80023dc:	0008      	movs	r0, r1
 80023de:	2201      	movs	r2, #1
 80023e0:	f7ff ff46 	bl	8002270 <RGB>


			HAL_Delay(400);
 80023e4:	20c8      	movs	r0, #200	@ 0xc8
 80023e6:	0040      	lsls	r0, r0, #1
 80023e8:	f000 fc36 	bl	8002c58 <HAL_Delay>
			Restore_RGB();  //Restores previous RGB state after showing blue status for 400ms
 80023ec:	f7ff ff1e 	bl	800222c <Restore_RGB>
}
 80023f0:	bd10      	pop	{r4, pc}
	...

080023f4 <session_end>:


//This function ends the 30 minutes Treatment session and puts the device in idle state.
//Starts 3 minutes idle timer.
void session_end(){
	man_end_session_flag = false;
 80023f4:	2000      	movs	r0, #0
 80023f6:	4b08      	ldr	r3, [pc, #32]	@ (8002418 <session_end+0x24>)
void session_end(){
 80023f8:	b510      	push	{r4, lr}
	man_end_session_flag = false;
 80023fa:	7018      	strb	r0, [r3, #0]
	treatment_led(duty_zero);	//Stops pwm generation and Turns  OFF treatment leds.
 80023fc:	f7ff fed2 	bl	80021a4 <treatment_led>

	Set_Color("cyan");							//shows CYAN color on status LED.
 8002400:	4806      	ldr	r0, [pc, #24]	@ (800241c <session_end+0x28>)
 8002402:	f7ff fefb 	bl	80021fc <Set_Color>

	session_end_tick = HAL_GetTick();			//Starts 3 minutes idle timer.
 8002406:	f000 fc21 	bl	8002c4c <HAL_GetTick>
	end_control_flag = true;
 800240a:	2201      	movs	r2, #1
	session_end_tick = HAL_GetTick();			//Starts 3 minutes idle timer.
 800240c:	4b04      	ldr	r3, [pc, #16]	@ (8002420 <session_end+0x2c>)
 800240e:	6018      	str	r0, [r3, #0]
	end_control_flag = true;
 8002410:	4b04      	ldr	r3, [pc, #16]	@ (8002424 <session_end+0x30>)
 8002412:	701a      	strb	r2, [r3, #0]
	//sendResponse(seq, PACK, 0x0, 1);
}
 8002414:	bd10      	pop	{r4, pc}
 8002416:	46c0      	nop			@ (mov r8, r8)
 8002418:	200008e9 	.word	0x200008e9
 800241c:	08006623 	.word	0x08006623
 8002420:	200008e0 	.word	0x200008e0
 8002424:	200008eb 	.word	0x200008eb

08002428 <app_session_end>:

void app_session_end(){
 8002428:	b510      	push	{r4, lr}
			treatment_led(duty_zero);	//Stops pwm generation and Turns  OFF treatment leds.
 800242a:	2000      	movs	r0, #0
 800242c:	f7ff feba 	bl	80021a4 <treatment_led>
			Set_Color("cyan");							//shows CYAN color on status LED.
 8002430:	4809      	ldr	r0, [pc, #36]	@ (8002458 <app_session_end+0x30>)
 8002432:	f7ff fee3 	bl	80021fc <Set_Color>
			session_end_tick = HAL_GetTick();			//Starts 3 minutes idle timer.
 8002436:	f000 fc09 	bl	8002c4c <HAL_GetTick>
			End_session_flag = false;
 800243a:	2200      	movs	r2, #0
			session_end_tick = HAL_GetTick();			//Starts 3 minutes idle timer.
 800243c:	4b07      	ldr	r3, [pc, #28]	@ (800245c <app_session_end+0x34>)
			end_control_flag = true;
 800243e:	4908      	ldr	r1, [pc, #32]	@ (8002460 <app_session_end+0x38>)
			session_end_tick = HAL_GetTick();			//Starts 3 minutes idle timer.
 8002440:	6018      	str	r0, [r3, #0]
			End_session_flag = false;
 8002442:	4b08      	ldr	r3, [pc, #32]	@ (8002464 <app_session_end+0x3c>)
 8002444:	701a      	strb	r2, [r3, #0]
			end_control_flag = true;
 8002446:	2301      	movs	r3, #1
 8002448:	700b      	strb	r3, [r1, #0]
			sendResponse(seq, PACK, 0x0, 1);
 800244a:	4907      	ldr	r1, [pc, #28]	@ (8002468 <app_session_end+0x40>)
 800244c:	7808      	ldrb	r0, [r1, #0]
 800244e:	2105      	movs	r1, #5
 8002450:	f7ff f9fe 	bl	8001850 <sendResponse>
}
 8002454:	bd10      	pop	{r4, pc}
 8002456:	46c0      	nop			@ (mov r8, r8)
 8002458:	08006623 	.word	0x08006623
 800245c:	200008e0 	.word	0x200008e0
 8002460:	200008eb 	.word	0x200008eb
 8002464:	200000b5 	.word	0x200000b5
 8002468:	200000c2 	.word	0x200000c2

0800246c <session_start>:
 * @brief starts the Treatment session.
 *
 *  Sets treatment LEDs with 65% PWM
 * 	Stores system time in session_start_tick for tracking session duration.
 */
void session_start(){
 800246c:	b510      	push	{r4, lr}
	HAL_TIM_PWM_Start(&htim1, TIM_CHANNEL_1);	//starts pwm on Timer1 channel1 for Treatment Leds.
 800246e:	2100      	movs	r1, #0
 8002470:	4806      	ldr	r0, [pc, #24]	@ (800248c <session_start+0x20>)
 8002472:	f002 fa97 	bl	80049a4 <HAL_TIM_PWM_Start>
	Set_Color("lemon");							//shows LEMON color on status LED.
 8002476:	4806      	ldr	r0, [pc, #24]	@ (8002490 <session_start+0x24>)
 8002478:	f7ff fec0 	bl	80021fc <Set_Color>
	treatment_led(default_duty);				//Turns ON treatment leds with pwm --> default_duty.
 800247c:	2041      	movs	r0, #65	@ 0x41
 800247e:	f7ff fe91 	bl	80021a4 <treatment_led>
	session_start_tick = HAL_GetTick();			//Starts 30 minutes session timer.
 8002482:	f000 fbe3 	bl	8002c4c <HAL_GetTick>
 8002486:	4b03      	ldr	r3, [pc, #12]	@ (8002494 <session_start+0x28>)
 8002488:	6018      	str	r0, [r3, #0]

}
 800248a:	bd10      	pop	{r4, pc}
 800248c:	200007d8 	.word	0x200007d8
 8002490:	08006636 	.word	0x08006636
 8002494:	200008e4 	.word	0x200008e4

08002498 <app_session_start>:

void app_session_start(){
 8002498:	b510      	push	{r4, lr}
	app_end_session_flag =  true;
 800249a:	2401      	movs	r4, #1
 800249c:	4b07      	ldr	r3, [pc, #28]	@ (80024bc <app_session_start+0x24>)
 800249e:	701c      	strb	r4, [r3, #0]
	session_start();
 80024a0:	f7ff ffe4 	bl	800246c <session_start>
	man_end_session_flag =  false;
 80024a4:	2200      	movs	r2, #0
 80024a6:	4b06      	ldr	r3, [pc, #24]	@ (80024c0 <app_session_start+0x28>)
	end_control_flag = false;
	sendResponse(seq, PACK, 0x0, 1);
 80024a8:	2105      	movs	r1, #5
	man_end_session_flag =  false;
 80024aa:	701a      	strb	r2, [r3, #0]
	end_control_flag = false;
 80024ac:	4b05      	ldr	r3, [pc, #20]	@ (80024c4 <app_session_start+0x2c>)
 80024ae:	701a      	strb	r2, [r3, #0]
	sendResponse(seq, PACK, 0x0, 1);
 80024b0:	4b05      	ldr	r3, [pc, #20]	@ (80024c8 <app_session_start+0x30>)
 80024b2:	7818      	ldrb	r0, [r3, #0]
 80024b4:	0023      	movs	r3, r4
 80024b6:	f7ff f9cb 	bl	8001850 <sendResponse>
}
 80024ba:	bd10      	pop	{r4, pc}
 80024bc:	200008ea 	.word	0x200008ea
 80024c0:	200008e9 	.word	0x200008e9
 80024c4:	200008eb 	.word	0x200008eb
 80024c8:	200000c2 	.word	0x200000c2

080024cc <manual_session_start>:

void manual_session_start(){
 80024cc:	b510      	push	{r4, lr}
	app_end_session_flag =  false;
 80024ce:	2400      	movs	r4, #0
 80024d0:	4b07      	ldr	r3, [pc, #28]	@ (80024f0 <manual_session_start+0x24>)
 80024d2:	701c      	strb	r4, [r3, #0]
	session_start();
 80024d4:	f7ff ffca 	bl	800246c <session_start>
	man_end_session_flag =  true;
 80024d8:	2301      	movs	r3, #1
 80024da:	4a06      	ldr	r2, [pc, #24]	@ (80024f4 <manual_session_start+0x28>)
	end_control_flag = false;
	sendResponse(seq, PACK, 0x0, 1);
 80024dc:	2105      	movs	r1, #5
	man_end_session_flag =  true;
 80024de:	7013      	strb	r3, [r2, #0]
	end_control_flag = false;
 80024e0:	4a05      	ldr	r2, [pc, #20]	@ (80024f8 <manual_session_start+0x2c>)
 80024e2:	7014      	strb	r4, [r2, #0]
	sendResponse(seq, PACK, 0x0, 1);
 80024e4:	4a05      	ldr	r2, [pc, #20]	@ (80024fc <manual_session_start+0x30>)
 80024e6:	7810      	ldrb	r0, [r2, #0]
 80024e8:	0022      	movs	r2, r4
 80024ea:	f7ff f9b1 	bl	8001850 <sendResponse>
}
 80024ee:	bd10      	pop	{r4, pc}
 80024f0:	200008ea 	.word	0x200008ea
 80024f4:	200008e9 	.word	0x200008e9
 80024f8:	200008eb 	.word	0x200008eb
 80024fc:	200000c2 	.word	0x200000c2

08002500 <session_state>:
 * This function handles the Treatment session.
 * 		Checks Start_session_flag and start Treatment session when Start_session_flag is woken Through the BLE commands.
 *		Checks Treatment session duration and calls session end when session duratio
 */
void session_state(){
	if(!dev_charging_flag){
 8002500:	4b2c      	ldr	r3, [pc, #176]	@ (80025b4 <session_state+0xb4>)
void session_state(){
 8002502:	b507      	push	{r0, r1, r2, lr}
	if(!dev_charging_flag){
 8002504:	781b      	ldrb	r3, [r3, #0]
 8002506:	2b00      	cmp	r3, #0
 8002508:	d153      	bne.n	80025b2 <session_state+0xb2>
	  if (app_end_session_flag   &&   (HAL_GetTick() - session_start_tick)>session_duration)
 800250a:	4b2b      	ldr	r3, [pc, #172]	@ (80025b8 <session_state+0xb8>)
 800250c:	781b      	ldrb	r3, [r3, #0]
 800250e:	2b00      	cmp	r3, #0
 8002510:	d01e      	beq.n	8002550 <session_state+0x50>
 8002512:	f000 fb9b 	bl	8002c4c <HAL_GetTick>
 8002516:	4b29      	ldr	r3, [pc, #164]	@ (80025bc <session_state+0xbc>)
 8002518:	681b      	ldr	r3, [r3, #0]
 800251a:	1ac0      	subs	r0, r0, r3
 800251c:	4b28      	ldr	r3, [pc, #160]	@ (80025c0 <session_state+0xc0>)
 800251e:	4298      	cmp	r0, r3
 8002520:	d916      	bls.n	8002550 <session_state+0x50>
	  	          {

		  	  	  	  uint8_t sess_complt = 0x01;
 8002522:	466b      	mov	r3, sp
 8002524:	1dda      	adds	r2, r3, #7
 8002526:	2301      	movs	r3, #1
	  	        	  sendResponse(seq, 0x05, &sess_complt, 1);
 8002528:	4926      	ldr	r1, [pc, #152]	@ (80025c4 <session_state+0xc4>)
		  	  	  	  uint8_t sess_complt = 0x01;
 800252a:	7013      	strb	r3, [r2, #0]
	  	        	  sendResponse(seq, 0x05, &sess_complt, 1);
 800252c:	7808      	ldrb	r0, [r1, #0]
 800252e:	2105      	movs	r1, #5
 8002530:	f7ff f98e 	bl	8001850 <sendResponse>
	  	        	  app_part_count--;
 8002534:	4a24      	ldr	r2, [pc, #144]	@ (80025c8 <session_state+0xc8>)
 8002536:	8813      	ldrh	r3, [r2, #0]
 8002538:	3b01      	subs	r3, #1
 800253a:	8013      	strh	r3, [r2, #0]
	  	        	  app_full_count++;
 800253c:	4a23      	ldr	r2, [pc, #140]	@ (80025cc <session_state+0xcc>)
 800253e:	8813      	ldrh	r3, [r2, #0]
 8002540:	3301      	adds	r3, #1
 8002542:	8013      	strh	r3, [r2, #0]
	  	        	  app_perm_count++;
 8002544:	4a22      	ldr	r2, [pc, #136]	@ (80025d0 <session_state+0xd0>)
 8002546:	8813      	ldrh	r3, [r2, #0]
 8002548:	3301      	adds	r3, #1
 800254a:	8013      	strh	r3, [r2, #0]
	  	        	  session_end();
 800254c:	f7ff ff52 	bl	80023f4 <session_end>

	  	          }
	  if (man_end_session_flag   &&   (HAL_GetTick() - session_start_tick)>session_duration)
 8002550:	4b20      	ldr	r3, [pc, #128]	@ (80025d4 <session_state+0xd4>)
 8002552:	781b      	ldrb	r3, [r3, #0]
 8002554:	2b00      	cmp	r3, #0
 8002556:	d01e      	beq.n	8002596 <session_state+0x96>
 8002558:	f000 fb78 	bl	8002c4c <HAL_GetTick>
 800255c:	4b17      	ldr	r3, [pc, #92]	@ (80025bc <session_state+0xbc>)
 800255e:	681b      	ldr	r3, [r3, #0]
 8002560:	1ac0      	subs	r0, r0, r3
 8002562:	4b17      	ldr	r3, [pc, #92]	@ (80025c0 <session_state+0xc0>)
 8002564:	4298      	cmp	r0, r3
 8002566:	d916      	bls.n	8002596 <session_state+0x96>
	  	  	          {

	  		  	  	  	  uint8_t sess_complt = 0x01;
 8002568:	466b      	mov	r3, sp
 800256a:	1dda      	adds	r2, r3, #7
 800256c:	2301      	movs	r3, #1
	  	  	        	  sendResponse(seq, 0x05, &sess_complt, 1);
 800256e:	4915      	ldr	r1, [pc, #84]	@ (80025c4 <session_state+0xc4>)
	  		  	  	  	  uint8_t sess_complt = 0x01;
 8002570:	7013      	strb	r3, [r2, #0]
	  	  	        	  sendResponse(seq, 0x05, &sess_complt, 1);
 8002572:	7808      	ldrb	r0, [r1, #0]
 8002574:	2105      	movs	r1, #5
 8002576:	f7ff f96b 	bl	8001850 <sendResponse>
	  	  	        	  man_part_count--;
 800257a:	4a17      	ldr	r2, [pc, #92]	@ (80025d8 <session_state+0xd8>)
 800257c:	8813      	ldrh	r3, [r2, #0]
 800257e:	3b01      	subs	r3, #1
 8002580:	8013      	strh	r3, [r2, #0]
	  	  	        	  manual_full_count++;
 8002582:	4a16      	ldr	r2, [pc, #88]	@ (80025dc <session_state+0xdc>)
 8002584:	8813      	ldrh	r3, [r2, #0]
 8002586:	3301      	adds	r3, #1
 8002588:	8013      	strh	r3, [r2, #0]
	  	  	        	  manual_perm_count++;
 800258a:	4a15      	ldr	r2, [pc, #84]	@ (80025e0 <session_state+0xe0>)
 800258c:	8813      	ldrh	r3, [r2, #0]
 800258e:	3301      	adds	r3, #1
 8002590:	8013      	strh	r3, [r2, #0]
	  	  	        	  session_end();
 8002592:	f7ff ff2f 	bl	80023f4 <session_end>
	  	  	          }

	  if ( end_control_flag &&  (HAL_GetTick() - session_end_tick)> idle_duration) shutdown_routine();
 8002596:	4b13      	ldr	r3, [pc, #76]	@ (80025e4 <session_state+0xe4>)
 8002598:	781b      	ldrb	r3, [r3, #0]
 800259a:	2b00      	cmp	r3, #0
 800259c:	d009      	beq.n	80025b2 <session_state+0xb2>
 800259e:	f000 fb55 	bl	8002c4c <HAL_GetTick>
 80025a2:	4b11      	ldr	r3, [pc, #68]	@ (80025e8 <session_state+0xe8>)
 80025a4:	681b      	ldr	r3, [r3, #0]
 80025a6:	1ac0      	subs	r0, r0, r3
 80025a8:	4b10      	ldr	r3, [pc, #64]	@ (80025ec <session_state+0xec>)
 80025aa:	4298      	cmp	r0, r3
 80025ac:	d901      	bls.n	80025b2 <session_state+0xb2>
 80025ae:	f7ff fedf 	bl	8002370 <shutdown_routine>
	  //else Set_Color("cyan");
 }
}
 80025b2:	bd07      	pop	{r0, r1, r2, pc}
 80025b4:	200000b3 	.word	0x200000b3
 80025b8:	200008ea 	.word	0x200008ea
 80025bc:	200008e4 	.word	0x200008e4
 80025c0:	001b7740 	.word	0x001b7740
 80025c4:	200000c2 	.word	0x200000c2
 80025c8:	200000b6 	.word	0x200000b6
 80025cc:	200000be 	.word	0x200000be
 80025d0:	200000ba 	.word	0x200000ba
 80025d4:	200008e9 	.word	0x200008e9
 80025d8:	200000b8 	.word	0x200000b8
 80025dc:	200000c0 	.word	0x200000c0
 80025e0:	200000bc 	.word	0x200000bc
 80025e4:	200008eb 	.word	0x200008eb
 80025e8:	200008e0 	.word	0x200008e0
 80025ec:	0002bf20 	.word	0x0002bf20

080025f0 <check_dev_charging>:
 * 				Shows Red color on Status LED while charging.
 * 				Shows Green color on Status LED When device is fully charged.
 * 				Shuts down the device when disconnected from the charger.
 */
void check_dev_charging() {
	HAL_GPIO_WritePin(GPIOC, PWR_CTRL_Pin, GPIO_PIN_SET);
 80025f0:	2180      	movs	r1, #128	@ 0x80
void check_dev_charging() {
 80025f2:	b570      	push	{r4, r5, r6, lr}
	HAL_GPIO_WritePin(GPIOC, PWR_CTRL_Pin, GPIO_PIN_SET);
 80025f4:	2201      	movs	r2, #1
 80025f6:	4826      	ldr	r0, [pc, #152]	@ (8002690 <check_dev_charging+0xa0>)
 80025f8:	01c9      	lsls	r1, r1, #7
 80025fa:	f001 f959 	bl	80038b0 <HAL_GPIO_WritePin>
    uint8_t chg  = HAL_GPIO_ReadPin(GPIOB, BAT_CHG_Pin);   // active low
 80025fe:	2120      	movs	r1, #32
 8002600:	4824      	ldr	r0, [pc, #144]	@ (8002694 <check_dev_charging+0xa4>)
 8002602:	f001 f94f 	bl	80038a4 <HAL_GPIO_ReadPin>
    uint8_t full = HAL_GPIO_ReadPin(GPIOB, BAT_FULL_Pin);  // active low
 8002606:	2110      	movs	r1, #16
    uint8_t chg  = HAL_GPIO_ReadPin(GPIOB, BAT_CHG_Pin);   // active low
 8002608:	0005      	movs	r5, r0
    uint8_t full = HAL_GPIO_ReadPin(GPIOB, BAT_FULL_Pin);  // active low
 800260a:	4822      	ldr	r0, [pc, #136]	@ (8002694 <check_dev_charging+0xa4>)
 800260c:	f001 f94a 	bl	80038a4 <HAL_GPIO_ReadPin>

    // ---- Determine charging state ----

    bool charging     = (chg == 1 && full == 0);
 8002610:	4c21      	ldr	r4, [pc, #132]	@ (8002698 <check_dev_charging+0xa8>)
 8002612:	4e22      	ldr	r6, [pc, #136]	@ (800269c <check_dev_charging+0xac>)
 8002614:	2d01      	cmp	r5, #1
 8002616:	d11b      	bne.n	8002650 <check_dev_charging+0x60>
    	 charge_full  = (chg == 0 && full == 1);
 8002618:	2300      	movs	r3, #0
 800261a:	7023      	strb	r3, [r4, #0]
    bool charger_none = (chg == 1 && full == 1);
    //bool unknown_state  = (chg == 0 && full == 0);   // should not happen

    // If device is connected to charger (charging OR full)
    if (charging || charge_full) {
 800261c:	4298      	cmp	r0, r3
 800261e:	d01f      	beq.n	8002660 <check_dev_charging+0x70>
        dev_charging_flag = true;
        treatment_led(duty_zero);
        Set_Color("red");    // Device is charging or just connected
    }

    if(dev_charging_flag) {
 8002620:	7833      	ldrb	r3, [r6, #0]
 8002622:	2b00      	cmp	r3, #0
 8002624:	d013      	beq.n	800264e <check_dev_charging+0x5e>

        chg  = HAL_GPIO_ReadPin(GPIOB, BAT_CHG_Pin);
 8002626:	2120      	movs	r1, #32
 8002628:	481a      	ldr	r0, [pc, #104]	@ (8002694 <check_dev_charging+0xa4>)
 800262a:	f001 f93b 	bl	80038a4 <HAL_GPIO_ReadPin>
        full = HAL_GPIO_ReadPin(GPIOB, BAT_FULL_Pin);
 800262e:	2110      	movs	r1, #16
        chg  = HAL_GPIO_ReadPin(GPIOB, BAT_CHG_Pin);
 8002630:	0005      	movs	r5, r0
        full = HAL_GPIO_ReadPin(GPIOB, BAT_FULL_Pin);
 8002632:	4818      	ldr	r0, [pc, #96]	@ (8002694 <check_dev_charging+0xa4>)
 8002634:	f001 f936 	bl	80038a4 <HAL_GPIO_ReadPin>

        charging     = (chg == 1 && full == 0);
        charge_full  = (chg == 0 && full == 1);
 8002638:	2d00      	cmp	r5, #0
 800263a:	d11f      	bne.n	800267c <check_dev_charging+0x8c>
 800263c:	2801      	cmp	r0, #1
 800263e:	d11b      	bne.n	8002678 <check_dev_charging+0x88>
 8002640:	7020      	strb	r0, [r4, #0]
        charger_none = (chg == 1 && full == 1);
        //unknown_state  = (chg == 0 && full == 0);

        if (charge_full) {
            Set_Color("green");   // Battery full
 8002642:	4817      	ldr	r0, [pc, #92]	@ (80026a0 <check_dev_charging+0xb0>)
 8002644:	f7ff fdda 	bl	80021fc <Set_Color>
            shutdown_routine();   // Charger removed → shutdown
        }



        HAL_Delay(100);
 8002648:	2064      	movs	r0, #100	@ 0x64
 800264a:	f000 fb05 	bl	8002c58 <HAL_Delay>
    }
}
 800264e:	bd70      	pop	{r4, r5, r6, pc}
    	 charge_full  = (chg == 0 && full == 1);
 8002650:	2d00      	cmp	r5, #0
 8002652:	d10e      	bne.n	8002672 <check_dev_charging+0x82>
 8002654:	1e43      	subs	r3, r0, #1
 8002656:	425a      	negs	r2, r3
 8002658:	4153      	adcs	r3, r2
 800265a:	7023      	strb	r3, [r4, #0]
    if (charging || charge_full) {
 800265c:	2801      	cmp	r0, #1
 800265e:	d1df      	bne.n	8002620 <check_dev_charging+0x30>
        dev_charging_flag = true;
 8002660:	2301      	movs	r3, #1
        treatment_led(duty_zero);
 8002662:	2000      	movs	r0, #0
        dev_charging_flag = true;
 8002664:	7033      	strb	r3, [r6, #0]
        treatment_led(duty_zero);
 8002666:	f7ff fd9d 	bl	80021a4 <treatment_led>
        Set_Color("red");    // Device is charging or just connected
 800266a:	480e      	ldr	r0, [pc, #56]	@ (80026a4 <check_dev_charging+0xb4>)
 800266c:	f7ff fdc6 	bl	80021fc <Set_Color>
 8002670:	e7d6      	b.n	8002620 <check_dev_charging+0x30>
    	 charge_full  = (chg == 0 && full == 1);
 8002672:	2300      	movs	r3, #0
 8002674:	7023      	strb	r3, [r4, #0]
    if (charging || charge_full) {
 8002676:	e7d3      	b.n	8002620 <check_dev_charging+0x30>
        charge_full  = (chg == 0 && full == 1);
 8002678:	7025      	strb	r5, [r4, #0]
        if (charge_full) {
 800267a:	e7e5      	b.n	8002648 <check_dev_charging+0x58>
        charge_full  = (chg == 0 && full == 1);
 800267c:	2300      	movs	r3, #0
 800267e:	7023      	strb	r3, [r4, #0]
        charger_none = (chg == 1 && full == 1);
 8002680:	2d01      	cmp	r5, #1
 8002682:	d1e1      	bne.n	8002648 <check_dev_charging+0x58>
        if (charger_none) {
 8002684:	2801      	cmp	r0, #1
 8002686:	d1df      	bne.n	8002648 <check_dev_charging+0x58>
            shutdown_routine();   // Charger removed → shutdown
 8002688:	f7ff fe72 	bl	8002370 <shutdown_routine>
 800268c:	e7dc      	b.n	8002648 <check_dev_charging+0x58>
 800268e:	46c0      	nop			@ (mov r8, r8)
 8002690:	50000800 	.word	0x50000800
 8002694:	50000400 	.word	0x50000400
 8002698:	200008e8 	.word	0x200008e8
 800269c:	200000b3 	.word	0x200000b3
 80026a0:	08006618 	.word	0x08006618
 80026a4:	08006614 	.word	0x08006614

080026a8 <self_diagnosis>:
 * @brief This function is triggered when self_diagnosis command is received from the BLE.
 *
 * 	Checks the treatment LEDs by toggling them ON and OFF.
 *  Treatment Session duration does not resets.
 */
void self_diagnosis(){
 80026a8:	b510      	push	{r4, lr}

			treatment_led(duty_zero);
			HAL_Delay(led_delay);
 80026aa:	24fa      	movs	r4, #250	@ 0xfa
 80026ac:	0064      	lsls	r4, r4, #1
			treatment_led(duty_zero);
 80026ae:	2000      	movs	r0, #0
 80026b0:	f7ff fd78 	bl	80021a4 <treatment_led>
			HAL_Delay(led_delay);
 80026b4:	0020      	movs	r0, r4
 80026b6:	f000 facf 	bl	8002c58 <HAL_Delay>
			treatment_led(default_duty);
 80026ba:	2041      	movs	r0, #65	@ 0x41
 80026bc:	f7ff fd72 	bl	80021a4 <treatment_led>
			HAL_Delay(led_delay);
 80026c0:	0020      	movs	r0, r4
 80026c2:	f000 fac9 	bl	8002c58 <HAL_Delay>
			treatment_led(duty_zero);
 80026c6:	2000      	movs	r0, #0
 80026c8:	f7ff fd6c 	bl	80021a4 <treatment_led>
			//sendResponse(seq, 0x05, 0x02, 1);
}
 80026cc:	bd10      	pop	{r4, pc}
	...

080026d0 <clinical_mode_check>:
 * This function Checks the clinical_mode_flag state from the flash memory.
 * 	if clinical_mode_flag is true then starts the treatment session.
 * 	 else makes the session_end_flag true, then later this flag state is checked in the session_state();
 *
 */
void clinical_mode_check(){
 80026d0:	b510      	push	{r4, lr}
	clinical_mode_flag = Flash_ReadFlag();
 80026d2:	f7ff fb37 	bl	8001d44 <Flash_ReadFlag>
 80026d6:	4b02      	ldr	r3, [pc, #8]	@ (80026e0 <clinical_mode_check+0x10>)
 80026d8:	7018      	strb	r0, [r3, #0]


	  if(clinical_mode_flag){
 80026da:	4b02      	ldr	r3, [pc, #8]	@ (80026e4 <clinical_mode_check+0x14>)
 80026dc:	7018      	strb	r0, [r3, #0]

		  touchlocked_flag = 1;

	  }else touchlocked_flag = 0;
}
 80026de:	bd10      	pop	{r4, pc}
 80026e0:	200000b4 	.word	0x200000b4
 80026e4:	200000b0 	.word	0x200000b0

080026e8 <HAL_MspInit>:

  /* USER CODE BEGIN MspInit 0 */

  /* USER CODE END MspInit 0 */

  __HAL_RCC_SYSCFG_CLK_ENABLE();
 80026e8:	2101      	movs	r1, #1
 80026ea:	4b0a      	ldr	r3, [pc, #40]	@ (8002714 <HAL_MspInit+0x2c>)
{
 80026ec:	b082      	sub	sp, #8
  __HAL_RCC_SYSCFG_CLK_ENABLE();
 80026ee:	6c1a      	ldr	r2, [r3, #64]	@ 0x40
 80026f0:	430a      	orrs	r2, r1
 80026f2:	641a      	str	r2, [r3, #64]	@ 0x40
 80026f4:	6c1a      	ldr	r2, [r3, #64]	@ 0x40
 80026f6:	400a      	ands	r2, r1
  __HAL_RCC_PWR_CLK_ENABLE();
 80026f8:	2180      	movs	r1, #128	@ 0x80
  __HAL_RCC_SYSCFG_CLK_ENABLE();
 80026fa:	9200      	str	r2, [sp, #0]
 80026fc:	9a00      	ldr	r2, [sp, #0]
  __HAL_RCC_PWR_CLK_ENABLE();
 80026fe:	6bda      	ldr	r2, [r3, #60]	@ 0x3c
 8002700:	0549      	lsls	r1, r1, #21
 8002702:	430a      	orrs	r2, r1
 8002704:	63da      	str	r2, [r3, #60]	@ 0x3c
 8002706:	6bdb      	ldr	r3, [r3, #60]	@ 0x3c
 8002708:	400b      	ands	r3, r1
 800270a:	9301      	str	r3, [sp, #4]
 800270c:	9b01      	ldr	r3, [sp, #4]
  /* System interrupt init*/

  /* USER CODE BEGIN MspInit 1 */

  /* USER CODE END MspInit 1 */
}
 800270e:	b002      	add	sp, #8
 8002710:	4770      	bx	lr
 8002712:	46c0      	nop			@ (mov r8, r8)
 8002714:	40021000 	.word	0x40021000

08002718 <HAL_ADC_MspInit>:
  * This function configures the hardware resources used in this example
  * @param hadc: ADC handle pointer
  * @retval None
  */
void HAL_ADC_MspInit(ADC_HandleTypeDef* hadc)
{
 8002718:	b510      	push	{r4, lr}
 800271a:	0004      	movs	r4, r0
 800271c:	b088      	sub	sp, #32
  GPIO_InitTypeDef GPIO_InitStruct = {0};
 800271e:	2214      	movs	r2, #20
 8002720:	2100      	movs	r1, #0
 8002722:	a803      	add	r0, sp, #12
 8002724:	f003 fa9e 	bl	8005c64 <memset>
  if(hadc->Instance==ADC1)
 8002728:	4b10      	ldr	r3, [pc, #64]	@ (800276c <HAL_ADC_MspInit+0x54>)
 800272a:	6822      	ldr	r2, [r4, #0]
 800272c:	429a      	cmp	r2, r3
 800272e:	d11a      	bne.n	8002766 <HAL_ADC_MspInit+0x4e>
  {
    /* USER CODE BEGIN ADC1_MspInit 0 */

    /* USER CODE END ADC1_MspInit 0 */
    /* Peripheral clock enable */
    __HAL_RCC_ADC_CLK_ENABLE();
 8002730:	2180      	movs	r1, #128	@ 0x80
 8002732:	4b0f      	ldr	r3, [pc, #60]	@ (8002770 <HAL_ADC_MspInit+0x58>)
 8002734:	0349      	lsls	r1, r1, #13
 8002736:	6c1a      	ldr	r2, [r3, #64]	@ 0x40
    PA6     ------> ADC1_IN6
    */
    GPIO_InitStruct.Pin = VSENS_Pin|LDR_Pin;
    GPIO_InitStruct.Mode = GPIO_MODE_ANALOG;
    GPIO_InitStruct.Pull = GPIO_NOPULL;
    HAL_GPIO_Init(GPIOA, &GPIO_InitStruct);
 8002738:	20a0      	movs	r0, #160	@ 0xa0
    __HAL_RCC_ADC_CLK_ENABLE();
 800273a:	430a      	orrs	r2, r1
 800273c:	641a      	str	r2, [r3, #64]	@ 0x40
 800273e:	6c1a      	ldr	r2, [r3, #64]	@ 0x40
    HAL_GPIO_Init(GPIOA, &GPIO_InitStruct);
 8002740:	05c0      	lsls	r0, r0, #23
    __HAL_RCC_ADC_CLK_ENABLE();
 8002742:	400a      	ands	r2, r1
    __HAL_RCC_GPIOA_CLK_ENABLE();
 8002744:	2101      	movs	r1, #1
    __HAL_RCC_ADC_CLK_ENABLE();
 8002746:	9201      	str	r2, [sp, #4]
 8002748:	9a01      	ldr	r2, [sp, #4]
    __HAL_RCC_GPIOA_CLK_ENABLE();
 800274a:	6b5a      	ldr	r2, [r3, #52]	@ 0x34
 800274c:	430a      	orrs	r2, r1
 800274e:	635a      	str	r2, [r3, #52]	@ 0x34
 8002750:	6b5b      	ldr	r3, [r3, #52]	@ 0x34
 8002752:	400b      	ands	r3, r1
 8002754:	9302      	str	r3, [sp, #8]
 8002756:	9b02      	ldr	r3, [sp, #8]
    GPIO_InitStruct.Pin = VSENS_Pin|LDR_Pin;
 8002758:	2350      	movs	r3, #80	@ 0x50
    HAL_GPIO_Init(GPIOA, &GPIO_InitStruct);
 800275a:	a903      	add	r1, sp, #12
    GPIO_InitStruct.Pin = VSENS_Pin|LDR_Pin;
 800275c:	9303      	str	r3, [sp, #12]
    GPIO_InitStruct.Mode = GPIO_MODE_ANALOG;
 800275e:	3b4d      	subs	r3, #77	@ 0x4d
 8002760:	9304      	str	r3, [sp, #16]
    HAL_GPIO_Init(GPIOA, &GPIO_InitStruct);
 8002762:	f000 ffed 	bl	8003740 <HAL_GPIO_Init>

    /* USER CODE END ADC1_MspInit 1 */

  }

}
 8002766:	b008      	add	sp, #32
 8002768:	bd10      	pop	{r4, pc}
 800276a:	46c0      	nop			@ (mov r8, r8)
 800276c:	40012400 	.word	0x40012400
 8002770:	40021000 	.word	0x40021000

08002774 <HAL_I2C_MspInit>:
  * This function configures the hardware resources used in this example
  * @param hi2c: I2C handle pointer
  * @retval None
  */
void HAL_I2C_MspInit(I2C_HandleTypeDef* hi2c)
{
 8002774:	b510      	push	{r4, lr}
 8002776:	0004      	movs	r4, r0
 8002778:	b088      	sub	sp, #32
  GPIO_InitTypeDef GPIO_InitStruct = {0};
 800277a:	2214      	movs	r2, #20
 800277c:	2100      	movs	r1, #0
 800277e:	a803      	add	r0, sp, #12
 8002780:	f003 fa70 	bl	8005c64 <memset>
  if(hi2c->Instance==I2C2)
 8002784:	4b11      	ldr	r3, [pc, #68]	@ (80027cc <HAL_I2C_MspInit+0x58>)
 8002786:	6822      	ldr	r2, [r4, #0]
 8002788:	429a      	cmp	r2, r3
 800278a:	d11d      	bne.n	80027c8 <HAL_I2C_MspInit+0x54>
  {
    /* USER CODE BEGIN I2C2_MspInit 0 */

    /* USER CODE END I2C2_MspInit 0 */

    __HAL_RCC_GPIOA_CLK_ENABLE();
 800278c:	2201      	movs	r2, #1
 800278e:	4c10      	ldr	r4, [pc, #64]	@ (80027d0 <HAL_I2C_MspInit+0x5c>)
    GPIO_InitStruct.Pin = GPIO_PIN_11|GPIO_PIN_12;
    GPIO_InitStruct.Mode = GPIO_MODE_AF_OD;
    GPIO_InitStruct.Pull = GPIO_NOPULL;
    GPIO_InitStruct.Speed = GPIO_SPEED_FREQ_LOW;
    GPIO_InitStruct.Alternate = GPIO_AF6_I2C2;
    HAL_GPIO_Init(GPIOA, &GPIO_InitStruct);
 8002790:	20a0      	movs	r0, #160	@ 0xa0
    __HAL_RCC_GPIOA_CLK_ENABLE();
 8002792:	6b63      	ldr	r3, [r4, #52]	@ 0x34
    HAL_GPIO_Init(GPIOA, &GPIO_InitStruct);
 8002794:	a903      	add	r1, sp, #12
    __HAL_RCC_GPIOA_CLK_ENABLE();
 8002796:	4313      	orrs	r3, r2
 8002798:	6363      	str	r3, [r4, #52]	@ 0x34
 800279a:	6b63      	ldr	r3, [r4, #52]	@ 0x34
    HAL_GPIO_Init(GPIOA, &GPIO_InitStruct);
 800279c:	05c0      	lsls	r0, r0, #23
    __HAL_RCC_GPIOA_CLK_ENABLE();
 800279e:	4013      	ands	r3, r2
 80027a0:	9301      	str	r3, [sp, #4]
 80027a2:	9b01      	ldr	r3, [sp, #4]
    GPIO_InitStruct.Pin = GPIO_PIN_11|GPIO_PIN_12;
 80027a4:	23c0      	movs	r3, #192	@ 0xc0
 80027a6:	015b      	lsls	r3, r3, #5
 80027a8:	9303      	str	r3, [sp, #12]
    GPIO_InitStruct.Mode = GPIO_MODE_AF_OD;
 80027aa:	2312      	movs	r3, #18
 80027ac:	9304      	str	r3, [sp, #16]
    GPIO_InitStruct.Alternate = GPIO_AF6_I2C2;
 80027ae:	3b0c      	subs	r3, #12
 80027b0:	9307      	str	r3, [sp, #28]
    HAL_GPIO_Init(GPIOA, &GPIO_InitStruct);
 80027b2:	f000 ffc5 	bl	8003740 <HAL_GPIO_Init>

    /* Peripheral clock enable */
    __HAL_RCC_I2C2_CLK_ENABLE();
 80027b6:	2280      	movs	r2, #128	@ 0x80
 80027b8:	6be3      	ldr	r3, [r4, #60]	@ 0x3c
 80027ba:	03d2      	lsls	r2, r2, #15
 80027bc:	4313      	orrs	r3, r2
 80027be:	63e3      	str	r3, [r4, #60]	@ 0x3c
 80027c0:	6be3      	ldr	r3, [r4, #60]	@ 0x3c
 80027c2:	4013      	ands	r3, r2
 80027c4:	9302      	str	r3, [sp, #8]
 80027c6:	9b02      	ldr	r3, [sp, #8]

    /* USER CODE END I2C2_MspInit 1 */

  }

}
 80027c8:	b008      	add	sp, #32
 80027ca:	bd10      	pop	{r4, pc}
 80027cc:	40005800 	.word	0x40005800
 80027d0:	40021000 	.word	0x40021000

080027d4 <HAL_TIM_Base_MspInit>:
  * This function configures the hardware resources used in this example
  * @param htim_base: TIM_Base handle pointer
  * @retval None
  */
void HAL_TIM_Base_MspInit(TIM_HandleTypeDef* htim_base)
{
 80027d4:	b510      	push	{r4, lr}
 80027d6:	0004      	movs	r4, r0
 80027d8:	b08c      	sub	sp, #48	@ 0x30
  RCC_PeriphCLKInitTypeDef PeriphClkInit = {0};
 80027da:	2228      	movs	r2, #40	@ 0x28
 80027dc:	2100      	movs	r1, #0
 80027de:	a802      	add	r0, sp, #8
 80027e0:	f003 fa40 	bl	8005c64 <memset>
  if(htim_base->Instance==TIM1)
 80027e4:	4b0c      	ldr	r3, [pc, #48]	@ (8002818 <HAL_TIM_Base_MspInit+0x44>)
 80027e6:	6822      	ldr	r2, [r4, #0]
 80027e8:	429a      	cmp	r2, r3
 80027ea:	d113      	bne.n	8002814 <HAL_TIM_Base_MspInit+0x40>

    /* USER CODE END TIM1_MspInit 0 */

  /** Initializes the peripherals clocks
  */
    PeriphClkInit.PeriphClockSelection = RCC_PERIPHCLK_TIM1;
 80027ec:	2380      	movs	r3, #128	@ 0x80
    PeriphClkInit.Tim1ClockSelection = RCC_TIM1CLKSOURCE_PCLK1;
    if (HAL_RCCEx_PeriphCLKConfig(&PeriphClkInit) != HAL_OK)
 80027ee:	a802      	add	r0, sp, #8
    PeriphClkInit.PeriphClockSelection = RCC_PERIPHCLK_TIM1;
 80027f0:	039b      	lsls	r3, r3, #14
 80027f2:	9302      	str	r3, [sp, #8]
    if (HAL_RCCEx_PeriphCLKConfig(&PeriphClkInit) != HAL_OK)
 80027f4:	f001 fc5c 	bl	80040b0 <HAL_RCCEx_PeriphCLKConfig>
 80027f8:	2800      	cmp	r0, #0
 80027fa:	d001      	beq.n	8002800 <HAL_TIM_Base_MspInit+0x2c>
    {
      Error_Handler();
 80027fc:	f7ff fcc2 	bl	8002184 <Error_Handler>
    }

    /* Peripheral clock enable */
    __HAL_RCC_TIM1_CLK_ENABLE();
 8002800:	2180      	movs	r1, #128	@ 0x80
 8002802:	4b06      	ldr	r3, [pc, #24]	@ (800281c <HAL_TIM_Base_MspInit+0x48>)
 8002804:	0109      	lsls	r1, r1, #4
 8002806:	6c1a      	ldr	r2, [r3, #64]	@ 0x40
 8002808:	430a      	orrs	r2, r1
 800280a:	641a      	str	r2, [r3, #64]	@ 0x40
 800280c:	6c1b      	ldr	r3, [r3, #64]	@ 0x40
 800280e:	400b      	ands	r3, r1
 8002810:	9301      	str	r3, [sp, #4]
 8002812:	9b01      	ldr	r3, [sp, #4]

    /* USER CODE END TIM1_MspInit 1 */

  }

}
 8002814:	b00c      	add	sp, #48	@ 0x30
 8002816:	bd10      	pop	{r4, pc}
 8002818:	40012c00 	.word	0x40012c00
 800281c:	40021000 	.word	0x40021000

08002820 <HAL_TIM_PWM_MspInit>:
  * @param htim_pwm: TIM_PWM handle pointer
  * @retval None
  */
void HAL_TIM_PWM_MspInit(TIM_HandleTypeDef* htim_pwm)
{
  if(htim_pwm->Instance==TIM3)
 8002820:	4b07      	ldr	r3, [pc, #28]	@ (8002840 <HAL_TIM_PWM_MspInit+0x20>)
 8002822:	6802      	ldr	r2, [r0, #0]
{
 8002824:	b082      	sub	sp, #8
  if(htim_pwm->Instance==TIM3)
 8002826:	429a      	cmp	r2, r3
 8002828:	d108      	bne.n	800283c <HAL_TIM_PWM_MspInit+0x1c>
    /* USER CODE BEGIN TIM3_MspInit 0 */

    /* USER CODE END TIM3_MspInit 0 */

    /* Peripheral clock enable */
    __HAL_RCC_TIM3_CLK_ENABLE();
 800282a:	2102      	movs	r1, #2
 800282c:	4b05      	ldr	r3, [pc, #20]	@ (8002844 <HAL_TIM_PWM_MspInit+0x24>)
 800282e:	6bda      	ldr	r2, [r3, #60]	@ 0x3c
 8002830:	430a      	orrs	r2, r1
 8002832:	63da      	str	r2, [r3, #60]	@ 0x3c
 8002834:	6bdb      	ldr	r3, [r3, #60]	@ 0x3c
 8002836:	400b      	ands	r3, r1
 8002838:	9301      	str	r3, [sp, #4]
 800283a:	9b01      	ldr	r3, [sp, #4]

    /* USER CODE END TIM3_MspInit 1 */

  }

}
 800283c:	b002      	add	sp, #8
 800283e:	4770      	bx	lr
 8002840:	40000400 	.word	0x40000400
 8002844:	40021000 	.word	0x40021000

08002848 <HAL_TIM_MspPostInit>:

void HAL_TIM_MspPostInit(TIM_HandleTypeDef* htim)
{
 8002848:	b510      	push	{r4, lr}
 800284a:	0004      	movs	r4, r0
 800284c:	b088      	sub	sp, #32
  GPIO_InitTypeDef GPIO_InitStruct = {0};
 800284e:	2214      	movs	r2, #20
 8002850:	2100      	movs	r1, #0
 8002852:	a803      	add	r0, sp, #12
 8002854:	f003 fa06 	bl	8005c64 <memset>
  if(htim->Instance==TIM1)
 8002858:	6823      	ldr	r3, [r4, #0]
 800285a:	4a17      	ldr	r2, [pc, #92]	@ (80028b8 <HAL_TIM_MspPostInit+0x70>)
 800285c:	4293      	cmp	r3, r2
 800285e:	d115      	bne.n	800288c <HAL_TIM_MspPostInit+0x44>
  {
    /* USER CODE BEGIN TIM1_MspPostInit 0 */

    /* USER CODE END TIM1_MspPostInit 0 */
    __HAL_RCC_GPIOA_CLK_ENABLE();
 8002860:	2101      	movs	r1, #1
 8002862:	4b16      	ldr	r3, [pc, #88]	@ (80028bc <HAL_TIM_MspPostInit+0x74>)
    GPIO_InitStruct.Pin = BTM_LED_Pin;
    GPIO_InitStruct.Mode = GPIO_MODE_AF_PP;
    GPIO_InitStruct.Pull = GPIO_NOPULL;
    GPIO_InitStruct.Speed = GPIO_SPEED_FREQ_LOW;
    GPIO_InitStruct.Alternate = GPIO_AF2_TIM1;
    HAL_GPIO_Init(BTM_LED_GPIO_Port, &GPIO_InitStruct);
 8002864:	20a0      	movs	r0, #160	@ 0xa0
    __HAL_RCC_GPIOA_CLK_ENABLE();
 8002866:	6b5a      	ldr	r2, [r3, #52]	@ 0x34
    HAL_GPIO_Init(BTM_LED_GPIO_Port, &GPIO_InitStruct);
 8002868:	05c0      	lsls	r0, r0, #23
    __HAL_RCC_GPIOA_CLK_ENABLE();
 800286a:	430a      	orrs	r2, r1
 800286c:	635a      	str	r2, [r3, #52]	@ 0x34
 800286e:	6b5b      	ldr	r3, [r3, #52]	@ 0x34
 8002870:	400b      	ands	r3, r1
 8002872:	9301      	str	r3, [sp, #4]
 8002874:	9b01      	ldr	r3, [sp, #4]
    GPIO_InitStruct.Pin = BTM_LED_Pin;
 8002876:	2380      	movs	r3, #128	@ 0x80
 8002878:	005b      	lsls	r3, r3, #1
 800287a:	9303      	str	r3, [sp, #12]
    GPIO_InitStruct.Mode = GPIO_MODE_AF_PP;
 800287c:	3bfe      	subs	r3, #254	@ 0xfe
 800287e:	9304      	str	r3, [sp, #16]
    GPIO_InitStruct.Alternate = GPIO_AF2_TIM1;
 8002880:	9307      	str	r3, [sp, #28]
    HAL_GPIO_Init(BTM_LED_GPIO_Port, &GPIO_InitStruct);
 8002882:	a903      	add	r1, sp, #12
    GPIO_InitStruct.Pin = BTM_NIR_Pin;
    GPIO_InitStruct.Mode = GPIO_MODE_AF_PP;
    GPIO_InitStruct.Pull = GPIO_NOPULL;
    GPIO_InitStruct.Speed = GPIO_SPEED_FREQ_LOW;
    GPIO_InitStruct.Alternate = GPIO_AF1_TIM3;
    HAL_GPIO_Init(BTM_NIR_GPIO_Port, &GPIO_InitStruct);
 8002884:	f000 ff5c 	bl	8003740 <HAL_GPIO_Init>
    /* USER CODE BEGIN TIM3_MspPostInit 1 */

    /* USER CODE END TIM3_MspPostInit 1 */
  }

}
 8002888:	b008      	add	sp, #32
 800288a:	bd10      	pop	{r4, pc}
  else if(htim->Instance==TIM3)
 800288c:	4a0c      	ldr	r2, [pc, #48]	@ (80028c0 <HAL_TIM_MspPostInit+0x78>)
 800288e:	4293      	cmp	r3, r2
 8002890:	d1fa      	bne.n	8002888 <HAL_TIM_MspPostInit+0x40>
    __HAL_RCC_GPIOC_CLK_ENABLE();
 8002892:	2104      	movs	r1, #4
 8002894:	4b09      	ldr	r3, [pc, #36]	@ (80028bc <HAL_TIM_MspPostInit+0x74>)
    HAL_GPIO_Init(BTM_NIR_GPIO_Port, &GPIO_InitStruct);
 8002896:	480b      	ldr	r0, [pc, #44]	@ (80028c4 <HAL_TIM_MspPostInit+0x7c>)
    __HAL_RCC_GPIOC_CLK_ENABLE();
 8002898:	6b5a      	ldr	r2, [r3, #52]	@ 0x34
 800289a:	430a      	orrs	r2, r1
 800289c:	635a      	str	r2, [r3, #52]	@ 0x34
 800289e:	6b5b      	ldr	r3, [r3, #52]	@ 0x34
 80028a0:	400b      	ands	r3, r1
 80028a2:	9302      	str	r3, [sp, #8]
 80028a4:	9b02      	ldr	r3, [sp, #8]
    GPIO_InitStruct.Pin = BTM_NIR_Pin;
 80028a6:	2340      	movs	r3, #64	@ 0x40
 80028a8:	9303      	str	r3, [sp, #12]
    GPIO_InitStruct.Mode = GPIO_MODE_AF_PP;
 80028aa:	3b3e      	subs	r3, #62	@ 0x3e
 80028ac:	9304      	str	r3, [sp, #16]
    GPIO_InitStruct.Alternate = GPIO_AF1_TIM3;
 80028ae:	3b01      	subs	r3, #1
 80028b0:	9307      	str	r3, [sp, #28]
    HAL_GPIO_Init(BTM_NIR_GPIO_Port, &GPIO_InitStruct);
 80028b2:	a903      	add	r1, sp, #12
 80028b4:	e7e6      	b.n	8002884 <HAL_TIM_MspPostInit+0x3c>
 80028b6:	46c0      	nop			@ (mov r8, r8)
 80028b8:	40012c00 	.word	0x40012c00
 80028bc:	40021000 	.word	0x40021000
 80028c0:	40000400 	.word	0x40000400
 80028c4:	50000800 	.word	0x50000800

080028c8 <HAL_UART_MspInit>:
  * This function configures the hardware resources used in this example
  * @param huart: UART handle pointer
  * @retval None
  */
void HAL_UART_MspInit(UART_HandleTypeDef* huart)
{
 80028c8:	b510      	push	{r4, lr}
 80028ca:	0004      	movs	r4, r0
 80028cc:	b094      	sub	sp, #80	@ 0x50
  GPIO_InitTypeDef GPIO_InitStruct = {0};
 80028ce:	2214      	movs	r2, #20
 80028d0:	2100      	movs	r1, #0
 80028d2:	a805      	add	r0, sp, #20
 80028d4:	f003 f9c6 	bl	8005c64 <memset>
  RCC_PeriphCLKInitTypeDef PeriphClkInit = {0};
 80028d8:	2228      	movs	r2, #40	@ 0x28
 80028da:	2100      	movs	r1, #0
 80028dc:	a80a      	add	r0, sp, #40	@ 0x28
 80028de:	f003 f9c1 	bl	8005c64 <memset>
  if(huart->Instance==USART1)
 80028e2:	6823      	ldr	r3, [r4, #0]
 80028e4:	4a29      	ldr	r2, [pc, #164]	@ (800298c <HAL_UART_MspInit+0xc4>)
 80028e6:	4293      	cmp	r3, r2
 80028e8:	d127      	bne.n	800293a <HAL_UART_MspInit+0x72>

    /* USER CODE END USART1_MspInit 0 */

  /** Initializes the peripherals clocks
  */
    PeriphClkInit.PeriphClockSelection = RCC_PERIPHCLK_USART1;
 80028ea:	2301      	movs	r3, #1
    PeriphClkInit.Usart1ClockSelection = RCC_USART1CLKSOURCE_PCLK1;
    if (HAL_RCCEx_PeriphCLKConfig(&PeriphClkInit) != HAL_OK)
 80028ec:	a80a      	add	r0, sp, #40	@ 0x28
    PeriphClkInit.PeriphClockSelection = RCC_PERIPHCLK_USART1;
 80028ee:	930a      	str	r3, [sp, #40]	@ 0x28
    if (HAL_RCCEx_PeriphCLKConfig(&PeriphClkInit) != HAL_OK)
 80028f0:	f001 fbde 	bl	80040b0 <HAL_RCCEx_PeriphCLKConfig>
 80028f4:	2800      	cmp	r0, #0
 80028f6:	d001      	beq.n	80028fc <HAL_UART_MspInit+0x34>
    {
      Error_Handler();
 80028f8:	f7ff fc44 	bl	8002184 <Error_Handler>
    }

    /* Peripheral clock enable */
    __HAL_RCC_USART1_CLK_ENABLE();
 80028fc:	2180      	movs	r1, #128	@ 0x80
 80028fe:	4b24      	ldr	r3, [pc, #144]	@ (8002990 <HAL_UART_MspInit+0xc8>)
 8002900:	01c9      	lsls	r1, r1, #7
 8002902:	6c1a      	ldr	r2, [r3, #64]	@ 0x40
    GPIO_InitStruct.Pin = GPIO_PIN_6|GPIO_PIN_7;
    GPIO_InitStruct.Mode = GPIO_MODE_AF_PP;
    GPIO_InitStruct.Pull = GPIO_NOPULL;
    GPIO_InitStruct.Speed = GPIO_SPEED_FREQ_LOW;
    GPIO_InitStruct.Alternate = GPIO_AF0_USART1;
    HAL_GPIO_Init(GPIOB, &GPIO_InitStruct);
 8002904:	4823      	ldr	r0, [pc, #140]	@ (8002994 <HAL_UART_MspInit+0xcc>)
    __HAL_RCC_USART1_CLK_ENABLE();
 8002906:	430a      	orrs	r2, r1
 8002908:	641a      	str	r2, [r3, #64]	@ 0x40
 800290a:	6c1a      	ldr	r2, [r3, #64]	@ 0x40
 800290c:	400a      	ands	r2, r1
 800290e:	9201      	str	r2, [sp, #4]
 8002910:	9a01      	ldr	r2, [sp, #4]
    __HAL_RCC_GPIOB_CLK_ENABLE();
 8002912:	2202      	movs	r2, #2
 8002914:	6b59      	ldr	r1, [r3, #52]	@ 0x34
 8002916:	4311      	orrs	r1, r2
 8002918:	6359      	str	r1, [r3, #52]	@ 0x34
 800291a:	6b5b      	ldr	r3, [r3, #52]	@ 0x34
    HAL_GPIO_Init(GPIOB, &GPIO_InitStruct);
 800291c:	a905      	add	r1, sp, #20
    __HAL_RCC_GPIOB_CLK_ENABLE();
 800291e:	4013      	ands	r3, r2
 8002920:	9302      	str	r3, [sp, #8]
 8002922:	9b02      	ldr	r3, [sp, #8]
    GPIO_InitStruct.Pin = GPIO_PIN_6|GPIO_PIN_7;
 8002924:	23c0      	movs	r3, #192	@ 0xc0
 8002926:	9305      	str	r3, [sp, #20]
    GPIO_InitStruct.Pull = GPIO_NOPULL;
 8002928:	2300      	movs	r3, #0
    GPIO_InitStruct.Mode = GPIO_MODE_AF_PP;
 800292a:	9206      	str	r2, [sp, #24]
    GPIO_InitStruct.Pull = GPIO_NOPULL;
 800292c:	9307      	str	r3, [sp, #28]
    GPIO_InitStruct.Speed = GPIO_SPEED_FREQ_LOW;
 800292e:	9308      	str	r3, [sp, #32]
    GPIO_InitStruct.Alternate = GPIO_AF0_USART1;
 8002930:	9309      	str	r3, [sp, #36]	@ 0x24
    HAL_GPIO_Init(GPIOB, &GPIO_InitStruct);
 8002932:	f000 ff05 	bl	8003740 <HAL_GPIO_Init>
    /* USER CODE BEGIN USART2_MspInit 1 */

    /* USER CODE END USART2_MspInit 1 */
  }

}
 8002936:	b014      	add	sp, #80	@ 0x50
 8002938:	bd10      	pop	{r4, pc}
  else if(huart->Instance==USART2)
 800293a:	4a17      	ldr	r2, [pc, #92]	@ (8002998 <HAL_UART_MspInit+0xd0>)
 800293c:	4293      	cmp	r3, r2
 800293e:	d1fa      	bne.n	8002936 <HAL_UART_MspInit+0x6e>
    __HAL_RCC_USART2_CLK_ENABLE();
 8002940:	2180      	movs	r1, #128	@ 0x80
 8002942:	4b13      	ldr	r3, [pc, #76]	@ (8002990 <HAL_UART_MspInit+0xc8>)
 8002944:	0289      	lsls	r1, r1, #10
 8002946:	6bda      	ldr	r2, [r3, #60]	@ 0x3c
    HAL_GPIO_Init(GPIOA, &GPIO_InitStruct);
 8002948:	20a0      	movs	r0, #160	@ 0xa0
    __HAL_RCC_USART2_CLK_ENABLE();
 800294a:	430a      	orrs	r2, r1
 800294c:	63da      	str	r2, [r3, #60]	@ 0x3c
 800294e:	6bda      	ldr	r2, [r3, #60]	@ 0x3c
    HAL_GPIO_Init(GPIOA, &GPIO_InitStruct);
 8002950:	05c0      	lsls	r0, r0, #23
    __HAL_RCC_USART2_CLK_ENABLE();
 8002952:	400a      	ands	r2, r1
 8002954:	9203      	str	r2, [sp, #12]
 8002956:	9a03      	ldr	r2, [sp, #12]
    __HAL_RCC_GPIOA_CLK_ENABLE();
 8002958:	2201      	movs	r2, #1
 800295a:	6b59      	ldr	r1, [r3, #52]	@ 0x34
 800295c:	4311      	orrs	r1, r2
 800295e:	6359      	str	r1, [r3, #52]	@ 0x34
 8002960:	6b5b      	ldr	r3, [r3, #52]	@ 0x34
    HAL_GPIO_Init(GPIOA, &GPIO_InitStruct);
 8002962:	a905      	add	r1, sp, #20
    __HAL_RCC_GPIOA_CLK_ENABLE();
 8002964:	4013      	ands	r3, r2
 8002966:	9304      	str	r3, [sp, #16]
 8002968:	9b04      	ldr	r3, [sp, #16]
    GPIO_InitStruct.Pin = TXD_Pin|RXD_Pin;
 800296a:	230c      	movs	r3, #12
 800296c:	9305      	str	r3, [sp, #20]
    GPIO_InitStruct.Mode = GPIO_MODE_AF_PP;
 800296e:	3b0a      	subs	r3, #10
 8002970:	9306      	str	r3, [sp, #24]
    GPIO_InitStruct.Alternate = GPIO_AF1_USART2;
 8002972:	9209      	str	r2, [sp, #36]	@ 0x24
    HAL_GPIO_Init(GPIOA, &GPIO_InitStruct);
 8002974:	f000 fee4 	bl	8003740 <HAL_GPIO_Init>
    HAL_NVIC_SetPriority(USART2_IRQn, 0, 0);
 8002978:	2200      	movs	r2, #0
 800297a:	201c      	movs	r0, #28
 800297c:	0011      	movs	r1, r2
 800297e:	f000 fd31 	bl	80033e4 <HAL_NVIC_SetPriority>
    HAL_NVIC_EnableIRQ(USART2_IRQn);
 8002982:	201c      	movs	r0, #28
 8002984:	f000 fd58 	bl	8003438 <HAL_NVIC_EnableIRQ>
}
 8002988:	e7d5      	b.n	8002936 <HAL_UART_MspInit+0x6e>
 800298a:	46c0      	nop			@ (mov r8, r8)
 800298c:	40013800 	.word	0x40013800
 8002990:	40021000 	.word	0x40021000
 8002994:	50000400 	.word	0x50000400
 8002998:	40004400 	.word	0x40004400

0800299c <NMI_Handler>:
{
  /* USER CODE BEGIN NonMaskableInt_IRQn 0 */

  /* USER CODE END NonMaskableInt_IRQn 0 */
  /* USER CODE BEGIN NonMaskableInt_IRQn 1 */
   while (1)
 800299c:	e7fe      	b.n	800299c <NMI_Handler>

0800299e <HardFault_Handler>:
void HardFault_Handler(void)
{
  /* USER CODE BEGIN HardFault_IRQn 0 */

  /* USER CODE END HardFault_IRQn 0 */
  while (1)
 800299e:	e7fe      	b.n	800299e <HardFault_Handler>

080029a0 <SVC_Handler>:

  /* USER CODE END SVC_IRQn 0 */
  /* USER CODE BEGIN SVC_IRQn 1 */

  /* USER CODE END SVC_IRQn 1 */
}
 80029a0:	4770      	bx	lr

080029a2 <PendSV_Handler>:

/**
  * @brief This function handles Pendable request for system service.
  */
void PendSV_Handler(void)
 80029a2:	4770      	bx	lr

080029a4 <SysTick_Handler>:

/**
  * @brief This function handles System tick timer.
  */
void SysTick_Handler(void)
{
 80029a4:	b510      	push	{r4, lr}
  /* USER CODE BEGIN SysTick_IRQn 0 */

  /* USER CODE END SysTick_IRQn 0 */
  HAL_IncTick();
 80029a6:	f000 f945 	bl	8002c34 <HAL_IncTick>
  /* USER CODE BEGIN SysTick_IRQn 1 */

  /* USER CODE END SysTick_IRQn 1 */
}
 80029aa:	bd10      	pop	{r4, pc}

080029ac <USART2_IRQHandler>:

/**
  * @brief This function handles USART2 global interrupt / USART2 wake-up interrupt through EXTI line 26.
  */
void USART2_IRQHandler(void)
{
 80029ac:	b510      	push	{r4, lr}
  /* USER CODE BEGIN USART2_IRQn 0 */

  /* USER CODE END USART2_IRQn 0 */
  HAL_UART_IRQHandler(&huart2);
 80029ae:	4802      	ldr	r0, [pc, #8]	@ (80029b8 <USART2_IRQHandler+0xc>)
 80029b0:	f002 f8ce 	bl	8004b50 <HAL_UART_IRQHandler>
  /* USER CODE BEGIN USART2_IRQn 1 */

  /* USER CODE END USART2_IRQn 1 */
}
 80029b4:	bd10      	pop	{r4, pc}
 80029b6:	46c0      	nop			@ (mov r8, r8)
 80029b8:	20000664 	.word	0x20000664

080029bc <_sbrk>:
void *_sbrk(ptrdiff_t incr)
{
  extern uint8_t _end; /* Symbol defined in the linker script */
  extern uint8_t _estack; /* Symbol defined in the linker script */
  extern uint32_t _Min_Stack_Size; /* Symbol defined in the linker script */
  const uint32_t stack_limit = (uint32_t)&_estack - (uint32_t)&_Min_Stack_Size;
 80029bc:	490b      	ldr	r1, [pc, #44]	@ (80029ec <_sbrk+0x30>)
 80029be:	4a0c      	ldr	r2, [pc, #48]	@ (80029f0 <_sbrk+0x34>)
{
 80029c0:	0003      	movs	r3, r0
  const uint32_t stack_limit = (uint32_t)&_estack - (uint32_t)&_Min_Stack_Size;
 80029c2:	1a52      	subs	r2, r2, r1
  const uint8_t *max_heap = (uint8_t *)stack_limit;
  uint8_t *prev_heap_end;

  /* Initialize heap end at first call */
  if (NULL == __sbrk_heap_end)
 80029c4:	490b      	ldr	r1, [pc, #44]	@ (80029f4 <_sbrk+0x38>)
{
 80029c6:	b510      	push	{r4, lr}
  if (NULL == __sbrk_heap_end)
 80029c8:	6808      	ldr	r0, [r1, #0]
 80029ca:	2800      	cmp	r0, #0
 80029cc:	d101      	bne.n	80029d2 <_sbrk+0x16>
  {
    __sbrk_heap_end = &_end;
 80029ce:	480a      	ldr	r0, [pc, #40]	@ (80029f8 <_sbrk+0x3c>)
 80029d0:	6008      	str	r0, [r1, #0]
  }

  /* Protect heap from growing into the reserved MSP stack */
  if (__sbrk_heap_end + incr > max_heap)
 80029d2:	6808      	ldr	r0, [r1, #0]
 80029d4:	18c3      	adds	r3, r0, r3
 80029d6:	4293      	cmp	r3, r2
 80029d8:	d906      	bls.n	80029e8 <_sbrk+0x2c>
  {
    errno = ENOMEM;
 80029da:	f003 f94b 	bl	8005c74 <__errno>
 80029de:	230c      	movs	r3, #12
 80029e0:	6003      	str	r3, [r0, #0]
    return (void *)-1;
 80029e2:	2001      	movs	r0, #1
 80029e4:	4240      	negs	r0, r0

  prev_heap_end = __sbrk_heap_end;
  __sbrk_heap_end += incr;

  return (void *)prev_heap_end;
}
 80029e6:	bd10      	pop	{r4, pc}
  __sbrk_heap_end += incr;
 80029e8:	600b      	str	r3, [r1, #0]
  return (void *)prev_heap_end;
 80029ea:	e7fc      	b.n	80029e6 <_sbrk+0x2a>
 80029ec:	00000400 	.word	0x00000400
 80029f0:	20002000 	.word	0x20002000
 80029f4:	200008ec 	.word	0x200008ec
 80029f8:	20000a68 	.word	0x20000a68

080029fc <SystemInit>:
{
  /* Configure the Vector Table location -------------------------------------*/
#if defined(USER_VECT_TAB_ADDRESS)
  SCB->VTOR = VECT_TAB_BASE_ADDRESS | VECT_TAB_OFFSET; /* Vector Table Relocation */
#endif /* USER_VECT_TAB_ADDRESS */
}
 80029fc:	4770      	bx	lr
	...

08002a00 <power_on>:
}
*/

void power_on(void){

	if (HAL_GPIO_ReadPin(GPIOC, TOUCH_RD_Pin))
 8002a00:	2180      	movs	r1, #128	@ 0x80
void power_on(void){
 8002a02:	b570      	push	{r4, r5, r6, lr}
	if (HAL_GPIO_ReadPin(GPIOC, TOUCH_RD_Pin))
 8002a04:	480f      	ldr	r0, [pc, #60]	@ (8002a44 <power_on+0x44>)
 8002a06:	0209      	lsls	r1, r1, #8
 8002a08:	f000 ff4c 	bl	80038a4 <HAL_GPIO_ReadPin>
 8002a0c:	2800      	cmp	r0, #0
 8002a0e:	d017      	beq.n	8002a40 <power_on+0x40>
	    {
	        uint32_t startTime = HAL_GetTick();
 8002a10:	f000 f91c 	bl	8002c4c <HAL_GetTick>

	        // Keep checking until debounce time
	        while (HAL_GPIO_ReadPin(GPIOC, TOUCH_RD_Pin))
 8002a14:	2580      	movs	r5, #128	@ 0x80
	        uint32_t startTime = HAL_GetTick();
 8002a16:	0004      	movs	r4, r0
	        while (HAL_GPIO_ReadPin(GPIOC, TOUCH_RD_Pin))
 8002a18:	022d      	lsls	r5, r5, #8
 8002a1a:	0029      	movs	r1, r5
 8002a1c:	4809      	ldr	r0, [pc, #36]	@ (8002a44 <power_on+0x44>)
 8002a1e:	f000 ff41 	bl	80038a4 <HAL_GPIO_ReadPin>
 8002a22:	2800      	cmp	r0, #0
 8002a24:	d00c      	beq.n	8002a40 <power_on+0x40>
	        {
	            if (HAL_GetTick() - startTime >= power_debounce)
 8002a26:	f000 f911 	bl	8002c4c <HAL_GetTick>
 8002a2a:	23fa      	movs	r3, #250	@ 0xfa
 8002a2c:	1b00      	subs	r0, r0, r4
 8002a2e:	00db      	lsls	r3, r3, #3
 8002a30:	4298      	cmp	r0, r3
 8002a32:	d3f2      	bcc.n	8002a1a <power_on+0x1a>
	            {

	            	HAL_GPIO_WritePin(GPIOC, PWR_CTRL_Pin, GPIO_PIN_SET);
 8002a34:	2180      	movs	r1, #128	@ 0x80
 8002a36:	2201      	movs	r2, #1
 8002a38:	4802      	ldr	r0, [pc, #8]	@ (8002a44 <power_on+0x44>)
 8002a3a:	01c9      	lsls	r1, r1, #7
 8002a3c:	f000 ff38 	bl	80038b0 <HAL_GPIO_WritePin>

	            }

	        }
	    }
}
 8002a40:	bd70      	pop	{r4, r5, r6, pc}
 8002a42:	46c0      	nop			@ (mov r8, r8)
 8002a44:	50000800 	.word	0x50000800

08002a48 <touch>:

void touch(){
	if(!dev_charging_flag && !touchlocked_flag){
 8002a48:	4b3d      	ldr	r3, [pc, #244]	@ (8002b40 <touch+0xf8>)
void touch(){
 8002a4a:	b570      	push	{r4, r5, r6, lr}
	if(!dev_charging_flag && !touchlocked_flag){
 8002a4c:	781b      	ldrb	r3, [r3, #0]
 8002a4e:	2b00      	cmp	r3, #0
 8002a50:	d155      	bne.n	8002afe <touch+0xb6>
 8002a52:	4b3c      	ldr	r3, [pc, #240]	@ (8002b44 <touch+0xfc>)
 8002a54:	781b      	ldrb	r3, [r3, #0]
 8002a56:	2b00      	cmp	r3, #0
 8002a58:	d151      	bne.n	8002afe <touch+0xb6>
		bool touch = HAL_GPIO_ReadPin(GPIOC, TOUCH_RD_Pin);
 8002a5a:	2180      	movs	r1, #128	@ 0x80
 8002a5c:	483a      	ldr	r0, [pc, #232]	@ (8002b48 <touch+0x100>)
 8002a5e:	0209      	lsls	r1, r1, #8
 8002a60:	f000 ff20 	bl	80038a4 <HAL_GPIO_ReadPin>
 8002a64:	0005      	movs	r5, r0
		uint32_t cur_time = HAL_GetTick();
 8002a66:	f000 f8f1 	bl	8002c4c <HAL_GetTick>
 8002a6a:	4b38      	ldr	r3, [pc, #224]	@ (8002b4c <touch+0x104>)
 8002a6c:	0004      	movs	r4, r0

		if(touch && !touch_pressed){
 8002a6e:	2d00      	cmp	r5, #0
 8002a70:	d113      	bne.n	8002a9a <touch+0x52>
		if(!touch && touch_pressed){

			touch_pressed = false;
			uint32_t tap_dur = cur_time - start_time;
			if(tap_dur>=30 && tap_dur<=200){
				if(!tap1){
 8002a72:	4a37      	ldr	r2, [pc, #220]	@ (8002b50 <touch+0x108>)
		if(!touch && touch_pressed){
 8002a74:	7818      	ldrb	r0, [r3, #0]
				if(!tap1){
 8002a76:	7811      	ldrb	r1, [r2, #0]
		if(!touch && touch_pressed){
 8002a78:	2800      	cmp	r0, #0
 8002a7a:	d144      	bne.n	8002b06 <touch+0xbe>
					else tap1 = false;
				}

			}
		}
		if(tap1 && (cur_time - tch_rls_time)>600){
 8002a7c:	4b34      	ldr	r3, [pc, #208]	@ (8002b50 <touch+0x108>)
 8002a7e:	781b      	ldrb	r3, [r3, #0]
 8002a80:	2b00      	cmp	r3, #0
 8002a82:	d03c      	beq.n	8002afe <touch+0xb6>
 8002a84:	4b33      	ldr	r3, [pc, #204]	@ (8002b54 <touch+0x10c>)
 8002a86:	681b      	ldr	r3, [r3, #0]
 8002a88:	1ae4      	subs	r4, r4, r3
 8002a8a:	2396      	movs	r3, #150	@ 0x96
 8002a8c:	009b      	lsls	r3, r3, #2
 8002a8e:	429c      	cmp	r4, r3
 8002a90:	d935      	bls.n	8002afe <touch+0xb6>
					else tap1 = false;
 8002a92:	2200      	movs	r2, #0
 8002a94:	4b2e      	ldr	r3, [pc, #184]	@ (8002b50 <touch+0x108>)
 8002a96:	701a      	strb	r2, [r3, #0]
		if(tap1 && (cur_time - tch_rls_time)>600){
 8002a98:	e031      	b.n	8002afe <touch+0xb6>
		if(touch && !touch_pressed){
 8002a9a:	781a      	ldrb	r2, [r3, #0]
 8002a9c:	2a00      	cmp	r2, #0
 8002a9e:	d1ed      	bne.n	8002a7c <touch+0x34>
		    start_time = cur_time;
 8002aa0:	4a2d      	ldr	r2, [pc, #180]	@ (8002b58 <touch+0x110>)
		    while(!man_end_session_flag && HAL_GPIO_ReadPin(GPIOC, TOUCH_RD_Pin) ){
 8002aa2:	2580      	movs	r5, #128	@ 0x80
		    start_time = cur_time;
 8002aa4:	6010      	str	r0, [r2, #0]
		    touch_pressed = true;
 8002aa6:	2201      	movs	r2, #1
		    while(!man_end_session_flag && HAL_GPIO_ReadPin(GPIOC, TOUCH_RD_Pin) ){
 8002aa8:	022d      	lsls	r5, r5, #8
		    touch_pressed = true;
 8002aaa:	701a      	strb	r2, [r3, #0]
		    while(!man_end_session_flag && HAL_GPIO_ReadPin(GPIOC, TOUCH_RD_Pin) ){
 8002aac:	4b2b      	ldr	r3, [pc, #172]	@ (8002b5c <touch+0x114>)
 8002aae:	781e      	ldrb	r6, [r3, #0]
 8002ab0:	2e00      	cmp	r6, #0
 8002ab2:	d1e3      	bne.n	8002a7c <touch+0x34>
 8002ab4:	0029      	movs	r1, r5
 8002ab6:	4824      	ldr	r0, [pc, #144]	@ (8002b48 <touch+0x100>)
 8002ab8:	f000 fef4 	bl	80038a4 <HAL_GPIO_ReadPin>
 8002abc:	2800      	cmp	r0, #0
 8002abe:	d0dd      	beq.n	8002a7c <touch+0x34>
		    	RGB(1, 0, 1);
 8002ac0:	2201      	movs	r2, #1
 8002ac2:	0031      	movs	r1, r6
 8002ac4:	0010      	movs	r0, r2
 8002ac6:	f7ff fbd3 	bl	8002270 <RGB>
		    	HAL_Delay(5);
 8002aca:	2005      	movs	r0, #5
 8002acc:	f000 f8c4 	bl	8002c58 <HAL_Delay>
		    	if((HAL_GetTick() - cur_time)>1000){
 8002ad0:	f000 f8bc 	bl	8002c4c <HAL_GetTick>
 8002ad4:	23fa      	movs	r3, #250	@ 0xfa
 8002ad6:	1b00      	subs	r0, r0, r4
 8002ad8:	009b      	lsls	r3, r3, #2
 8002ada:	4298      	cmp	r0, r3
 8002adc:	d910      	bls.n	8002b00 <touch+0xb8>
                while (HAL_GPIO_ReadPin(GPIOC, TOUCH_RD_Pin)){}
 8002ade:	2480      	movs	r4, #128	@ 0x80
                    manual_session_start();
 8002ae0:	f7ff fcf4 	bl	80024cc <manual_session_start>
                    man_part_count++;
 8002ae4:	4a1e      	ldr	r2, [pc, #120]	@ (8002b60 <touch+0x118>)
                while (HAL_GPIO_ReadPin(GPIOC, TOUCH_RD_Pin)){}
 8002ae6:	0224      	lsls	r4, r4, #8
                    man_part_count++;
 8002ae8:	8813      	ldrh	r3, [r2, #0]
 8002aea:	3301      	adds	r3, #1
 8002aec:	8013      	strh	r3, [r2, #0]
                while (HAL_GPIO_ReadPin(GPIOC, TOUCH_RD_Pin)){}
 8002aee:	0021      	movs	r1, r4
 8002af0:	4815      	ldr	r0, [pc, #84]	@ (8002b48 <touch+0x100>)
 8002af2:	f000 fed7 	bl	80038a4 <HAL_GPIO_ReadPin>
 8002af6:	2800      	cmp	r0, #0
 8002af8:	d1f9      	bne.n	8002aee <touch+0xa6>
                Restore_RGB();
 8002afa:	f7ff fb97 	bl	800222c <Restore_RGB>
			tap1 = false;

		}
	}
}
 8002afe:	bd70      	pop	{r4, r5, r6, pc}
		    	Restore_RGB();
 8002b00:	f7ff fb94 	bl	800222c <Restore_RGB>
 8002b04:	e7d2      	b.n	8002aac <touch+0x64>
			touch_pressed = false;
 8002b06:	701d      	strb	r5, [r3, #0]
			uint32_t tap_dur = cur_time - start_time;
 8002b08:	4b13      	ldr	r3, [pc, #76]	@ (8002b58 <touch+0x110>)
			if(tap_dur>=30 && tap_dur<=200){
 8002b0a:	681b      	ldr	r3, [r3, #0]
 8002b0c:	1ae3      	subs	r3, r4, r3
 8002b0e:	3b1e      	subs	r3, #30
 8002b10:	2baa      	cmp	r3, #170	@ 0xaa
 8002b12:	d8b3      	bhi.n	8002a7c <touch+0x34>
				if(!tap1){
 8002b14:	2900      	cmp	r1, #0
 8002b16:	d104      	bne.n	8002b22 <touch+0xda>
					tap1 = true;
 8002b18:	2301      	movs	r3, #1
 8002b1a:	7013      	strb	r3, [r2, #0]
					tch_rls_time = cur_time;
 8002b1c:	4b0d      	ldr	r3, [pc, #52]	@ (8002b54 <touch+0x10c>)
 8002b1e:	601c      	str	r4, [r3, #0]
		if(tap1 && (cur_time - tch_rls_time)>600){
 8002b20:	e7ed      	b.n	8002afe <touch+0xb6>
					if(!end_control_flag && (cur_time - tch_rls_time)<=600){
 8002b22:	4b10      	ldr	r3, [pc, #64]	@ (8002b64 <touch+0x11c>)
 8002b24:	7819      	ldrb	r1, [r3, #0]
 8002b26:	2900      	cmp	r1, #0
 8002b28:	d1b3      	bne.n	8002a92 <touch+0x4a>
 8002b2a:	2096      	movs	r0, #150	@ 0x96
 8002b2c:	4b09      	ldr	r3, [pc, #36]	@ (8002b54 <touch+0x10c>)
 8002b2e:	0080      	lsls	r0, r0, #2
 8002b30:	681b      	ldr	r3, [r3, #0]
 8002b32:	1ae3      	subs	r3, r4, r3
 8002b34:	4283      	cmp	r3, r0
 8002b36:	d8ac      	bhi.n	8002a92 <touch+0x4a>
						tap1 = false;
 8002b38:	7011      	strb	r1, [r2, #0]
						session_end();
 8002b3a:	f7ff fc5b 	bl	80023f4 <session_end>
 8002b3e:	e79d      	b.n	8002a7c <touch+0x34>
 8002b40:	200000b3 	.word	0x200000b3
 8002b44:	200000b0 	.word	0x200000b0
 8002b48:	50000800 	.word	0x50000800
 8002b4c:	200008f0 	.word	0x200008f0
 8002b50:	200008fc 	.word	0x200008fc
 8002b54:	200008f4 	.word	0x200008f4
 8002b58:	200008f8 	.word	0x200008f8
 8002b5c:	200008e9 	.word	0x200008e9
 8002b60:	200000b8 	.word	0x200000b8
 8002b64:	200008eb 	.word	0x200008eb

08002b68 <Reset_Handler>:

  .section .text.Reset_Handler
  .weak Reset_Handler
  .type Reset_Handler, %function
Reset_Handler:
  ldr   r0, =_estack
 8002b68:	480d      	ldr	r0, [pc, #52]	@ (8002ba0 <LoopForever+0x2>)
  mov   sp, r0          /* set stack pointer */
 8002b6a:	4685      	mov	sp, r0

/* Call the clock system initialization function.*/
  bl  SystemInit
 8002b6c:	f7ff ff46 	bl	80029fc <SystemInit>

/* Copy the data segment initializers from flash to SRAM */
  ldr r0, =_sdata
 8002b70:	480c      	ldr	r0, [pc, #48]	@ (8002ba4 <LoopForever+0x6>)
  ldr r1, =_edata
 8002b72:	490d      	ldr	r1, [pc, #52]	@ (8002ba8 <LoopForever+0xa>)
  ldr r2, =_sidata
 8002b74:	4a0d      	ldr	r2, [pc, #52]	@ (8002bac <LoopForever+0xe>)
  movs r3, #0
 8002b76:	2300      	movs	r3, #0
  b LoopCopyDataInit
 8002b78:	e002      	b.n	8002b80 <LoopCopyDataInit>

08002b7a <CopyDataInit>:

CopyDataInit:
  ldr r4, [r2, r3]
 8002b7a:	58d4      	ldr	r4, [r2, r3]
  str r4, [r0, r3]
 8002b7c:	50c4      	str	r4, [r0, r3]
  adds r3, r3, #4
 8002b7e:	3304      	adds	r3, #4

08002b80 <LoopCopyDataInit>:

LoopCopyDataInit:
  adds r4, r0, r3
 8002b80:	18c4      	adds	r4, r0, r3
  cmp r4, r1
 8002b82:	428c      	cmp	r4, r1
  bcc CopyDataInit
 8002b84:	d3f9      	bcc.n	8002b7a <CopyDataInit>

/* Zero fill the bss segment. */
  ldr r2, =_sbss
 8002b86:	4a0a      	ldr	r2, [pc, #40]	@ (8002bb0 <LoopForever+0x12>)
  ldr r4, =_ebss
 8002b88:	4c0a      	ldr	r4, [pc, #40]	@ (8002bb4 <LoopForever+0x16>)
  movs r3, #0
 8002b8a:	2300      	movs	r3, #0
  b LoopFillZerobss
 8002b8c:	e001      	b.n	8002b92 <LoopFillZerobss>

08002b8e <FillZerobss>:

FillZerobss:
  str  r3, [r2]
 8002b8e:	6013      	str	r3, [r2, #0]
  adds r2, r2, #4
 8002b90:	3204      	adds	r2, #4

08002b92 <LoopFillZerobss>:

LoopFillZerobss:
  cmp r2, r4
 8002b92:	42a2      	cmp	r2, r4
  bcc FillZerobss
 8002b94:	d3fb      	bcc.n	8002b8e <FillZerobss>

/* Call static constructors */
  bl __libc_init_array
 8002b96:	f003 f873 	bl	8005c80 <__libc_init_array>
/* Call the application s entry point.*/
  bl main
 8002b9a:	f7ff f90b 	bl	8001db4 <main>

08002b9e <LoopForever>:

LoopForever:
  b LoopForever
 8002b9e:	e7fe      	b.n	8002b9e <LoopForever>
  ldr   r0, =_estack
 8002ba0:	20002000 	.word	0x20002000
  ldr r0, =_sdata
 8002ba4:	20000000 	.word	0x20000000
  ldr r1, =_edata
 8002ba8:	20000094 	.word	0x20000094
  ldr r2, =_sidata
 8002bac:	0800674c 	.word	0x0800674c
  ldr r2, =_sbss
 8002bb0:	20000094 	.word	0x20000094
  ldr r4, =_ebss
 8002bb4:	20000a68 	.word	0x20000a68

08002bb8 <ADC1_IRQHandler>:
 * @retval None
*/
  .section .text.Default_Handler,"ax",%progbits
Default_Handler:
Infinite_Loop:
  b Infinite_Loop
 8002bb8:	e7fe      	b.n	8002bb8 <ADC1_IRQHandler>
	...

08002bbc <HAL_InitTick>:
  *       implementation  in user file.
  * @param TickPriority Tick interrupt priority.
  * @retval HAL status
  */
__weak HAL_StatusTypeDef HAL_InitTick(uint32_t TickPriority)
{
 8002bbc:	b570      	push	{r4, r5, r6, lr}
  HAL_StatusTypeDef  status = HAL_OK;

  /* Check uwTickFreq for MisraC 2012 (even if uwTickFreq is a enum type that doesn't take the value zero)*/ 
  if ((uint32_t)uwTickFreq != 0U)
 8002bbe:	4b10      	ldr	r3, [pc, #64]	@ (8002c00 <HAL_InitTick+0x44>)
{
 8002bc0:	0005      	movs	r5, r0
  if ((uint32_t)uwTickFreq != 0U)
 8002bc2:	7819      	ldrb	r1, [r3, #0]
 8002bc4:	2900      	cmp	r1, #0
 8002bc6:	d101      	bne.n	8002bcc <HAL_InitTick+0x10>
        status = HAL_ERROR;
      }
    }
    else
    {
      status = HAL_ERROR;
 8002bc8:	2001      	movs	r0, #1
    status = HAL_ERROR;
  }

  /* Return function status */
  return status;
}
 8002bca:	bd70      	pop	{r4, r5, r6, pc}
    if (HAL_SYSTICK_Config(SystemCoreClock / (1000U /(uint32_t)uwTickFreq)) == 0U)
 8002bcc:	20fa      	movs	r0, #250	@ 0xfa
 8002bce:	0080      	lsls	r0, r0, #2
 8002bd0:	f7fd faca 	bl	8000168 <__udivsi3>
 8002bd4:	4c0b      	ldr	r4, [pc, #44]	@ (8002c04 <HAL_InitTick+0x48>)
 8002bd6:	0001      	movs	r1, r0
 8002bd8:	6820      	ldr	r0, [r4, #0]
 8002bda:	f7fd fac5 	bl	8000168 <__udivsi3>
 8002bde:	f000 fc37 	bl	8003450 <HAL_SYSTICK_Config>
 8002be2:	1e04      	subs	r4, r0, #0
 8002be4:	d1f0      	bne.n	8002bc8 <HAL_InitTick+0xc>
      if (TickPriority < (1UL << __NVIC_PRIO_BITS))
 8002be6:	2d03      	cmp	r5, #3
 8002be8:	d8ee      	bhi.n	8002bc8 <HAL_InitTick+0xc>
        HAL_NVIC_SetPriority(SysTick_IRQn, TickPriority, 0U);
 8002bea:	0002      	movs	r2, r0
 8002bec:	2001      	movs	r0, #1
 8002bee:	0029      	movs	r1, r5
 8002bf0:	4240      	negs	r0, r0
 8002bf2:	f000 fbf7 	bl	80033e4 <HAL_NVIC_SetPriority>
        uwTickPrio = TickPriority;
 8002bf6:	4b04      	ldr	r3, [pc, #16]	@ (8002c08 <HAL_InitTick+0x4c>)
 8002bf8:	0020      	movs	r0, r4
 8002bfa:	601d      	str	r5, [r3, #0]
  return status;
 8002bfc:	e7e5      	b.n	8002bca <HAL_InitTick+0xe>
 8002bfe:	46c0      	nop			@ (mov r8, r8)
 8002c00:	20000004 	.word	0x20000004
 8002c04:	20000000 	.word	0x20000000
 8002c08:	20000008 	.word	0x20000008

08002c0c <HAL_Init>:
  __HAL_FLASH_PREFETCH_BUFFER_ENABLE();
 8002c0c:	2380      	movs	r3, #128	@ 0x80
 8002c0e:	4a08      	ldr	r2, [pc, #32]	@ (8002c30 <HAL_Init+0x24>)
 8002c10:	005b      	lsls	r3, r3, #1
 8002c12:	6811      	ldr	r1, [r2, #0]
{
 8002c14:	b510      	push	{r4, lr}
  __HAL_FLASH_PREFETCH_BUFFER_ENABLE();
 8002c16:	430b      	orrs	r3, r1
  if (HAL_InitTick(TICK_INT_PRIORITY) != HAL_OK)
 8002c18:	2003      	movs	r0, #3
  __HAL_FLASH_PREFETCH_BUFFER_ENABLE();
 8002c1a:	6013      	str	r3, [r2, #0]
  if (HAL_InitTick(TICK_INT_PRIORITY) != HAL_OK)
 8002c1c:	f7ff ffce 	bl	8002bbc <HAL_InitTick>
 8002c20:	1e04      	subs	r4, r0, #0
 8002c22:	d103      	bne.n	8002c2c <HAL_Init+0x20>
  HAL_MspInit();
 8002c24:	f7ff fd60 	bl	80026e8 <HAL_MspInit>
}
 8002c28:	0020      	movs	r0, r4
 8002c2a:	bd10      	pop	{r4, pc}
    status = HAL_ERROR;
 8002c2c:	2401      	movs	r4, #1
 8002c2e:	e7fb      	b.n	8002c28 <HAL_Init+0x1c>
 8002c30:	40022000 	.word	0x40022000

08002c34 <HAL_IncTick>:
  *      implementations in user file.
  * @retval None
  */
__weak void HAL_IncTick(void)
{
  uwTick += (uint32_t)uwTickFreq;
 8002c34:	4a03      	ldr	r2, [pc, #12]	@ (8002c44 <HAL_IncTick+0x10>)
 8002c36:	4b04      	ldr	r3, [pc, #16]	@ (8002c48 <HAL_IncTick+0x14>)
 8002c38:	6811      	ldr	r1, [r2, #0]
 8002c3a:	781b      	ldrb	r3, [r3, #0]
 8002c3c:	185b      	adds	r3, r3, r1
 8002c3e:	6013      	str	r3, [r2, #0]
}
 8002c40:	4770      	bx	lr
 8002c42:	46c0      	nop			@ (mov r8, r8)
 8002c44:	20000900 	.word	0x20000900
 8002c48:	20000004 	.word	0x20000004

08002c4c <HAL_GetTick>:
  *       implementations in user file.
  * @retval tick value
  */
__weak uint32_t HAL_GetTick(void)
{
  return uwTick;
 8002c4c:	4b01      	ldr	r3, [pc, #4]	@ (8002c54 <HAL_GetTick+0x8>)
 8002c4e:	6818      	ldr	r0, [r3, #0]
}
 8002c50:	4770      	bx	lr
 8002c52:	46c0      	nop			@ (mov r8, r8)
 8002c54:	20000900 	.word	0x20000900

08002c58 <HAL_Delay>:
  *       implementations in user file.
  * @param Delay  specifies the delay time length, in milliseconds.
  * @retval None
  */
__weak void HAL_Delay(uint32_t Delay)
{
 8002c58:	b570      	push	{r4, r5, r6, lr}
 8002c5a:	0004      	movs	r4, r0
  uint32_t tickstart = HAL_GetTick();
 8002c5c:	f7ff fff6 	bl	8002c4c <HAL_GetTick>
 8002c60:	0005      	movs	r5, r0
  uint32_t wait = Delay;

  /* Add a freq to guarantee minimum wait */
  if (wait < HAL_MAX_DELAY)
 8002c62:	1c63      	adds	r3, r4, #1
 8002c64:	d002      	beq.n	8002c6c <HAL_Delay+0x14>
  {
    wait += (uint32_t)(uwTickFreq);
 8002c66:	4b04      	ldr	r3, [pc, #16]	@ (8002c78 <HAL_Delay+0x20>)
 8002c68:	781b      	ldrb	r3, [r3, #0]
 8002c6a:	18e4      	adds	r4, r4, r3
  }

  while ((HAL_GetTick() - tickstart) < wait)
 8002c6c:	f7ff ffee 	bl	8002c4c <HAL_GetTick>
 8002c70:	1b40      	subs	r0, r0, r5
 8002c72:	42a0      	cmp	r0, r4
 8002c74:	d3fa      	bcc.n	8002c6c <HAL_Delay+0x14>
  {
  }
}
 8002c76:	bd70      	pop	{r4, r5, r6, pc}
 8002c78:	20000004 	.word	0x20000004

08002c7c <LL_ADC_REG_IsConversionOngoing>:
  * @param  ADCx ADC instance
  * @retval 0: no conversion is on going on ADC group regular.
  */
__STATIC_INLINE uint32_t LL_ADC_REG_IsConversionOngoing(const ADC_TypeDef *ADCx)
{
  return ((READ_BIT(ADCx->CR, ADC_CR_ADSTART) == (ADC_CR_ADSTART)) ? 1UL : 0UL);
 8002c7c:	6880      	ldr	r0, [r0, #8]
 8002c7e:	0740      	lsls	r0, r0, #29
 8002c80:	0fc0      	lsrs	r0, r0, #31
}
 8002c82:	4770      	bx	lr

08002c84 <HAL_ADC_Init>:
{
  HAL_StatusTypeDef tmp_hal_status = HAL_OK;
  uint32_t tmp_cfgr1 = 0UL;
  uint32_t tmp_cfgr2 = 0UL;
  uint32_t tmp_adc_reg_is_conversion_on_going;
  __IO uint32_t wait_loop_index = 0UL;
 8002c84:	2300      	movs	r3, #0
{
 8002c86:	b5f0      	push	{r4, r5, r6, r7, lr}
 8002c88:	b085      	sub	sp, #20
 8002c8a:	0004      	movs	r4, r0
  __IO uint32_t wait_loop_index = 0UL;
 8002c8c:	9303      	str	r3, [sp, #12]

  /* Check ADC handle */
  if (hadc == NULL)
 8002c8e:	4298      	cmp	r0, r3
 8002c90:	d100      	bne.n	8002c94 <HAL_ADC_Init+0x10>
 8002c92:	e0f0      	b.n	8002e76 <HAL_ADC_Init+0x1f2>
  /* continuous mode is disabled.                                             */
  assert_param(!((hadc->Init.DiscontinuousConvMode == ENABLE) && (hadc->Init.ContinuousConvMode == ENABLE)));

  /* Actions performed only if ADC is coming from state reset:                */
  /* - Initialization of ADC MSP                                              */
  if (hadc->State == HAL_ADC_STATE_RESET)
 8002c94:	6d85      	ldr	r5, [r0, #88]	@ 0x58
 8002c96:	429d      	cmp	r5, r3
 8002c98:	d105      	bne.n	8002ca6 <HAL_ADC_Init+0x22>

    /* Init the low level hardware */
    hadc->MspInitCallback(hadc);
#else
    /* Init the low level hardware */
    HAL_ADC_MspInit(hadc);
 8002c9a:	f7ff fd3d 	bl	8002718 <HAL_ADC_MspInit>

    /* Set ADC error code to none */
    ADC_CLEAR_ERRORCODE(hadc);

    /* Initialize Lock */
    hadc->Lock = HAL_UNLOCKED;
 8002c9e:	0023      	movs	r3, r4
 8002ca0:	3354      	adds	r3, #84	@ 0x54
    ADC_CLEAR_ERRORCODE(hadc);
 8002ca2:	65e5      	str	r5, [r4, #92]	@ 0x5c
    hadc->Lock = HAL_UNLOCKED;
 8002ca4:	701d      	strb	r5, [r3, #0]
  return ((READ_BIT(ADCx->CR, ADC_CR_ADVREGEN) == (ADC_CR_ADVREGEN)) ? 1UL : 0UL);
 8002ca6:	2380      	movs	r3, #128	@ 0x80
  }

  if (LL_ADC_IsInternalRegulatorEnabled(hadc->Instance) == 0UL)
 8002ca8:	6825      	ldr	r5, [r4, #0]
 8002caa:	055b      	lsls	r3, r3, #21
 8002cac:	68aa      	ldr	r2, [r5, #8]
 8002cae:	421a      	tst	r2, r3
 8002cb0:	d100      	bne.n	8002cb4 <HAL_ADC_Init+0x30>
 8002cb2:	e0a7      	b.n	8002e04 <HAL_ADC_Init+0x180>
  HAL_StatusTypeDef tmp_hal_status = HAL_OK;
 8002cb4:	2200      	movs	r2, #0
 8002cb6:	68ab      	ldr	r3, [r5, #8]
 8002cb8:	9201      	str	r2, [sp, #4]
 8002cba:	00db      	lsls	r3, r3, #3
 8002cbc:	d408      	bmi.n	8002cd0 <HAL_ADC_Init+0x4c>
  /* or not ADC is coming from state reset (if any potential problem of       */
  /* clocking, voltage regulator would not be enabled).                       */
  if (LL_ADC_IsInternalRegulatorEnabled(hadc->Instance) == 0UL)
  {
    /* Update ADC state machine to error */
    SET_BIT(hadc->State, HAL_ADC_STATE_ERROR_INTERNAL);
 8002cbe:	2310      	movs	r3, #16

    /* Set ADC error code to ADC peripheral internal error */
    SET_BIT(hadc->ErrorCode, HAL_ADC_ERROR_INTERNAL);
 8002cc0:	2601      	movs	r6, #1
    SET_BIT(hadc->State, HAL_ADC_STATE_ERROR_INTERNAL);
 8002cc2:	6da2      	ldr	r2, [r4, #88]	@ 0x58

    tmp_hal_status = HAL_ERROR;
 8002cc4:	9601      	str	r6, [sp, #4]
    SET_BIT(hadc->State, HAL_ADC_STATE_ERROR_INTERNAL);
 8002cc6:	4313      	orrs	r3, r2
 8002cc8:	65a3      	str	r3, [r4, #88]	@ 0x58
    SET_BIT(hadc->ErrorCode, HAL_ADC_ERROR_INTERNAL);
 8002cca:	6de3      	ldr	r3, [r4, #92]	@ 0x5c
 8002ccc:	4333      	orrs	r3, r6
 8002cce:	65e3      	str	r3, [r4, #92]	@ 0x5c

  /* Configuration of ADC parameters if previous preliminary actions are      */
  /* correctly completed and if there is no conversion on going on regular    */
  /* group (ADC may already be enabled at this point if HAL_ADC_Init() is     */
  /* called to update a parameter on the fly).                                */
  tmp_adc_reg_is_conversion_on_going = LL_ADC_REG_IsConversionOngoing(hadc->Instance);
 8002cd0:	0028      	movs	r0, r5
 8002cd2:	f7ff ffd3 	bl	8002c7c <LL_ADC_REG_IsConversionOngoing>

  if (((hadc->State & HAL_ADC_STATE_ERROR_INTERNAL) == 0UL)
 8002cd6:	2210      	movs	r2, #16
 8002cd8:	6da3      	ldr	r3, [r4, #88]	@ 0x58
 8002cda:	4013      	ands	r3, r2
 8002cdc:	4303      	orrs	r3, r0
 8002cde:	d000      	beq.n	8002ce2 <HAL_ADC_Init+0x5e>
 8002ce0:	e0cc      	b.n	8002e7c <HAL_ADC_Init+0x1f8>
      && (tmp_adc_reg_is_conversion_on_going == 0UL)
     )
  {
    /* Set ADC state */
    ADC_STATE_CLR_SET(hadc->State,
 8002ce2:	6da2      	ldr	r2, [r4, #88]	@ 0x58
 8002ce4:	4b67      	ldr	r3, [pc, #412]	@ (8002e84 <HAL_ADC_Init+0x200>)
                    ADC_CFGR1_AUTOWAIT((uint32_t)hadc->Init.LowPowerAutoWait)      |
                    ADC_CFGR1_AUTOOFF((uint32_t)hadc->Init.LowPowerAutoPowerOff)   |
                    ADC_CFGR1_CONTINUOUS((uint32_t)hadc->Init.ContinuousConvMode)  |
                    ADC_CFGR1_OVERRUN(hadc->Init.Overrun)                          |
                    hadc->Init.DataAlign                                           |
                    ADC_SCAN_SEQ_MODE(hadc->Init.ScanConvMode)                     |
 8002ce6:	6920      	ldr	r0, [r4, #16]
    ADC_STATE_CLR_SET(hadc->State,
 8002ce8:	401a      	ands	r2, r3
 8002cea:	3306      	adds	r3, #6
 8002cec:	33ff      	adds	r3, #255	@ 0xff
 8002cee:	4313      	orrs	r3, r2
 8002cf0:	65a3      	str	r3, [r4, #88]	@ 0x58
  return ((READ_BIT(ADCx->CR, ADC_CR_ADEN) == (ADC_CR_ADEN)) ? 1UL : 0UL);
 8002cf2:	68ab      	ldr	r3, [r5, #8]
 8002cf4:	07db      	lsls	r3, r3, #31
 8002cf6:	d461      	bmi.n	8002dbc <HAL_ADC_Init+0x138>
                    ADC_CFGR1_OVERRUN(hadc->Init.Overrun)                          |
 8002cf8:	6b27      	ldr	r7, [r4, #48]	@ 0x30
 8002cfa:	68e1      	ldr	r1, [r4, #12]
 8002cfc:	1e7b      	subs	r3, r7, #1
 8002cfe:	419f      	sbcs	r7, r3
 8002d00:	68a3      	ldr	r3, [r4, #8]
                    ADC_CFGR1_CONTINUOUS((uint32_t)hadc->Init.ContinuousConvMode)  |
 8002d02:	7ea2      	ldrb	r2, [r4, #26]
 8002d04:	430b      	orrs	r3, r1
                    ADC_CFGR1_AUTOWAIT((uint32_t)hadc->Init.LowPowerAutoWait)      |
 8002d06:	7e21      	ldrb	r1, [r4, #24]
                    ADC_CFGR1_OVERRUN(hadc->Init.Overrun)                          |
 8002d08:	033f      	lsls	r7, r7, #12
                    ADC_CFGR1_AUTOWAIT((uint32_t)hadc->Init.LowPowerAutoWait)      |
 8002d0a:	0389      	lsls	r1, r1, #14
 8002d0c:	430b      	orrs	r3, r1
                    ADC_CFGR1_AUTOOFF((uint32_t)hadc->Init.LowPowerAutoPowerOff)   |
 8002d0e:	7e61      	ldrb	r1, [r4, #25]
 8002d10:	03c9      	lsls	r1, r1, #15
 8002d12:	430b      	orrs	r3, r1
                    ADC_CFGR1_CONTINUOUS((uint32_t)hadc->Init.ContinuousConvMode)  |
 8002d14:	0351      	lsls	r1, r2, #13
 8002d16:	430b      	orrs	r3, r1
 8002d18:	469c      	mov	ip, r3
                    ADC_SCAN_SEQ_MODE(hadc->Init.ScanConvMode)                     |
 8002d1a:	2800      	cmp	r0, #0
 8002d1c:	db00      	blt.n	8002d20 <HAL_ADC_Init+0x9c>
 8002d1e:	e086      	b.n	8002e2e <HAL_ADC_Init+0x1aa>
 8002d20:	0041      	lsls	r1, r0, #1
 8002d22:	0849      	lsrs	r1, r1, #1
                    ADC_CFGR1_DMACONTREQ((uint32_t)hadc->Init.DMAContinuousRequests));
 8002d24:	0023      	movs	r3, r4
                    ADC_SCAN_SEQ_MODE(hadc->Init.ScanConvMode)                     |
 8002d26:	4666      	mov	r6, ip
                    ADC_CFGR1_DMACONTREQ((uint32_t)hadc->Init.DMAContinuousRequests));
 8002d28:	332c      	adds	r3, #44	@ 0x2c
 8002d2a:	781b      	ldrb	r3, [r3, #0]
 8002d2c:	005b      	lsls	r3, r3, #1
                    ADC_SCAN_SEQ_MODE(hadc->Init.ScanConvMode)                     |
 8002d2e:	4333      	orrs	r3, r6
 8002d30:	433b      	orrs	r3, r7
 8002d32:	430b      	orrs	r3, r1

      /* Update setting of discontinuous mode only if continuous mode is disabled */
      if (hadc->Init.DiscontinuousConvMode == ENABLE)
 8002d34:	1c61      	adds	r1, r4, #1
 8002d36:	7fc9      	ldrb	r1, [r1, #31]
 8002d38:	2901      	cmp	r1, #1
 8002d3a:	d105      	bne.n	8002d48 <HAL_ADC_Init+0xc4>
      {
        if (hadc->Init.ContinuousConvMode == DISABLE)
 8002d3c:	2a00      	cmp	r2, #0
 8002d3e:	d000      	beq.n	8002d42 <HAL_ADC_Init+0xbe>
 8002d40:	e078      	b.n	8002e34 <HAL_ADC_Init+0x1b0>
        {
          /* Enable the selected ADC group regular discontinuous mode */
          tmp_cfgr1 |= ADC_CFGR1_DISCEN;
 8002d42:	2280      	movs	r2, #128	@ 0x80
 8002d44:	0252      	lsls	r2, r2, #9
 8002d46:	4313      	orrs	r3, r2
      /* Enable external trigger if trigger selection is different of software  */
      /* start.                                                                 */
      /* Note: This configuration keeps the hardware feature of parameter       */
      /*       ExternalTrigConvEdge "trigger edge none" equivalent to           */
      /*       software start.                                                  */
      if (hadc->Init.ExternalTrigConv != ADC_SOFTWARE_START)
 8002d48:	6a62      	ldr	r2, [r4, #36]	@ 0x24
 8002d4a:	2a00      	cmp	r2, #0
 8002d4c:	d005      	beq.n	8002d5a <HAL_ADC_Init+0xd6>
      {
        tmp_cfgr1 |= ((hadc->Init.ExternalTrigConv & ADC_CFGR1_EXTSEL) |
 8002d4e:	21e0      	movs	r1, #224	@ 0xe0
 8002d50:	0049      	lsls	r1, r1, #1
 8002d52:	400a      	ands	r2, r1
 8002d54:	6aa1      	ldr	r1, [r4, #40]	@ 0x28
 8002d56:	430a      	orrs	r2, r1
 8002d58:	4313      	orrs	r3, r2
                      hadc->Init.ExternalTrigConvEdge);
      }

      /* Update ADC configuration register with previous settings */
      MODIFY_REG(hadc->Instance->CFGR1,
 8002d5a:	68ea      	ldr	r2, [r5, #12]
 8002d5c:	494a      	ldr	r1, [pc, #296]	@ (8002e88 <HAL_ADC_Init+0x204>)
 8002d5e:	400a      	ands	r2, r1
 8002d60:	4313      	orrs	r3, r2
 8002d62:	60eb      	str	r3, [r5, #12]

      tmp_cfgr2 |= ((hadc->Init.ClockPrescaler & ADC_CFGR2_CKMODE) |
                    hadc->Init.TriggerFrequencyMode
                   );

      if (hadc->Init.OversamplingMode == ENABLE)
 8002d64:	0023      	movs	r3, r4
      tmp_cfgr2 |= ((hadc->Init.ClockPrescaler & ADC_CFGR2_CKMODE) |
 8002d66:	6862      	ldr	r2, [r4, #4]
      if (hadc->Init.OversamplingMode == ENABLE)
 8002d68:	333c      	adds	r3, #60	@ 0x3c
      tmp_cfgr2 |= ((hadc->Init.ClockPrescaler & ADC_CFGR2_CKMODE) |
 8002d6a:	6ce1      	ldr	r1, [r4, #76]	@ 0x4c
      if (hadc->Init.OversamplingMode == ENABLE)
 8002d6c:	781b      	ldrb	r3, [r3, #0]
      tmp_cfgr2 |= ((hadc->Init.ClockPrescaler & ADC_CFGR2_CKMODE) |
 8002d6e:	0f97      	lsrs	r7, r2, #30
 8002d70:	07bf      	lsls	r7, r7, #30
      if (hadc->Init.OversamplingMode == ENABLE)
 8002d72:	469c      	mov	ip, r3
      tmp_cfgr2 |= ((hadc->Init.ClockPrescaler & ADC_CFGR2_CKMODE) |
 8002d74:	4339      	orrs	r1, r7
      if (hadc->Init.OversamplingMode == ENABLE)
 8002d76:	2b01      	cmp	r3, #1
 8002d78:	d108      	bne.n	8002d8c <HAL_ADC_Init+0x108>
      {
        tmp_cfgr2 |= (ADC_CFGR2_OVSE |
 8002d7a:	6c23      	ldr	r3, [r4, #64]	@ 0x40
 8002d7c:	6c66      	ldr	r6, [r4, #68]	@ 0x44
 8002d7e:	4333      	orrs	r3, r6
 8002d80:	430b      	orrs	r3, r1
 8002d82:	6ca1      	ldr	r1, [r4, #72]	@ 0x48
 8002d84:	430b      	orrs	r3, r1
 8002d86:	4661      	mov	r1, ip
 8002d88:	433b      	orrs	r3, r7
 8002d8a:	4319      	orrs	r1, r3
                      hadc->Init.Oversampling.RightBitShift |
                      hadc->Init.Oversampling.TriggeredMode
                     );
      }

      MODIFY_REG(hadc->Instance->CFGR2,
 8002d8c:	692b      	ldr	r3, [r5, #16]
 8002d8e:	4f3f      	ldr	r7, [pc, #252]	@ (8002e8c <HAL_ADC_Init+0x208>)
 8002d90:	403b      	ands	r3, r7
 8002d92:	430b      	orrs	r3, r1
                 ADC_CFGR2_TOVS,
                 tmp_cfgr2);

      /* Configuration of ADC clock mode: asynchronous clock source           */
      /* with selectable prescaler.                                           */
      if (((hadc->Init.ClockPrescaler) != ADC_CLOCK_SYNC_PCLK_DIV1) &&
 8002d94:	2180      	movs	r1, #128	@ 0x80
      MODIFY_REG(hadc->Instance->CFGR2,
 8002d96:	612b      	str	r3, [r5, #16]
      if (((hadc->Init.ClockPrescaler) != ADC_CLOCK_SYNC_PCLK_DIV1) &&
 8002d98:	0053      	lsls	r3, r2, #1
 8002d9a:	085b      	lsrs	r3, r3, #1
 8002d9c:	05c9      	lsls	r1, r1, #23
 8002d9e:	428b      	cmp	r3, r1
 8002da0:	d00c      	beq.n	8002dbc <HAL_ADC_Init+0x138>
          ((hadc->Init.ClockPrescaler) != ADC_CLOCK_SYNC_PCLK_DIV2) &&
 8002da2:	2380      	movs	r3, #128	@ 0x80
 8002da4:	061b      	lsls	r3, r3, #24
 8002da6:	429a      	cmp	r2, r3
 8002da8:	d008      	beq.n	8002dbc <HAL_ADC_Init+0x138>
          ((hadc->Init.ClockPrescaler) != ADC_CLOCK_SYNC_PCLK_DIV4))
      {
        MODIFY_REG(ADC1_COMMON->CCR,
 8002daa:	4939      	ldr	r1, [pc, #228]	@ (8002e90 <HAL_ADC_Init+0x20c>)
 8002dac:	4f39      	ldr	r7, [pc, #228]	@ (8002e94 <HAL_ADC_Init+0x210>)
 8002dae:	680b      	ldr	r3, [r1, #0]
 8002db0:	403b      	ands	r3, r7
 8002db2:	27f0      	movs	r7, #240	@ 0xf0
 8002db4:	03bf      	lsls	r7, r7, #14
 8002db6:	403a      	ands	r2, r7
 8002db8:	4313      	orrs	r3, r2
 8002dba:	600b      	str	r3, [r1, #0]
  MODIFY_REG(ADCx->SMPR,
 8002dbc:	2107      	movs	r1, #7
 8002dbe:	2770      	movs	r7, #112	@ 0x70
 8002dc0:	696b      	ldr	r3, [r5, #20]
                   hadc->Init.ClockPrescaler & ADC_CCR_PRESC);
      }
    }

    /* Channel sampling time configuration */
    LL_ADC_SetSamplingTimeCommonChannels(hadc->Instance, LL_ADC_SAMPLINGTIME_COMMON_1, hadc->Init.SamplingTimeCommon1);
 8002dc2:	6b62      	ldr	r2, [r4, #52]	@ 0x34
 8002dc4:	438b      	bics	r3, r1
 8002dc6:	4313      	orrs	r3, r2
 8002dc8:	616b      	str	r3, [r5, #20]
 8002dca:	6969      	ldr	r1, [r5, #20]
 8002dcc:	6ba3      	ldr	r3, [r4, #56]	@ 0x38
 8002dce:	43b9      	bics	r1, r7
 8002dd0:	011b      	lsls	r3, r3, #4
 8002dd2:	430b      	orrs	r3, r1
 8002dd4:	616b      	str	r3, [r5, #20]
    /*   emulated by software for alignment over all STM32 devices.           */
    /* - if scan mode is enabled, regular channels sequence length is set to  */
    /*   parameter "NbrOfConversion".                                         */
    /*   Channels must be configured into each rank using function            */
    /*   "HAL_ADC_ConfigChannel()".                                           */
    if (hadc->Init.ScanConvMode == ADC_SCAN_DISABLE)
 8002dd6:	2800      	cmp	r0, #0
 8002dd8:	d134      	bne.n	8002e44 <HAL_ADC_Init+0x1c0>
    {
      /* Set sequencer scan length by clearing ranks above rank 1             */
      /* and do not modify rank 1 value.                                      */
      SET_BIT(hadc->Instance->CHSELR,
 8002dda:	2310      	movs	r3, #16
 8002ddc:	6aa9      	ldr	r1, [r5, #40]	@ 0x28
 8002dde:	425b      	negs	r3, r3
      /*          therefore after the first call of "HAL_ADC_Init()",       */
      /*          each rank corresponding to parameter "NbrOfConversion"    */
      /*          must be set using "HAL_ADC_ConfigChannel()".              */
      /*  - Set sequencer scan length by clearing ranks above maximum rank  */
      /*    and do not modify other ranks value.                            */
      MODIFY_REG(hadc->Instance->CHSELR,
 8002de0:	430b      	orrs	r3, r1
 8002de2:	62ab      	str	r3, [r5, #40]	@ 0x28
  return (uint32_t)((READ_BIT(ADCx->SMPR, ADC_SMPR_SMP1 << (SamplingTimeY & ADC_SAMPLING_TIME_SMP_SHIFT_MASK)))
 8002de4:	2107      	movs	r1, #7
 8002de6:	696b      	ldr	r3, [r5, #20]
 8002de8:	400b      	ands	r3, r1
      /* Nothing to do */
    }

    /* Check back that ADC registers have effectively been configured to      */
    /* ensure of no potential problem of ADC core peripheral clocking.        */
    if (LL_ADC_GetSamplingTimeCommonChannels(hadc->Instance, LL_ADC_SAMPLINGTIME_COMMON_1)
 8002dea:	429a      	cmp	r2, r3
 8002dec:	d139      	bne.n	8002e62 <HAL_ADC_Init+0x1de>
        == hadc->Init.SamplingTimeCommon1)
    {
      /* Set ADC error code to none */
      ADC_CLEAR_ERRORCODE(hadc);
 8002dee:	2300      	movs	r3, #0
 8002df0:	65e3      	str	r3, [r4, #92]	@ 0x5c

      /* Set the ADC state */
      ADC_STATE_CLR_SET(hadc->State,
 8002df2:	6da2      	ldr	r2, [r4, #88]	@ 0x58
 8002df4:	3303      	adds	r3, #3
 8002df6:	439a      	bics	r2, r3
 8002df8:	3b02      	subs	r3, #2
 8002dfa:	4313      	orrs	r3, r2
 8002dfc:	65a3      	str	r3, [r4, #88]	@ 0x58

    tmp_hal_status = HAL_ERROR;
  }

  return tmp_hal_status;
}
 8002dfe:	9801      	ldr	r0, [sp, #4]
 8002e00:	b005      	add	sp, #20
 8002e02:	bdf0      	pop	{r4, r5, r6, r7, pc}
  MODIFY_REG(ADCx->CR,
 8002e04:	68aa      	ldr	r2, [r5, #8]
 8002e06:	4924      	ldr	r1, [pc, #144]	@ (8002e98 <HAL_ADC_Init+0x214>)
 8002e08:	400a      	ands	r2, r1
 8002e0a:	4313      	orrs	r3, r2
 8002e0c:	60ab      	str	r3, [r5, #8]
    wait_loop_index = ((LL_ADC_DELAY_INTERNAL_REGUL_STAB_US / 10UL) * ((SystemCoreClock / (100000UL * 2UL)) + 1UL));
 8002e0e:	4b23      	ldr	r3, [pc, #140]	@ (8002e9c <HAL_ADC_Init+0x218>)
 8002e10:	4923      	ldr	r1, [pc, #140]	@ (8002ea0 <HAL_ADC_Init+0x21c>)
 8002e12:	6818      	ldr	r0, [r3, #0]
 8002e14:	f7fd f9a8 	bl	8000168 <__udivsi3>
 8002e18:	3001      	adds	r0, #1
 8002e1a:	0040      	lsls	r0, r0, #1
 8002e1c:	9003      	str	r0, [sp, #12]
    while (wait_loop_index != 0UL)
 8002e1e:	9b03      	ldr	r3, [sp, #12]
 8002e20:	2b00      	cmp	r3, #0
 8002e22:	d100      	bne.n	8002e26 <HAL_ADC_Init+0x1a2>
 8002e24:	e746      	b.n	8002cb4 <HAL_ADC_Init+0x30>
      wait_loop_index--;
 8002e26:	9b03      	ldr	r3, [sp, #12]
 8002e28:	3b01      	subs	r3, #1
 8002e2a:	9303      	str	r3, [sp, #12]
 8002e2c:	e7f7      	b.n	8002e1e <HAL_ADC_Init+0x19a>
                    ADC_SCAN_SEQ_MODE(hadc->Init.ScanConvMode)                     |
 8002e2e:	2180      	movs	r1, #128	@ 0x80
 8002e30:	0389      	lsls	r1, r1, #14
 8002e32:	e777      	b.n	8002d24 <HAL_ADC_Init+0xa0>
          SET_BIT(hadc->State, HAL_ADC_STATE_ERROR_CONFIG);
 8002e34:	2220      	movs	r2, #32
 8002e36:	6da7      	ldr	r7, [r4, #88]	@ 0x58
 8002e38:	433a      	orrs	r2, r7
 8002e3a:	65a2      	str	r2, [r4, #88]	@ 0x58
          SET_BIT(hadc->ErrorCode, HAL_ADC_ERROR_INTERNAL);
 8002e3c:	6de2      	ldr	r2, [r4, #92]	@ 0x5c
 8002e3e:	4311      	orrs	r1, r2
 8002e40:	65e1      	str	r1, [r4, #92]	@ 0x5c
 8002e42:	e781      	b.n	8002d48 <HAL_ADC_Init+0xc4>
    else if (hadc->Init.ScanConvMode == ADC_SCAN_ENABLE)
 8002e44:	2380      	movs	r3, #128	@ 0x80
 8002e46:	039b      	lsls	r3, r3, #14
 8002e48:	4298      	cmp	r0, r3
 8002e4a:	d1cb      	bne.n	8002de4 <HAL_ADC_Init+0x160>
      MODIFY_REG(hadc->Instance->CHSELR,
 8002e4c:	211c      	movs	r1, #28
 8002e4e:	6aab      	ldr	r3, [r5, #40]	@ 0x28
 8002e50:	69e3      	ldr	r3, [r4, #28]
 8002e52:	3b01      	subs	r3, #1
 8002e54:	009b      	lsls	r3, r3, #2
 8002e56:	400b      	ands	r3, r1
 8002e58:	392c      	subs	r1, #44	@ 0x2c
 8002e5a:	4099      	lsls	r1, r3
 8002e5c:	000b      	movs	r3, r1
 8002e5e:	6e21      	ldr	r1, [r4, #96]	@ 0x60
 8002e60:	e7be      	b.n	8002de0 <HAL_ADC_Init+0x15c>
      ADC_STATE_CLR_SET(hadc->State,
 8002e62:	2312      	movs	r3, #18
 8002e64:	6da2      	ldr	r2, [r4, #88]	@ 0x58
 8002e66:	439a      	bics	r2, r3
 8002e68:	3b02      	subs	r3, #2
 8002e6a:	4313      	orrs	r3, r2
 8002e6c:	65a3      	str	r3, [r4, #88]	@ 0x58
      SET_BIT(hadc->ErrorCode, HAL_ADC_ERROR_INTERNAL);
 8002e6e:	2301      	movs	r3, #1
 8002e70:	6de2      	ldr	r2, [r4, #92]	@ 0x5c
 8002e72:	4313      	orrs	r3, r2
 8002e74:	65e3      	str	r3, [r4, #92]	@ 0x5c
    return HAL_ERROR;
 8002e76:	2301      	movs	r3, #1
 8002e78:	9301      	str	r3, [sp, #4]
 8002e7a:	e7c0      	b.n	8002dfe <HAL_ADC_Init+0x17a>
    SET_BIT(hadc->State, HAL_ADC_STATE_ERROR_INTERNAL);
 8002e7c:	6da3      	ldr	r3, [r4, #88]	@ 0x58
 8002e7e:	431a      	orrs	r2, r3
 8002e80:	65a2      	str	r2, [r4, #88]	@ 0x58
    tmp_hal_status = HAL_ERROR;
 8002e82:	e7f8      	b.n	8002e76 <HAL_ADC_Init+0x1f2>
 8002e84:	fffffefd 	.word	0xfffffefd
 8002e88:	ffde0201 	.word	0xffde0201
 8002e8c:	1ffffc02 	.word	0x1ffffc02
 8002e90:	40012708 	.word	0x40012708
 8002e94:	ffc3ffff 	.word	0xffc3ffff
 8002e98:	6fffffe8 	.word	0x6fffffe8
 8002e9c:	20000000 	.word	0x20000000
 8002ea0:	00030d40 	.word	0x00030d40

08002ea4 <HAL_ADC_PollForConversion>:
  * @param hadc ADC handle
  * @param Timeout Timeout value in millisecond.
  * @retval HAL status
  */
HAL_StatusTypeDef HAL_ADC_PollForConversion(ADC_HandleTypeDef *hadc, uint32_t Timeout)
{
 8002ea4:	b5f7      	push	{r0, r1, r2, r4, r5, r6, r7, lr}

  /* Check the parameters */
  assert_param(IS_ADC_ALL_INSTANCE(hadc->Instance));

  /* If end of conversion selected to end of sequence conversions */
  if (hadc->Init.EOCSelection == ADC_EOC_SEQ_CONV)
 8002ea6:	6946      	ldr	r6, [r0, #20]
{
 8002ea8:	0004      	movs	r4, r0
 8002eaa:	000f      	movs	r7, r1
  if (hadc->Init.EOCSelection == ADC_EOC_SEQ_CONV)
 8002eac:	2e08      	cmp	r6, #8
 8002eae:	d00a      	beq.n	8002ec6 <HAL_ADC_PollForConversion+0x22>
    /* each conversion:                                                       */
    /* Particular case is ADC configured in DMA mode and ADC sequencer with   */
    /* several ranks and polling for end of each conversion.                  */
    /* For code simplicity sake, this particular case is generalized to       */
    /* ADC configured in DMA mode and and polling for end of each conversion. */
    if ((hadc->Instance->CFGR1 & ADC_CFGR1_DMAEN) != 0UL)
 8002eb0:	6803      	ldr	r3, [r0, #0]
 8002eb2:	2001      	movs	r0, #1
 8002eb4:	68db      	ldr	r3, [r3, #12]

      return HAL_ERROR;
    }
    else
    {
      tmp_flag_end = (ADC_FLAG_EOC);
 8002eb6:	2604      	movs	r6, #4
    if ((hadc->Instance->CFGR1 & ADC_CFGR1_DMAEN) != 0UL)
 8002eb8:	4203      	tst	r3, r0
 8002eba:	d004      	beq.n	8002ec6 <HAL_ADC_PollForConversion+0x22>
      SET_BIT(hadc->State, HAL_ADC_STATE_ERROR_CONFIG);
 8002ebc:	2320      	movs	r3, #32
 8002ebe:	6da2      	ldr	r2, [r4, #88]	@ 0x58
 8002ec0:	4313      	orrs	r3, r2
 8002ec2:	65a3      	str	r3, [r4, #88]	@ 0x58
    __HAL_ADC_CLEAR_FLAG(hadc, (ADC_FLAG_EOC | ADC_FLAG_EOS));
  }

  /* Return function status */
  return HAL_OK;
}
 8002ec4:	bdfe      	pop	{r1, r2, r3, r4, r5, r6, r7, pc}
  tickstart = HAL_GetTick();
 8002ec6:	f7ff fec1 	bl	8002c4c <HAL_GetTick>
 8002eca:	9001      	str	r0, [sp, #4]
  while ((hadc->Instance->ISR & tmp_flag_end) == 0UL)
 8002ecc:	6825      	ldr	r5, [r4, #0]
 8002ece:	682b      	ldr	r3, [r5, #0]
 8002ed0:	421e      	tst	r6, r3
 8002ed2:	d024      	beq.n	8002f1e <HAL_ADC_PollForConversion+0x7a>
  SET_BIT(hadc->State, HAL_ADC_STATE_REG_EOC);
 8002ed4:	2380      	movs	r3, #128	@ 0x80
 8002ed6:	6da2      	ldr	r2, [r4, #88]	@ 0x58
 8002ed8:	009b      	lsls	r3, r3, #2
 8002eda:	4313      	orrs	r3, r2
 8002edc:	65a3      	str	r3, [r4, #88]	@ 0x58
  return ((READ_BIT(ADCx->CFGR1, ADC_CFGR1_EXTEN) == (LL_ADC_REG_TRIG_SOFTWARE & ADC_CFGR1_EXTEN)) ? 1UL : 0UL);
 8002ede:	23c0      	movs	r3, #192	@ 0xc0
 8002ee0:	68ea      	ldr	r2, [r5, #12]
 8002ee2:	011b      	lsls	r3, r3, #4
 8002ee4:	421a      	tst	r2, r3
 8002ee6:	d115      	bne.n	8002f14 <HAL_ADC_PollForConversion+0x70>
      && (hadc->Init.ContinuousConvMode == DISABLE)
 8002ee8:	7ea3      	ldrb	r3, [r4, #26]
 8002eea:	2b00      	cmp	r3, #0
 8002eec:	d112      	bne.n	8002f14 <HAL_ADC_PollForConversion+0x70>
    if (__HAL_ADC_GET_FLAG(hadc, ADC_FLAG_EOS))
 8002eee:	682b      	ldr	r3, [r5, #0]
 8002ef0:	071b      	lsls	r3, r3, #28
 8002ef2:	d50f      	bpl.n	8002f14 <HAL_ADC_PollForConversion+0x70>
      if (LL_ADC_REG_IsConversionOngoing(hadc->Instance) == 0UL)
 8002ef4:	0028      	movs	r0, r5
 8002ef6:	f7ff fec1 	bl	8002c7c <LL_ADC_REG_IsConversionOngoing>
 8002efa:	2800      	cmp	r0, #0
 8002efc:	d127      	bne.n	8002f4e <HAL_ADC_PollForConversion+0xaa>
        __HAL_ADC_DISABLE_IT(hadc, ADC_IT_EOC | ADC_IT_EOS);
 8002efe:	220c      	movs	r2, #12
 8002f00:	686b      	ldr	r3, [r5, #4]
 8002f02:	4393      	bics	r3, r2
 8002f04:	606b      	str	r3, [r5, #4]
        ADC_STATE_CLR_SET(hadc->State,
 8002f06:	6da2      	ldr	r2, [r4, #88]	@ 0x58
 8002f08:	4b17      	ldr	r3, [pc, #92]	@ (8002f68 <HAL_ADC_PollForConversion+0xc4>)
 8002f0a:	401a      	ands	r2, r3
 8002f0c:	3304      	adds	r3, #4
 8002f0e:	33ff      	adds	r3, #255	@ 0xff
 8002f10:	4313      	orrs	r3, r2
 8002f12:	65a3      	str	r3, [r4, #88]	@ 0x58
  if (hadc->Init.LowPowerAutoWait == DISABLE)
 8002f14:	7e23      	ldrb	r3, [r4, #24]
 8002f16:	2b00      	cmp	r3, #0
 8002f18:	d022      	beq.n	8002f60 <HAL_ADC_PollForConversion+0xbc>
  return HAL_OK;
 8002f1a:	2000      	movs	r0, #0
 8002f1c:	e7d2      	b.n	8002ec4 <HAL_ADC_PollForConversion+0x20>
    if (Timeout != HAL_MAX_DELAY)
 8002f1e:	1c7b      	adds	r3, r7, #1
 8002f20:	d0d5      	beq.n	8002ece <HAL_ADC_PollForConversion+0x2a>
      if (((HAL_GetTick() - tickstart) > Timeout) || (Timeout == 0UL))
 8002f22:	f7ff fe93 	bl	8002c4c <HAL_GetTick>
 8002f26:	9b01      	ldr	r3, [sp, #4]
 8002f28:	1ac0      	subs	r0, r0, r3
 8002f2a:	42b8      	cmp	r0, r7
 8002f2c:	d801      	bhi.n	8002f32 <HAL_ADC_PollForConversion+0x8e>
 8002f2e:	2f00      	cmp	r7, #0
 8002f30:	d1cc      	bne.n	8002ecc <HAL_ADC_PollForConversion+0x28>
        if ((hadc->Instance->ISR & tmp_flag_end) == 0UL)
 8002f32:	0032      	movs	r2, r6
 8002f34:	6823      	ldr	r3, [r4, #0]
 8002f36:	681b      	ldr	r3, [r3, #0]
 8002f38:	401a      	ands	r2, r3
 8002f3a:	421e      	tst	r6, r3
 8002f3c:	d1c6      	bne.n	8002ecc <HAL_ADC_PollForConversion+0x28>
          SET_BIT(hadc->State, HAL_ADC_STATE_TIMEOUT);
 8002f3e:	2304      	movs	r3, #4
 8002f40:	6da1      	ldr	r1, [r4, #88]	@ 0x58
          __HAL_UNLOCK(hadc);
 8002f42:	3454      	adds	r4, #84	@ 0x54
          SET_BIT(hadc->State, HAL_ADC_STATE_TIMEOUT);
 8002f44:	430b      	orrs	r3, r1
 8002f46:	6063      	str	r3, [r4, #4]
          return HAL_TIMEOUT;
 8002f48:	2003      	movs	r0, #3
          __HAL_UNLOCK(hadc);
 8002f4a:	7022      	strb	r2, [r4, #0]
          return HAL_TIMEOUT;
 8002f4c:	e7ba      	b.n	8002ec4 <HAL_ADC_PollForConversion+0x20>
        SET_BIT(hadc->State, HAL_ADC_STATE_ERROR_CONFIG);
 8002f4e:	2320      	movs	r3, #32
 8002f50:	6da2      	ldr	r2, [r4, #88]	@ 0x58
 8002f52:	4313      	orrs	r3, r2
 8002f54:	65a3      	str	r3, [r4, #88]	@ 0x58
        SET_BIT(hadc->ErrorCode, HAL_ADC_ERROR_INTERNAL);
 8002f56:	2301      	movs	r3, #1
 8002f58:	6de2      	ldr	r2, [r4, #92]	@ 0x5c
 8002f5a:	4313      	orrs	r3, r2
 8002f5c:	65e3      	str	r3, [r4, #92]	@ 0x5c
 8002f5e:	e7d9      	b.n	8002f14 <HAL_ADC_PollForConversion+0x70>
    __HAL_ADC_CLEAR_FLAG(hadc, (ADC_FLAG_EOC | ADC_FLAG_EOS));
 8002f60:	230c      	movs	r3, #12
 8002f62:	602b      	str	r3, [r5, #0]
 8002f64:	e7d9      	b.n	8002f1a <HAL_ADC_PollForConversion+0x76>
 8002f66:	46c0      	nop			@ (mov r8, r8)
 8002f68:	fffffefe 	.word	0xfffffefe

08002f6c <HAL_ADC_GetValue>:

  /* Note: EOC flag is not cleared here by software because automatically     */
  /*       cleared by hardware when reading register DR.                      */

  /* Return ADC converted value */
  return hadc->Instance->DR;
 8002f6c:	6803      	ldr	r3, [r0, #0]
 8002f6e:	6c18      	ldr	r0, [r3, #64]	@ 0x40
}
 8002f70:	4770      	bx	lr
	...

08002f74 <HAL_ADC_ConfigChannel>:
  */
HAL_StatusTypeDef HAL_ADC_ConfigChannel(ADC_HandleTypeDef *hadc, const ADC_ChannelConfTypeDef *pConfig)
{
  HAL_StatusTypeDef tmp_hal_status = HAL_OK;
  uint32_t tmp_config_internal_channel;
  __IO uint32_t wait_loop_index = 0UL;
 8002f74:	2300      	movs	r3, #0
{
 8002f76:	b5f0      	push	{r4, r5, r6, r7, lr}
 8002f78:	b085      	sub	sp, #20
  __IO uint32_t wait_loop_index = 0UL;
 8002f7a:	9303      	str	r3, [sp, #12]
    assert_param(IS_ADC_REGULAR_NB_CONV(hadc->Init.NbrOfConversion));

    assert_param(IS_ADC_REGULAR_RANK(pConfig->Rank));
  }

  __HAL_LOCK(hadc);
 8002f7c:	0003      	movs	r3, r0
{
 8002f7e:	9100      	str	r1, [sp, #0]
  __HAL_LOCK(hadc);
 8002f80:	3354      	adds	r3, #84	@ 0x54
 8002f82:	781a      	ldrb	r2, [r3, #0]
{
 8002f84:	0004      	movs	r4, r0
  __HAL_LOCK(hadc);
 8002f86:	2002      	movs	r0, #2
 8002f88:	2a01      	cmp	r2, #1
 8002f8a:	d04d      	beq.n	8003028 <HAL_ADC_ConfigChannel+0xb4>
 8002f8c:	2201      	movs	r2, #1
  if ((hadc->Init.ScanConvMode == ADC_SCAN_SEQ_FIXED)       ||
 8002f8e:	6927      	ldr	r7, [r4, #16]
  __HAL_LOCK(hadc);
 8002f90:	701a      	strb	r2, [r3, #0]
  /* Parameters that can be updated when ADC is disabled or enabled without   */
  /* conversion on going on regular group:                                    */
  /*  - Channel number                                                        */
  /*  - Channel sampling time                                                 */
  /*  - Management of internal measurement channels: VrefInt/TempSensor/Vbat  */
  if (LL_ADC_REG_IsConversionOngoing(hadc->Instance) == 0UL)
 8002f92:	6825      	ldr	r5, [r4, #0]
 8002f94:	0028      	movs	r0, r5
 8002f96:	f7ff fe71 	bl	8002c7c <LL_ADC_REG_IsConversionOngoing>
 8002f9a:	2800      	cmp	r0, #0
 8002f9c:	d000      	beq.n	8002fa0 <HAL_ADC_ConfigChannel+0x2c>
 8002f9e:	e0f7      	b.n	8003190 <HAL_ADC_ConfigChannel+0x21c>
    /* If sequencer set to not fully configurable with channel rank set to    */
    /* none, remove the channel from the sequencer.                           */
    /* Otherwise (sequencer set to fully configurable or to to not fully      */
    /* configurable with channel rank to be set), configure the selected      */
    /* channel.                                                               */
    if (pConfig->Rank != ADC_RANK_NONE)
 8002fa0:	9b00      	ldr	r3, [sp, #0]
      /* Note: ADC channel configuration requires few ADC clock cycles        */
      /*       to be ready. Processing of ADC settings in this function       */
      /*       induce that a specific wait time is not necessary.             */
      /*       For more details on ADC channel configuration ready,           */
      /*       refer to function "LL_ADC_IsActiveFlag_CCRDY()".               */
      if ((hadc->Init.ScanConvMode == ADC_SCAN_SEQ_FIXED)       ||
 8002fa2:	2204      	movs	r2, #4
    if (pConfig->Rank != ADC_RANK_NONE)
 8002fa4:	685b      	ldr	r3, [r3, #4]
 8002fa6:	2180      	movs	r1, #128	@ 0x80
 8002fa8:	469c      	mov	ip, r3
      if ((hadc->Init.ScanConvMode == ADC_SCAN_SEQ_FIXED)       ||
 8002faa:	4397      	bics	r7, r2
    if (pConfig->Rank != ADC_RANK_NONE)
 8002fac:	4662      	mov	r2, ip
          (hadc->Init.ScanConvMode == ADC_SCAN_SEQ_FIXED_BACKWARD))
      {
        /* Sequencer set to not fully configurable:                           */
        /* Set the channel by enabling the corresponding bitfield.            */
        LL_ADC_REG_SetSequencerChAdd(hadc->Instance, pConfig->Channel);
 8002fae:	9b00      	ldr	r3, [sp, #0]
 8002fb0:	0609      	lsls	r1, r1, #24
 8002fb2:	681b      	ldr	r3, [r3, #0]
    if (pConfig->Rank != ADC_RANK_NONE)
 8002fb4:	2a02      	cmp	r2, #2
 8002fb6:	d100      	bne.n	8002fba <HAL_ADC_ConfigChannel+0x46>
 8002fb8:	e0be      	b.n	8003138 <HAL_ADC_ConfigChannel+0x1c4>
  SET_BIT(ADCx->CHSELR, (Channel & ADC_CHANNEL_ID_BITFIELD_MASK));
 8002fba:	035a      	lsls	r2, r3, #13
 8002fbc:	0b52      	lsrs	r2, r2, #13
      if ((hadc->Init.ScanConvMode == ADC_SCAN_SEQ_FIXED)       ||
 8002fbe:	428f      	cmp	r7, r1
 8002fc0:	d134      	bne.n	800302c <HAL_ADC_ConfigChannel+0xb8>
 8002fc2:	6aa9      	ldr	r1, [r5, #40]	@ 0x28
  MODIFY_REG(ADCx->CHSELR,
 8002fc4:	430a      	orrs	r2, r1
 8002fc6:	62aa      	str	r2, [r5, #40]	@ 0x28
  MODIFY_REG(ADCx->SMPR,
 8002fc8:	9a00      	ldr	r2, [sp, #0]
 8002fca:	6968      	ldr	r0, [r5, #20]
 8002fcc:	6892      	ldr	r2, [r2, #8]
 8002fce:	0219      	lsls	r1, r3, #8
 8002fd0:	4e72      	ldr	r6, [pc, #456]	@ (800319c <HAL_ADC_ConfigChannel+0x228>)
 8002fd2:	400a      	ands	r2, r1
 8002fd4:	4032      	ands	r2, r6
 8002fd6:	4388      	bics	r0, r1
 8002fd8:	4302      	orrs	r2, r0
 8002fda:	616a      	str	r2, [r5, #20]
      /* internal measurement paths enable: If internal channel selected,     */
      /* enable dedicated internal buffers and path.                          */
      /* Note: these internal measurement paths can be disabled using         */
      /*       HAL_ADC_DeInit() or removing the channel from sequencer with   */
      /*       channel configuration parameter "Rank".                        */
      if (__LL_ADC_IS_CHANNEL_INTERNAL(pConfig->Channel))
 8002fdc:	2b00      	cmp	r3, #0
 8002fde:	da1f      	bge.n	8003020 <HAL_ADC_ConfigChannel+0xac>
  return (uint32_t)(READ_BIT(ADCxy_COMMON->CCR, ADC_CCR_VREFEN | ADC_CCR_TSEN | ADC_CCR_VBATEN));
 8002fe0:	21e0      	movs	r1, #224	@ 0xe0
 8002fe2:	4a6f      	ldr	r2, [pc, #444]	@ (80031a0 <HAL_ADC_ConfigChannel+0x22c>)
      {
        tmp_config_internal_channel = LL_ADC_GetCommonPathInternalCh(__LL_ADC_COMMON_INSTANCE(hadc->Instance));

        /* If the requested internal measurement path has already been enabled,   */
        /* bypass the configuration processing.                                   */
        if ((pConfig->Channel == ADC_CHANNEL_TEMPSENSOR) &&
 8002fe4:	486f      	ldr	r0, [pc, #444]	@ (80031a4 <HAL_ADC_ConfigChannel+0x230>)
 8002fe6:	6815      	ldr	r5, [r2, #0]
 8002fe8:	0449      	lsls	r1, r1, #17
 8002fea:	4029      	ands	r1, r5
 8002fec:	4283      	cmp	r3, r0
 8002fee:	d000      	beq.n	8002ff2 <HAL_ADC_ConfigChannel+0x7e>
 8002ff0:	e08c      	b.n	800310c <HAL_ADC_ConfigChannel+0x198>
            ((tmp_config_internal_channel & LL_ADC_PATH_INTERNAL_TEMPSENSOR) == 0UL))
 8002ff2:	2080      	movs	r0, #128	@ 0x80
 8002ff4:	0400      	lsls	r0, r0, #16
        if ((pConfig->Channel == ADC_CHANNEL_TEMPSENSOR) &&
 8002ff6:	4205      	tst	r5, r0
 8002ff8:	d112      	bne.n	8003020 <HAL_ADC_ConfigChannel+0xac>
  MODIFY_REG(ADCxy_COMMON->CCR, ADC_CCR_VREFEN | ADC_CCR_TSEN | ADC_CCR_VBATEN, PathInternal);
 8002ffa:	6813      	ldr	r3, [r2, #0]
 8002ffc:	4d6a      	ldr	r5, [pc, #424]	@ (80031a8 <HAL_ADC_ConfigChannel+0x234>)
 8002ffe:	402b      	ands	r3, r5
 8003000:	430b      	orrs	r3, r1
 8003002:	4318      	orrs	r0, r3
          /* Delay for temperature sensor stabilization time */
          /* Wait loop initialization and execution */
          /* Note: Variable divided by 2 to compensate partially              */
          /*       CPU processing cycles, scaling in us split to not          */
          /*       exceed 32 bits register capacity and handle low frequency. */
          wait_loop_index = ((LL_ADC_DELAY_TEMPSENSOR_STAB_US / 10UL) * ((SystemCoreClock / (100000UL * 2UL)) + 1UL));
 8003004:	4b69      	ldr	r3, [pc, #420]	@ (80031ac <HAL_ADC_ConfigChannel+0x238>)
 8003006:	6010      	str	r0, [r2, #0]
 8003008:	6818      	ldr	r0, [r3, #0]
 800300a:	4969      	ldr	r1, [pc, #420]	@ (80031b0 <HAL_ADC_ConfigChannel+0x23c>)
 800300c:	f7fd f8ac 	bl	8000168 <__udivsi3>
 8003010:	1c43      	adds	r3, r0, #1
 8003012:	200c      	movs	r0, #12
 8003014:	4358      	muls	r0, r3
 8003016:	9003      	str	r0, [sp, #12]
          while (wait_loop_index != 0UL)
 8003018:	9b03      	ldr	r3, [sp, #12]
 800301a:	2b00      	cmp	r3, #0
 800301c:	d000      	beq.n	8003020 <HAL_ADC_ConfigChannel+0xac>
 800301e:	e071      	b.n	8003104 <HAL_ADC_ConfigChannel+0x190>
  HAL_StatusTypeDef tmp_hal_status = HAL_OK;
 8003020:	2000      	movs	r0, #0
    SET_BIT(hadc->State, HAL_ADC_STATE_ERROR_CONFIG);

    tmp_hal_status = HAL_ERROR;
  }

  __HAL_UNLOCK(hadc);
 8003022:	2300      	movs	r3, #0
 8003024:	3454      	adds	r4, #84	@ 0x54
 8003026:	7023      	strb	r3, [r4, #0]

  return tmp_hal_status;
}
 8003028:	b005      	add	sp, #20
 800302a:	bdf0      	pop	{r4, r5, r6, r7, pc}
        MODIFY_REG(hadc->ADCGroupRegularSequencerRanks,
 800302c:	211f      	movs	r1, #31
 800302e:	4667      	mov	r7, ip
 8003030:	400f      	ands	r7, r1
 8003032:	3910      	subs	r1, #16
 8003034:	40b9      	lsls	r1, r7
 8003036:	43ce      	mvns	r6, r1
 8003038:	9601      	str	r6, [sp, #4]
 800303a:	6e26      	ldr	r6, [r4, #96]	@ 0x60
 800303c:	438e      	bics	r6, r1
 800303e:	0031      	movs	r1, r6
 8003040:	2a00      	cmp	r2, #0
 8003042:	d112      	bne.n	800306a <HAL_ADC_ConfigChannel+0xf6>
 8003044:	0e98      	lsrs	r0, r3, #26
 8003046:	321f      	adds	r2, #31
 8003048:	4010      	ands	r0, r2
 800304a:	40b8      	lsls	r0, r7
        if (((pConfig->Rank >> 2UL) + 1UL) <= hadc->Init.NbrOfConversion)
 800304c:	4662      	mov	r2, ip
        MODIFY_REG(hadc->ADCGroupRegularSequencerRanks,
 800304e:	4308      	orrs	r0, r1
        if (((pConfig->Rank >> 2UL) + 1UL) <= hadc->Init.NbrOfConversion)
 8003050:	0892      	lsrs	r2, r2, #2
 8003052:	69e1      	ldr	r1, [r4, #28]
 8003054:	3201      	adds	r2, #1
        MODIFY_REG(hadc->ADCGroupRegularSequencerRanks,
 8003056:	6620      	str	r0, [r4, #96]	@ 0x60
        if (((pConfig->Rank >> 2UL) + 1UL) <= hadc->Init.NbrOfConversion)
 8003058:	428a      	cmp	r2, r1
 800305a:	d8b5      	bhi.n	8002fc8 <HAL_ADC_ConfigChannel+0x54>
  MODIFY_REG(ADCx->CHSELR,
 800305c:	6aa9      	ldr	r1, [r5, #40]	@ 0x28
 800305e:	9801      	ldr	r0, [sp, #4]
 8003060:	009a      	lsls	r2, r3, #2
 8003062:	0f12      	lsrs	r2, r2, #28
 8003064:	40ba      	lsls	r2, r7
 8003066:	4001      	ands	r1, r0
 8003068:	e7ac      	b.n	8002fc4 <HAL_ADC_ConfigChannel+0x50>
        MODIFY_REG(hadc->ADCGroupRegularSequencerRanks,
 800306a:	2201      	movs	r2, #1
 800306c:	4213      	tst	r3, r2
 800306e:	d1ec      	bne.n	800304a <HAL_ADC_ConfigChannel+0xd6>
 8003070:	1892      	adds	r2, r2, r2
 8003072:	4213      	tst	r3, r2
 8003074:	d124      	bne.n	80030c0 <HAL_ADC_ConfigChannel+0x14c>
 8003076:	2604      	movs	r6, #4
 8003078:	4233      	tst	r3, r6
 800307a:	d123      	bne.n	80030c4 <HAL_ADC_ConfigChannel+0x150>
 800307c:	071a      	lsls	r2, r3, #28
 800307e:	d423      	bmi.n	80030c8 <HAL_ADC_ConfigChannel+0x154>
 8003080:	06da      	lsls	r2, r3, #27
 8003082:	d423      	bmi.n	80030cc <HAL_ADC_ConfigChannel+0x158>
 8003084:	069a      	lsls	r2, r3, #26
 8003086:	d423      	bmi.n	80030d0 <HAL_ADC_ConfigChannel+0x15c>
 8003088:	065a      	lsls	r2, r3, #25
 800308a:	d423      	bmi.n	80030d4 <HAL_ADC_ConfigChannel+0x160>
 800308c:	061a      	lsls	r2, r3, #24
 800308e:	d423      	bmi.n	80030d8 <HAL_ADC_ConfigChannel+0x164>
 8003090:	05da      	lsls	r2, r3, #23
 8003092:	d423      	bmi.n	80030dc <HAL_ADC_ConfigChannel+0x168>
 8003094:	059a      	lsls	r2, r3, #22
 8003096:	d423      	bmi.n	80030e0 <HAL_ADC_ConfigChannel+0x16c>
 8003098:	055a      	lsls	r2, r3, #21
 800309a:	d423      	bmi.n	80030e4 <HAL_ADC_ConfigChannel+0x170>
 800309c:	051a      	lsls	r2, r3, #20
 800309e:	d423      	bmi.n	80030e8 <HAL_ADC_ConfigChannel+0x174>
 80030a0:	04da      	lsls	r2, r3, #19
 80030a2:	d423      	bmi.n	80030ec <HAL_ADC_ConfigChannel+0x178>
 80030a4:	049a      	lsls	r2, r3, #18
 80030a6:	d423      	bmi.n	80030f0 <HAL_ADC_ConfigChannel+0x17c>
 80030a8:	045a      	lsls	r2, r3, #17
 80030aa:	d423      	bmi.n	80030f4 <HAL_ADC_ConfigChannel+0x180>
 80030ac:	041a      	lsls	r2, r3, #16
 80030ae:	d423      	bmi.n	80030f8 <HAL_ADC_ConfigChannel+0x184>
 80030b0:	03da      	lsls	r2, r3, #15
 80030b2:	d423      	bmi.n	80030fc <HAL_ADC_ConfigChannel+0x188>
 80030b4:	039a      	lsls	r2, r3, #14
 80030b6:	d423      	bmi.n	8003100 <HAL_ADC_ConfigChannel+0x18c>
 80030b8:	035a      	lsls	r2, r3, #13
 80030ba:	d5c6      	bpl.n	800304a <HAL_ADC_ConfigChannel+0xd6>
 80030bc:	2012      	movs	r0, #18
 80030be:	e7c4      	b.n	800304a <HAL_ADC_ConfigChannel+0xd6>
 80030c0:	2001      	movs	r0, #1
 80030c2:	e7c2      	b.n	800304a <HAL_ADC_ConfigChannel+0xd6>
 80030c4:	0010      	movs	r0, r2
 80030c6:	e7c0      	b.n	800304a <HAL_ADC_ConfigChannel+0xd6>
 80030c8:	2003      	movs	r0, #3
 80030ca:	e7be      	b.n	800304a <HAL_ADC_ConfigChannel+0xd6>
 80030cc:	2004      	movs	r0, #4
 80030ce:	e7bc      	b.n	800304a <HAL_ADC_ConfigChannel+0xd6>
 80030d0:	2005      	movs	r0, #5
 80030d2:	e7ba      	b.n	800304a <HAL_ADC_ConfigChannel+0xd6>
 80030d4:	2006      	movs	r0, #6
 80030d6:	e7b8      	b.n	800304a <HAL_ADC_ConfigChannel+0xd6>
 80030d8:	2007      	movs	r0, #7
 80030da:	e7b6      	b.n	800304a <HAL_ADC_ConfigChannel+0xd6>
 80030dc:	2008      	movs	r0, #8
 80030de:	e7b4      	b.n	800304a <HAL_ADC_ConfigChannel+0xd6>
 80030e0:	2009      	movs	r0, #9
 80030e2:	e7b2      	b.n	800304a <HAL_ADC_ConfigChannel+0xd6>
 80030e4:	200a      	movs	r0, #10
 80030e6:	e7b0      	b.n	800304a <HAL_ADC_ConfigChannel+0xd6>
 80030e8:	200b      	movs	r0, #11
 80030ea:	e7ae      	b.n	800304a <HAL_ADC_ConfigChannel+0xd6>
 80030ec:	200c      	movs	r0, #12
 80030ee:	e7ac      	b.n	800304a <HAL_ADC_ConfigChannel+0xd6>
 80030f0:	200d      	movs	r0, #13
 80030f2:	e7aa      	b.n	800304a <HAL_ADC_ConfigChannel+0xd6>
 80030f4:	200e      	movs	r0, #14
 80030f6:	e7a8      	b.n	800304a <HAL_ADC_ConfigChannel+0xd6>
 80030f8:	200f      	movs	r0, #15
 80030fa:	e7a6      	b.n	800304a <HAL_ADC_ConfigChannel+0xd6>
 80030fc:	2010      	movs	r0, #16
 80030fe:	e7a4      	b.n	800304a <HAL_ADC_ConfigChannel+0xd6>
 8003100:	2011      	movs	r0, #17
 8003102:	e7a2      	b.n	800304a <HAL_ADC_ConfigChannel+0xd6>
            wait_loop_index--;
 8003104:	9b03      	ldr	r3, [sp, #12]
 8003106:	3b01      	subs	r3, #1
 8003108:	9303      	str	r3, [sp, #12]
 800310a:	e785      	b.n	8003018 <HAL_ADC_ConfigChannel+0xa4>
        else if ((pConfig->Channel == ADC_CHANNEL_VBAT)
 800310c:	4829      	ldr	r0, [pc, #164]	@ (80031b4 <HAL_ADC_ConfigChannel+0x240>)
 800310e:	4283      	cmp	r3, r0
 8003110:	d10b      	bne.n	800312a <HAL_ADC_ConfigChannel+0x1b6>
                 && ((tmp_config_internal_channel & LL_ADC_PATH_INTERNAL_VBAT) == 0UL))
 8003112:	2080      	movs	r0, #128	@ 0x80
 8003114:	0440      	lsls	r0, r0, #17
 8003116:	4205      	tst	r5, r0
 8003118:	d000      	beq.n	800311c <HAL_ADC_ConfigChannel+0x1a8>
 800311a:	e781      	b.n	8003020 <HAL_ADC_ConfigChannel+0xac>
  MODIFY_REG(ADCxy_COMMON->CCR, ADC_CCR_VREFEN | ADC_CCR_TSEN | ADC_CCR_VBATEN, PathInternal);
 800311c:	6813      	ldr	r3, [r2, #0]
 800311e:	4d22      	ldr	r5, [pc, #136]	@ (80031a8 <HAL_ADC_ConfigChannel+0x234>)
 8003120:	402b      	ands	r3, r5
 8003122:	430b      	orrs	r3, r1
 8003124:	4318      	orrs	r0, r3
 8003126:	6010      	str	r0, [r2, #0]
}
 8003128:	e77a      	b.n	8003020 <HAL_ADC_ConfigChannel+0xac>
        else if ((pConfig->Channel == ADC_CHANNEL_VREFINT) &&
 800312a:	4823      	ldr	r0, [pc, #140]	@ (80031b8 <HAL_ADC_ConfigChannel+0x244>)
 800312c:	4283      	cmp	r3, r0
 800312e:	d000      	beq.n	8003132 <HAL_ADC_ConfigChannel+0x1be>
 8003130:	e776      	b.n	8003020 <HAL_ADC_ConfigChannel+0xac>
                 ((tmp_config_internal_channel & LL_ADC_PATH_INTERNAL_VREFINT) == 0UL))
 8003132:	2080      	movs	r0, #128	@ 0x80
 8003134:	03c0      	lsls	r0, r0, #15
 8003136:	e7ee      	b.n	8003116 <HAL_ADC_ConfigChannel+0x1a2>
      if ((hadc->Init.ScanConvMode == ADC_SCAN_SEQ_FIXED)       ||
 8003138:	428f      	cmp	r7, r1
 800313a:	d104      	bne.n	8003146 <HAL_ADC_ConfigChannel+0x1d2>
  CLEAR_BIT(ADCx->CHSELR, (Channel & ADC_CHANNEL_ID_BITFIELD_MASK));
 800313c:	6aaa      	ldr	r2, [r5, #40]	@ 0x28
 800313e:	0359      	lsls	r1, r3, #13
 8003140:	0b49      	lsrs	r1, r1, #13
 8003142:	438a      	bics	r2, r1
 8003144:	62aa      	str	r2, [r5, #40]	@ 0x28
      if (__LL_ADC_IS_CHANNEL_INTERNAL(pConfig->Channel))
 8003146:	2b00      	cmp	r3, #0
 8003148:	db00      	blt.n	800314c <HAL_ADC_ConfigChannel+0x1d8>
 800314a:	e769      	b.n	8003020 <HAL_ADC_ConfigChannel+0xac>
  return (uint32_t)(READ_BIT(ADCxy_COMMON->CCR, ADC_CCR_VREFEN | ADC_CCR_TSEN | ADC_CCR_VBATEN));
 800314c:	4a14      	ldr	r2, [pc, #80]	@ (80031a0 <HAL_ADC_ConfigChannel+0x22c>)
        if (pConfig->Channel == ADC_CHANNEL_TEMPSENSOR)
 800314e:	4815      	ldr	r0, [pc, #84]	@ (80031a4 <HAL_ADC_ConfigChannel+0x230>)
 8003150:	6811      	ldr	r1, [r2, #0]
 8003152:	4283      	cmp	r3, r0
 8003154:	d108      	bne.n	8003168 <HAL_ADC_ConfigChannel+0x1f4>
          LL_ADC_SetCommonPathInternalCh(__LL_ADC_COMMON_INSTANCE(hadc->Instance),
 8003156:	23a0      	movs	r3, #160	@ 0xa0
  MODIFY_REG(ADCxy_COMMON->CCR, ADC_CCR_VREFEN | ADC_CCR_TSEN | ADC_CCR_VBATEN, PathInternal);
 8003158:	6810      	ldr	r0, [r2, #0]
 800315a:	045b      	lsls	r3, r3, #17
          LL_ADC_SetCommonPathInternalCh(__LL_ADC_COMMON_INSTANCE(hadc->Instance),
 800315c:	400b      	ands	r3, r1
 800315e:	4912      	ldr	r1, [pc, #72]	@ (80031a8 <HAL_ADC_ConfigChannel+0x234>)
 8003160:	4001      	ands	r1, r0
 8003162:	430b      	orrs	r3, r1
 8003164:	6013      	str	r3, [r2, #0]
}
 8003166:	e75b      	b.n	8003020 <HAL_ADC_ConfigChannel+0xac>
        else if (pConfig->Channel == ADC_CHANNEL_VBAT)
 8003168:	4812      	ldr	r0, [pc, #72]	@ (80031b4 <HAL_ADC_ConfigChannel+0x240>)
 800316a:	4283      	cmp	r3, r0
 800316c:	d103      	bne.n	8003176 <HAL_ADC_ConfigChannel+0x202>
          LL_ADC_SetCommonPathInternalCh(__LL_ADC_COMMON_INSTANCE(hadc->Instance),
 800316e:	23c0      	movs	r3, #192	@ 0xc0
  MODIFY_REG(ADCxy_COMMON->CCR, ADC_CCR_VREFEN | ADC_CCR_TSEN | ADC_CCR_VBATEN, PathInternal);
 8003170:	6810      	ldr	r0, [r2, #0]
 8003172:	041b      	lsls	r3, r3, #16
 8003174:	e7f2      	b.n	800315c <HAL_ADC_ConfigChannel+0x1e8>
        else if (pConfig->Channel == ADC_CHANNEL_VREFINT)
 8003176:	4810      	ldr	r0, [pc, #64]	@ (80031b8 <HAL_ADC_ConfigChannel+0x244>)
 8003178:	4283      	cmp	r3, r0
 800317a:	d000      	beq.n	800317e <HAL_ADC_ConfigChannel+0x20a>
 800317c:	e750      	b.n	8003020 <HAL_ADC_ConfigChannel+0xac>
          LL_ADC_SetCommonPathInternalCh(__LL_ADC_COMMON_INSTANCE(hadc->Instance),
 800317e:	20c0      	movs	r0, #192	@ 0xc0
 8003180:	0440      	lsls	r0, r0, #17
 8003182:	6813      	ldr	r3, [r2, #0]
 8003184:	4001      	ands	r1, r0
 8003186:	4808      	ldr	r0, [pc, #32]	@ (80031a8 <HAL_ADC_ConfigChannel+0x234>)
 8003188:	4003      	ands	r3, r0
 800318a:	4319      	orrs	r1, r3
 800318c:	6011      	str	r1, [r2, #0]
}
 800318e:	e747      	b.n	8003020 <HAL_ADC_ConfigChannel+0xac>
    SET_BIT(hadc->State, HAL_ADC_STATE_ERROR_CONFIG);
 8003190:	2320      	movs	r3, #32
 8003192:	6da2      	ldr	r2, [r4, #88]	@ 0x58
    tmp_hal_status = HAL_ERROR;
 8003194:	2001      	movs	r0, #1
    SET_BIT(hadc->State, HAL_ADC_STATE_ERROR_CONFIG);
 8003196:	4313      	orrs	r3, r2
 8003198:	65a3      	str	r3, [r4, #88]	@ 0x58
    tmp_hal_status = HAL_ERROR;
 800319a:	e742      	b.n	8003022 <HAL_ADC_ConfigChannel+0xae>
 800319c:	07ffff00 	.word	0x07ffff00
 80031a0:	40012708 	.word	0x40012708
 80031a4:	b0001000 	.word	0xb0001000
 80031a8:	fe3fffff 	.word	0xfe3fffff
 80031ac:	20000000 	.word	0x20000000
 80031b0:	00030d40 	.word	0x00030d40
 80031b4:	b8004000 	.word	0xb8004000
 80031b8:	b4002000 	.word	0xb4002000

080031bc <ADC_ConversionStop>:
  *         stopped to disable the ADC.
  * @param  hadc ADC handle
  * @retval HAL status.
  */
HAL_StatusTypeDef ADC_ConversionStop(ADC_HandleTypeDef *hadc)
{
 80031bc:	b570      	push	{r4, r5, r6, lr}
  /* Check the parameters */
  assert_param(IS_ADC_ALL_INSTANCE(hadc->Instance));

  /* Verification if ADC is not already stopped on regular group to bypass    */
  /* this function if not needed.                                             */
  if (LL_ADC_REG_IsConversionOngoing(hadc->Instance) != 0UL)
 80031be:	6805      	ldr	r5, [r0, #0]
{
 80031c0:	0004      	movs	r4, r0
  if (LL_ADC_REG_IsConversionOngoing(hadc->Instance) != 0UL)
 80031c2:	0028      	movs	r0, r5
 80031c4:	f7ff fd5a 	bl	8002c7c <LL_ADC_REG_IsConversionOngoing>
 80031c8:	2800      	cmp	r0, #0
 80031ca:	d101      	bne.n	80031d0 <ADC_ConversionStop+0x14>
    }

  }

  /* Return HAL status */
  return HAL_OK;
 80031cc:	2000      	movs	r0, #0
}
 80031ce:	bd70      	pop	{r4, r5, r6, pc}
  return ((READ_BIT(ADCx->CR, ADC_CR_ADDIS) == (ADC_CR_ADDIS)) ? 1UL : 0UL);
 80031d0:	68ab      	ldr	r3, [r5, #8]
 80031d2:	079b      	lsls	r3, r3, #30
 80031d4:	d405      	bmi.n	80031e2 <ADC_ConversionStop+0x26>
  MODIFY_REG(ADCx->CR,
 80031d6:	68aa      	ldr	r2, [r5, #8]
 80031d8:	4b0f      	ldr	r3, [pc, #60]	@ (8003218 <ADC_ConversionStop+0x5c>)
 80031da:	401a      	ands	r2, r3
 80031dc:	2310      	movs	r3, #16
 80031de:	4313      	orrs	r3, r2
 80031e0:	60ab      	str	r3, [r5, #8]
    tickstart = HAL_GetTick();
 80031e2:	f7ff fd33 	bl	8002c4c <HAL_GetTick>
    while ((hadc->Instance->CR & ADC_CR_ADSTART) != 0UL)
 80031e6:	2604      	movs	r6, #4
    tickstart = HAL_GetTick();
 80031e8:	0005      	movs	r5, r0
    while ((hadc->Instance->CR & ADC_CR_ADSTART) != 0UL)
 80031ea:	6823      	ldr	r3, [r4, #0]
 80031ec:	689b      	ldr	r3, [r3, #8]
 80031ee:	4233      	tst	r3, r6
 80031f0:	d0ec      	beq.n	80031cc <ADC_ConversionStop+0x10>
      if ((HAL_GetTick() - tickstart) > ADC_STOP_CONVERSION_TIMEOUT)
 80031f2:	f7ff fd2b 	bl	8002c4c <HAL_GetTick>
 80031f6:	1b40      	subs	r0, r0, r5
 80031f8:	2802      	cmp	r0, #2
 80031fa:	d9f6      	bls.n	80031ea <ADC_ConversionStop+0x2e>
        if ((hadc->Instance->CR & ADC_CR_ADSTART) != 0UL)
 80031fc:	6823      	ldr	r3, [r4, #0]
 80031fe:	689b      	ldr	r3, [r3, #8]
 8003200:	4233      	tst	r3, r6
 8003202:	d0f2      	beq.n	80031ea <ADC_ConversionStop+0x2e>
          SET_BIT(hadc->State, HAL_ADC_STATE_ERROR_INTERNAL);
 8003204:	2310      	movs	r3, #16
          SET_BIT(hadc->ErrorCode, HAL_ADC_ERROR_INTERNAL);
 8003206:	2001      	movs	r0, #1
          SET_BIT(hadc->State, HAL_ADC_STATE_ERROR_INTERNAL);
 8003208:	6da2      	ldr	r2, [r4, #88]	@ 0x58
 800320a:	4313      	orrs	r3, r2
 800320c:	65a3      	str	r3, [r4, #88]	@ 0x58
          SET_BIT(hadc->ErrorCode, HAL_ADC_ERROR_INTERNAL);
 800320e:	6de3      	ldr	r3, [r4, #92]	@ 0x5c
 8003210:	4303      	orrs	r3, r0
 8003212:	65e3      	str	r3, [r4, #92]	@ 0x5c
          return HAL_ERROR;
 8003214:	e7db      	b.n	80031ce <ADC_ConversionStop+0x12>
 8003216:	46c0      	nop			@ (mov r8, r8)
 8003218:	7fffffe8 	.word	0x7fffffe8

0800321c <ADC_Enable>:
  * @retval HAL status.
  */
HAL_StatusTypeDef ADC_Enable(ADC_HandleTypeDef *hadc)
{
  uint32_t tickstart;
  __IO uint32_t wait_loop_index = 0UL;
 800321c:	2300      	movs	r3, #0
{
 800321e:	b5f7      	push	{r0, r1, r2, r4, r5, r6, r7, lr}

  /* ADC enable and wait for ADC ready (in case of ADC is disabled or         */
  /* enabling phase not yet completed: flag ADC ready not yet set).           */
  /* Timeout implemented to not be stuck if ADC cannot be enabled (possible   */
  /* causes: ADC clock not running, ...).                                     */
  if (LL_ADC_IsEnabled(hadc->Instance) == 0UL)
 8003220:	6802      	ldr	r2, [r0, #0]
  __IO uint32_t wait_loop_index = 0UL;
 8003222:	9301      	str	r3, [sp, #4]
  return ((READ_BIT(ADCx->CR, ADC_CR_ADEN) == (ADC_CR_ADEN)) ? 1UL : 0UL);
 8003224:	6891      	ldr	r1, [r2, #8]
 8003226:	3301      	adds	r3, #1
{
 8003228:	0004      	movs	r4, r0
 800322a:	4219      	tst	r1, r3
 800322c:	d001      	beq.n	8003232 <ADC_Enable+0x16>
      }
    }
  }

  /* Return HAL status */
  return HAL_OK;
 800322e:	2000      	movs	r0, #0
}
 8003230:	bdfe      	pop	{r1, r2, r3, r4, r5, r6, r7, pc}
    if ((hadc->Instance->CR & (ADC_CR_ADCAL | ADC_CR_ADSTP | ADC_CR_ADSTART | ADC_CR_ADDIS | ADC_CR_ADEN)) != 0UL)
 8003232:	6890      	ldr	r0, [r2, #8]
 8003234:	4922      	ldr	r1, [pc, #136]	@ (80032c0 <ADC_Enable+0xa4>)
 8003236:	4208      	tst	r0, r1
 8003238:	d008      	beq.n	800324c <ADC_Enable+0x30>
      SET_BIT(hadc->State, HAL_ADC_STATE_ERROR_INTERNAL);
 800323a:	2210      	movs	r2, #16
 800323c:	6da1      	ldr	r1, [r4, #88]	@ 0x58
 800323e:	430a      	orrs	r2, r1
 8003240:	65a2      	str	r2, [r4, #88]	@ 0x58
      SET_BIT(hadc->ErrorCode, HAL_ADC_ERROR_INTERNAL);
 8003242:	6de2      	ldr	r2, [r4, #92]	@ 0x5c
 8003244:	4313      	orrs	r3, r2
      return HAL_ERROR;
 8003246:	2001      	movs	r0, #1
            SET_BIT(hadc->ErrorCode, HAL_ADC_ERROR_INTERNAL);
 8003248:	65e3      	str	r3, [r4, #92]	@ 0x5c
            return HAL_ERROR;
 800324a:	e7f1      	b.n	8003230 <ADC_Enable+0x14>
  MODIFY_REG(ADCx->CR,
 800324c:	6891      	ldr	r1, [r2, #8]
 800324e:	4f1d      	ldr	r7, [pc, #116]	@ (80032c4 <ADC_Enable+0xa8>)
 8003250:	4039      	ands	r1, r7
 8003252:	430b      	orrs	r3, r1
 8003254:	6093      	str	r3, [r2, #8]
  return (uint32_t)(READ_BIT(ADCxy_COMMON->CCR, ADC_CCR_VREFEN | ADC_CCR_TSEN | ADC_CCR_VBATEN));
 8003256:	4b1c      	ldr	r3, [pc, #112]	@ (80032c8 <ADC_Enable+0xac>)
 8003258:	681b      	ldr	r3, [r3, #0]
    if ((LL_ADC_GetCommonPathInternalCh(__LL_ADC_COMMON_INSTANCE(hadc->Instance)) & LL_ADC_PATH_INTERNAL_TEMPSENSOR)
 800325a:	021b      	lsls	r3, r3, #8
 800325c:	d421      	bmi.n	80032a2 <ADC_Enable+0x86>
    if (hadc->Init.LowPowerAutoPowerOff != ENABLE)
 800325e:	7e63      	ldrb	r3, [r4, #25]
 8003260:	2b01      	cmp	r3, #1
 8003262:	d0e4      	beq.n	800322e <ADC_Enable+0x12>
      tickstart = HAL_GetTick();
 8003264:	f7ff fcf2 	bl	8002c4c <HAL_GetTick>
      while (__HAL_ADC_GET_FLAG(hadc, ADC_FLAG_RDY) == 0UL)
 8003268:	2501      	movs	r5, #1
      tickstart = HAL_GetTick();
 800326a:	0006      	movs	r6, r0
      while (__HAL_ADC_GET_FLAG(hadc, ADC_FLAG_RDY) == 0UL)
 800326c:	6822      	ldr	r2, [r4, #0]
 800326e:	6813      	ldr	r3, [r2, #0]
 8003270:	422b      	tst	r3, r5
 8003272:	d1dc      	bne.n	800322e <ADC_Enable+0x12>
  return ((READ_BIT(ADCx->CR, ADC_CR_ADEN) == (ADC_CR_ADEN)) ? 1UL : 0UL);
 8003274:	6893      	ldr	r3, [r2, #8]
 8003276:	422b      	tst	r3, r5
 8003278:	d103      	bne.n	8003282 <ADC_Enable+0x66>
  MODIFY_REG(ADCx->CR,
 800327a:	6893      	ldr	r3, [r2, #8]
 800327c:	403b      	ands	r3, r7
 800327e:	432b      	orrs	r3, r5
 8003280:	6093      	str	r3, [r2, #8]
        if ((HAL_GetTick() - tickstart) > ADC_ENABLE_TIMEOUT)
 8003282:	f7ff fce3 	bl	8002c4c <HAL_GetTick>
 8003286:	1b80      	subs	r0, r0, r6
 8003288:	2802      	cmp	r0, #2
 800328a:	d9ef      	bls.n	800326c <ADC_Enable+0x50>
          if (__HAL_ADC_GET_FLAG(hadc, ADC_FLAG_RDY) == 0UL)
 800328c:	6823      	ldr	r3, [r4, #0]
 800328e:	681b      	ldr	r3, [r3, #0]
 8003290:	422b      	tst	r3, r5
 8003292:	d1eb      	bne.n	800326c <ADC_Enable+0x50>
            SET_BIT(hadc->State, HAL_ADC_STATE_ERROR_INTERNAL);
 8003294:	2310      	movs	r3, #16
 8003296:	6da2      	ldr	r2, [r4, #88]	@ 0x58
 8003298:	4313      	orrs	r3, r2
 800329a:	65a3      	str	r3, [r4, #88]	@ 0x58
            SET_BIT(hadc->ErrorCode, HAL_ADC_ERROR_INTERNAL);
 800329c:	6de3      	ldr	r3, [r4, #92]	@ 0x5c
 800329e:	432b      	orrs	r3, r5
 80032a0:	e7d1      	b.n	8003246 <ADC_Enable+0x2a>
                         * ((SystemCoreClock / (100000UL * 2UL)) + 1UL));
 80032a2:	4b0a      	ldr	r3, [pc, #40]	@ (80032cc <ADC_Enable+0xb0>)
 80032a4:	490a      	ldr	r1, [pc, #40]	@ (80032d0 <ADC_Enable+0xb4>)
 80032a6:	6818      	ldr	r0, [r3, #0]
 80032a8:	f7fc ff5e 	bl	8000168 <__udivsi3>
 80032ac:	3001      	adds	r0, #1
      wait_loop_index = ((LL_ADC_DELAY_TEMPSENSOR_BUFFER_STAB_US / 10UL)
 80032ae:	9001      	str	r0, [sp, #4]
      while (wait_loop_index != 0UL)
 80032b0:	9b01      	ldr	r3, [sp, #4]
 80032b2:	2b00      	cmp	r3, #0
 80032b4:	d0d3      	beq.n	800325e <ADC_Enable+0x42>
        wait_loop_index--;
 80032b6:	9b01      	ldr	r3, [sp, #4]
 80032b8:	3b01      	subs	r3, #1
 80032ba:	9301      	str	r3, [sp, #4]
 80032bc:	e7f8      	b.n	80032b0 <ADC_Enable+0x94>
 80032be:	46c0      	nop			@ (mov r8, r8)
 80032c0:	80000017 	.word	0x80000017
 80032c4:	7fffffe8 	.word	0x7fffffe8
 80032c8:	40012708 	.word	0x40012708
 80032cc:	20000000 	.word	0x20000000
 80032d0:	00030d40 	.word	0x00030d40

080032d4 <HAL_ADC_Start>:
{
 80032d4:	b570      	push	{r4, r5, r6, lr}
 80032d6:	0004      	movs	r4, r0
  if (LL_ADC_REG_IsConversionOngoing(hadc->Instance) == 0UL)
 80032d8:	6800      	ldr	r0, [r0, #0]
 80032da:	f7ff fccf 	bl	8002c7c <LL_ADC_REG_IsConversionOngoing>
 80032de:	0006      	movs	r6, r0
    __HAL_LOCK(hadc);
 80032e0:	2002      	movs	r0, #2
  if (LL_ADC_REG_IsConversionOngoing(hadc->Instance) == 0UL)
 80032e2:	2e00      	cmp	r6, #0
 80032e4:	d11d      	bne.n	8003322 <HAL_ADC_Start+0x4e>
    __HAL_LOCK(hadc);
 80032e6:	0025      	movs	r5, r4
 80032e8:	3554      	adds	r5, #84	@ 0x54
 80032ea:	782b      	ldrb	r3, [r5, #0]
 80032ec:	2b01      	cmp	r3, #1
 80032ee:	d018      	beq.n	8003322 <HAL_ADC_Start+0x4e>
 80032f0:	2301      	movs	r3, #1
    tmp_hal_status = ADC_Enable(hadc);
 80032f2:	0020      	movs	r0, r4
    __HAL_LOCK(hadc);
 80032f4:	702b      	strb	r3, [r5, #0]
    tmp_hal_status = ADC_Enable(hadc);
 80032f6:	f7ff ff91 	bl	800321c <ADC_Enable>
    if (tmp_hal_status == HAL_OK)
 80032fa:	2800      	cmp	r0, #0
 80032fc:	d112      	bne.n	8003324 <HAL_ADC_Start+0x50>
      ADC_STATE_CLR_SET(hadc->State,
 80032fe:	6da2      	ldr	r2, [r4, #88]	@ 0x58
 8003300:	4b09      	ldr	r3, [pc, #36]	@ (8003328 <HAL_ADC_Start+0x54>)
 8003302:	401a      	ands	r2, r3
 8003304:	2380      	movs	r3, #128	@ 0x80
 8003306:	005b      	lsls	r3, r3, #1
 8003308:	4313      	orrs	r3, r2
      __HAL_ADC_CLEAR_FLAG(hadc, (ADC_FLAG_EOC | ADC_FLAG_EOS | ADC_FLAG_OVR));
 800330a:	221c      	movs	r2, #28
      ADC_STATE_CLR_SET(hadc->State,
 800330c:	65a3      	str	r3, [r4, #88]	@ 0x58
      __HAL_ADC_CLEAR_FLAG(hadc, (ADC_FLAG_EOC | ADC_FLAG_EOS | ADC_FLAG_OVR));
 800330e:	6823      	ldr	r3, [r4, #0]
      ADC_CLEAR_ERRORCODE(hadc);
 8003310:	65e0      	str	r0, [r4, #92]	@ 0x5c
      __HAL_ADC_CLEAR_FLAG(hadc, (ADC_FLAG_EOC | ADC_FLAG_EOS | ADC_FLAG_OVR));
 8003312:	601a      	str	r2, [r3, #0]
      __HAL_UNLOCK(hadc);
 8003314:	7028      	strb	r0, [r5, #0]
  MODIFY_REG(ADCx->CR,
 8003316:	6899      	ldr	r1, [r3, #8]
 8003318:	4a04      	ldr	r2, [pc, #16]	@ (800332c <HAL_ADC_Start+0x58>)
 800331a:	4011      	ands	r1, r2
 800331c:	2204      	movs	r2, #4
 800331e:	430a      	orrs	r2, r1
 8003320:	609a      	str	r2, [r3, #8]
}
 8003322:	bd70      	pop	{r4, r5, r6, pc}
      __HAL_UNLOCK(hadc);
 8003324:	702e      	strb	r6, [r5, #0]
 8003326:	e7fc      	b.n	8003322 <HAL_ADC_Start+0x4e>
 8003328:	fffff0fe 	.word	0xfffff0fe
 800332c:	7fffffe8 	.word	0x7fffffe8

08003330 <ADC_Disable>:
  return ((READ_BIT(ADCx->CR, ADC_CR_ADEN) == (ADC_CR_ADEN)) ? 1UL : 0UL);
 8003330:	2201      	movs	r2, #1
  * @retval HAL status.
  */
HAL_StatusTypeDef ADC_Disable(ADC_HandleTypeDef *hadc)
{
  uint32_t tickstart;
  const uint32_t tmp_adc_is_disable_on_going = LL_ADC_IsDisableOngoing(hadc->Instance);
 8003332:	6803      	ldr	r3, [r0, #0]
{
 8003334:	b570      	push	{r4, r5, r6, lr}
 8003336:	0004      	movs	r4, r0
  return ((READ_BIT(ADCx->CR, ADC_CR_ADDIS) == (ADC_CR_ADDIS)) ? 1UL : 0UL);
 8003338:	6898      	ldr	r0, [r3, #8]
  return ((READ_BIT(ADCx->CR, ADC_CR_ADEN) == (ADC_CR_ADEN)) ? 1UL : 0UL);
 800333a:	6899      	ldr	r1, [r3, #8]
 800333c:	4211      	tst	r1, r2
 800333e:	d101      	bne.n	8003344 <ADC_Disable+0x14>
      }
    }
  }

  /* Return HAL status */
  return HAL_OK;
 8003340:	2000      	movs	r0, #0
}
 8003342:	bd70      	pop	{r4, r5, r6, pc}
  return ((READ_BIT(ADCx->CR, ADC_CR_ADDIS) == (ADC_CR_ADDIS)) ? 1UL : 0UL);
 8003344:	2102      	movs	r1, #2
      && (tmp_adc_is_disable_on_going == 0UL)
 8003346:	4208      	tst	r0, r1
 8003348:	d1fa      	bne.n	8003340 <ADC_Disable+0x10>
    if ((hadc->Instance->CR & (ADC_CR_ADSTART | ADC_CR_ADEN)) == ADC_CR_ADEN)
 800334a:	2005      	movs	r0, #5
 800334c:	689d      	ldr	r5, [r3, #8]
 800334e:	4005      	ands	r5, r0
 8003350:	2d01      	cmp	r5, #1
 8003352:	d11e      	bne.n	8003392 <ADC_Disable+0x62>
  MODIFY_REG(ADCx->CR,
 8003354:	689a      	ldr	r2, [r3, #8]
 8003356:	4813      	ldr	r0, [pc, #76]	@ (80033a4 <ADC_Disable+0x74>)
 8003358:	4002      	ands	r2, r0
 800335a:	4311      	orrs	r1, r2
      __HAL_ADC_CLEAR_FLAG(hadc, (ADC_FLAG_EOSMP | ADC_FLAG_RDY));
 800335c:	2203      	movs	r2, #3
 800335e:	6099      	str	r1, [r3, #8]
 8003360:	601a      	str	r2, [r3, #0]
    tickstart = HAL_GetTick();
 8003362:	f7ff fc73 	bl	8002c4c <HAL_GetTick>
 8003366:	0006      	movs	r6, r0
    while ((hadc->Instance->CR & ADC_CR_ADEN) != 0UL)
 8003368:	6823      	ldr	r3, [r4, #0]
 800336a:	689b      	ldr	r3, [r3, #8]
 800336c:	422b      	tst	r3, r5
 800336e:	d0e7      	beq.n	8003340 <ADC_Disable+0x10>
      if ((HAL_GetTick() - tickstart) > ADC_DISABLE_TIMEOUT)
 8003370:	f7ff fc6c 	bl	8002c4c <HAL_GetTick>
 8003374:	1b80      	subs	r0, r0, r6
 8003376:	2802      	cmp	r0, #2
 8003378:	d9f6      	bls.n	8003368 <ADC_Disable+0x38>
        if ((hadc->Instance->CR & ADC_CR_ADEN) != 0UL)
 800337a:	6823      	ldr	r3, [r4, #0]
 800337c:	689b      	ldr	r3, [r3, #8]
 800337e:	422b      	tst	r3, r5
 8003380:	d0f2      	beq.n	8003368 <ADC_Disable+0x38>
          SET_BIT(hadc->State, HAL_ADC_STATE_ERROR_INTERNAL);
 8003382:	2310      	movs	r3, #16
 8003384:	6da2      	ldr	r2, [r4, #88]	@ 0x58
 8003386:	4313      	orrs	r3, r2
 8003388:	65a3      	str	r3, [r4, #88]	@ 0x58
          SET_BIT(hadc->ErrorCode, HAL_ADC_ERROR_INTERNAL);
 800338a:	6de3      	ldr	r3, [r4, #92]	@ 0x5c
 800338c:	432b      	orrs	r3, r5
 800338e:	65e3      	str	r3, [r4, #92]	@ 0x5c
          return HAL_ERROR;
 8003390:	e006      	b.n	80033a0 <ADC_Disable+0x70>
      SET_BIT(hadc->State, HAL_ADC_STATE_ERROR_INTERNAL);
 8003392:	2310      	movs	r3, #16
 8003394:	6da1      	ldr	r1, [r4, #88]	@ 0x58
 8003396:	430b      	orrs	r3, r1
 8003398:	65a3      	str	r3, [r4, #88]	@ 0x58
      SET_BIT(hadc->ErrorCode, HAL_ADC_ERROR_INTERNAL);
 800339a:	6de3      	ldr	r3, [r4, #92]	@ 0x5c
 800339c:	431a      	orrs	r2, r3
 800339e:	65e2      	str	r2, [r4, #92]	@ 0x5c
      return HAL_ERROR;
 80033a0:	2001      	movs	r0, #1
 80033a2:	e7ce      	b.n	8003342 <ADC_Disable+0x12>
 80033a4:	7fffffe8 	.word	0x7fffffe8

080033a8 <HAL_ADC_Stop>:
{
 80033a8:	b570      	push	{r4, r5, r6, lr}
  __HAL_LOCK(hadc);
 80033aa:	0006      	movs	r6, r0
 80033ac:	3654      	adds	r6, #84	@ 0x54
 80033ae:	7833      	ldrb	r3, [r6, #0]
{
 80033b0:	0004      	movs	r4, r0
  __HAL_LOCK(hadc);
 80033b2:	2002      	movs	r0, #2
 80033b4:	2b01      	cmp	r3, #1
 80033b6:	d012      	beq.n	80033de <HAL_ADC_Stop+0x36>
 80033b8:	2501      	movs	r5, #1
  tmp_hal_status = ADC_ConversionStop(hadc);
 80033ba:	0020      	movs	r0, r4
  __HAL_LOCK(hadc);
 80033bc:	7035      	strb	r5, [r6, #0]
  tmp_hal_status = ADC_ConversionStop(hadc);
 80033be:	f7ff fefd 	bl	80031bc <ADC_ConversionStop>
  if (tmp_hal_status == HAL_OK)
 80033c2:	2800      	cmp	r0, #0
 80033c4:	d109      	bne.n	80033da <HAL_ADC_Stop+0x32>
    tmp_hal_status = ADC_Disable(hadc);
 80033c6:	0020      	movs	r0, r4
 80033c8:	f7ff ffb2 	bl	8003330 <ADC_Disable>
    if (tmp_hal_status == HAL_OK)
 80033cc:	2800      	cmp	r0, #0
 80033ce:	d104      	bne.n	80033da <HAL_ADC_Stop+0x32>
      ADC_STATE_CLR_SET(hadc->State,
 80033d0:	6da3      	ldr	r3, [r4, #88]	@ 0x58
 80033d2:	4a03      	ldr	r2, [pc, #12]	@ (80033e0 <HAL_ADC_Stop+0x38>)
 80033d4:	4013      	ands	r3, r2
 80033d6:	431d      	orrs	r5, r3
 80033d8:	65a5      	str	r5, [r4, #88]	@ 0x58
  __HAL_UNLOCK(hadc);
 80033da:	2300      	movs	r3, #0
 80033dc:	7033      	strb	r3, [r6, #0]
}
 80033de:	bd70      	pop	{r4, r5, r6, pc}
 80033e0:	fffffefe 	.word	0xfffffefe

080033e4 <HAL_NVIC_SetPriority>:
  *         with stm32g0xx devices, this parameter is a dummy value and it is ignored, because
  *         no subpriority supported in Cortex M0+ based products.
  * @retval None
  */
void HAL_NVIC_SetPriority(IRQn_Type IRQn, uint32_t PreemptPriority, uint32_t SubPriority)
{
 80033e4:	b510      	push	{r4, lr}
 */
__STATIC_INLINE void __NVIC_SetPriority(IRQn_Type IRQn, uint32_t priority)
{
  if ((int32_t)(IRQn) >= 0)
  {
    NVIC->IP[_IP_IDX(IRQn)]  = ((uint32_t)(NVIC->IP[_IP_IDX(IRQn)]  & ~(0xFFUL << _BIT_SHIFT(IRQn))) |
 80033e6:	24ff      	movs	r4, #255	@ 0xff
 80033e8:	2203      	movs	r2, #3
 80033ea:	000b      	movs	r3, r1
 80033ec:	0021      	movs	r1, r4
 80033ee:	4002      	ands	r2, r0
 80033f0:	00d2      	lsls	r2, r2, #3
 80033f2:	4091      	lsls	r1, r2
       (((priority << (8U - __NVIC_PRIO_BITS)) & (uint32_t)0xFFUL) << _BIT_SHIFT(IRQn)));
 80033f4:	019b      	lsls	r3, r3, #6
 80033f6:	4023      	ands	r3, r4
    NVIC->IP[_IP_IDX(IRQn)]  = ((uint32_t)(NVIC->IP[_IP_IDX(IRQn)]  & ~(0xFFUL << _BIT_SHIFT(IRQn))) |
 80033f8:	43c9      	mvns	r1, r1
       (((priority << (8U - __NVIC_PRIO_BITS)) & (uint32_t)0xFFUL) << _BIT_SHIFT(IRQn)));
 80033fa:	4093      	lsls	r3, r2
  if ((int32_t)(IRQn) >= 0)
 80033fc:	2800      	cmp	r0, #0
 80033fe:	db0a      	blt.n	8003416 <HAL_NVIC_SetPriority+0x32>
    NVIC->IP[_IP_IDX(IRQn)]  = ((uint32_t)(NVIC->IP[_IP_IDX(IRQn)]  & ~(0xFFUL << _BIT_SHIFT(IRQn))) |
 8003400:	24c0      	movs	r4, #192	@ 0xc0
 8003402:	4a0b      	ldr	r2, [pc, #44]	@ (8003430 <HAL_NVIC_SetPriority+0x4c>)
 8003404:	0880      	lsrs	r0, r0, #2
 8003406:	0080      	lsls	r0, r0, #2
 8003408:	1880      	adds	r0, r0, r2
 800340a:	00a4      	lsls	r4, r4, #2
 800340c:	5902      	ldr	r2, [r0, r4]
 800340e:	400a      	ands	r2, r1
 8003410:	4313      	orrs	r3, r2
 8003412:	5103      	str	r3, [r0, r4]
  UNUSED(SubPriority);

  /* Check the parameters */
  assert_param(IS_NVIC_PREEMPTION_PRIORITY(PreemptPriority));
  NVIC_SetPriority(IRQn, PreemptPriority);
}
 8003414:	bd10      	pop	{r4, pc}
  }
  else
  {
    SCB->SHP[_SHP_IDX(IRQn)] = ((uint32_t)(SCB->SHP[_SHP_IDX(IRQn)] & ~(0xFFUL << _BIT_SHIFT(IRQn))) |
 8003416:	220f      	movs	r2, #15
 8003418:	4010      	ands	r0, r2
 800341a:	3808      	subs	r0, #8
 800341c:	4a05      	ldr	r2, [pc, #20]	@ (8003434 <HAL_NVIC_SetPriority+0x50>)
 800341e:	0880      	lsrs	r0, r0, #2
 8003420:	0080      	lsls	r0, r0, #2
 8003422:	1880      	adds	r0, r0, r2
 8003424:	69c2      	ldr	r2, [r0, #28]
 8003426:	4011      	ands	r1, r2
 8003428:	4319      	orrs	r1, r3
 800342a:	61c1      	str	r1, [r0, #28]
 800342c:	e7f2      	b.n	8003414 <HAL_NVIC_SetPriority+0x30>
 800342e:	46c0      	nop			@ (mov r8, r8)
 8003430:	e000e100 	.word	0xe000e100
 8003434:	e000ed00 	.word	0xe000ed00

08003438 <HAL_NVIC_EnableIRQ>:
  if ((int32_t)(IRQn) >= 0)
 8003438:	2800      	cmp	r0, #0
 800343a:	db05      	blt.n	8003448 <HAL_NVIC_EnableIRQ+0x10>
    NVIC->ISER[0U] = (uint32_t)(1UL << (((uint32_t)IRQn) & 0x1FUL));
 800343c:	231f      	movs	r3, #31
 800343e:	4018      	ands	r0, r3
 8003440:	3b1e      	subs	r3, #30
 8003442:	4083      	lsls	r3, r0
 8003444:	4a01      	ldr	r2, [pc, #4]	@ (800344c <HAL_NVIC_EnableIRQ+0x14>)
 8003446:	6013      	str	r3, [r2, #0]
  /* Check the parameters */
  assert_param(IS_NVIC_DEVICE_IRQ(IRQn));

  /* Enable interrupt */
  NVIC_EnableIRQ(IRQn);
}
 8003448:	4770      	bx	lr
 800344a:	46c0      	nop			@ (mov r8, r8)
 800344c:	e000e100 	.word	0xe000e100

08003450 <HAL_SYSTICK_Config>:
           function <b>SysTick_Config</b> is not included. In this case, the file <b><i>device</i>.h</b>
           must contain a vendor-specific implementation of this function.
 */
__STATIC_INLINE uint32_t SysTick_Config(uint32_t ticks)
{
  if ((ticks - 1UL) > SysTick_LOAD_RELOAD_Msk)
 8003450:	2280      	movs	r2, #128	@ 0x80
 8003452:	1e43      	subs	r3, r0, #1
 8003454:	0452      	lsls	r2, r2, #17
  {
    return (1UL);                                                   /* Reload value impossible */
 8003456:	2001      	movs	r0, #1
  if ((ticks - 1UL) > SysTick_LOAD_RELOAD_Msk)
 8003458:	4293      	cmp	r3, r2
 800345a:	d20d      	bcs.n	8003478 <HAL_SYSTICK_Config+0x28>
    SCB->SHP[_SHP_IDX(IRQn)] = ((uint32_t)(SCB->SHP[_SHP_IDX(IRQn)] & ~(0xFFUL << _BIT_SHIFT(IRQn))) |
 800345c:	21c0      	movs	r1, #192	@ 0xc0
  }

  SysTick->LOAD  = (uint32_t)(ticks - 1UL);                         /* set reload register */
 800345e:	4a07      	ldr	r2, [pc, #28]	@ (800347c <HAL_SYSTICK_Config+0x2c>)
    SCB->SHP[_SHP_IDX(IRQn)] = ((uint32_t)(SCB->SHP[_SHP_IDX(IRQn)] & ~(0xFFUL << _BIT_SHIFT(IRQn))) |
 8003460:	4807      	ldr	r0, [pc, #28]	@ (8003480 <HAL_SYSTICK_Config+0x30>)
  SysTick->LOAD  = (uint32_t)(ticks - 1UL);                         /* set reload register */
 8003462:	6053      	str	r3, [r2, #4]
    SCB->SHP[_SHP_IDX(IRQn)] = ((uint32_t)(SCB->SHP[_SHP_IDX(IRQn)] & ~(0xFFUL << _BIT_SHIFT(IRQn))) |
 8003464:	6a03      	ldr	r3, [r0, #32]
 8003466:	0609      	lsls	r1, r1, #24
 8003468:	021b      	lsls	r3, r3, #8
 800346a:	0a1b      	lsrs	r3, r3, #8
 800346c:	430b      	orrs	r3, r1
 800346e:	6203      	str	r3, [r0, #32]
  NVIC_SetPriority (SysTick_IRQn, (1UL << __NVIC_PRIO_BITS) - 1UL); /* set Priority for Systick Interrupt */
  SysTick->VAL   = 0UL;                                             /* Load the SysTick Counter Value */
 8003470:	2000      	movs	r0, #0
  SysTick->CTRL  = SysTick_CTRL_CLKSOURCE_Msk |
 8003472:	2307      	movs	r3, #7
  SysTick->VAL   = 0UL;                                             /* Load the SysTick Counter Value */
 8003474:	6090      	str	r0, [r2, #8]
  SysTick->CTRL  = SysTick_CTRL_CLKSOURCE_Msk |
 8003476:	6013      	str	r3, [r2, #0]
  *                  - 1  Function failed.
  */
uint32_t HAL_SYSTICK_Config(uint32_t TicksNumb)
{
  return SysTick_Config(TicksNumb);
}
 8003478:	4770      	bx	lr
 800347a:	46c0      	nop			@ (mov r8, r8)
 800347c:	e000e010 	.word	0xe000e010
 8003480:	e000ed00 	.word	0xe000ed00

08003484 <HAL_DMA_Abort>:
  * @param hdma Pointer to a DMA_HandleTypeDef structure that contains
  *             the configuration information for the specified DMA Channel.
  * @retval HAL status
  */
HAL_StatusTypeDef HAL_DMA_Abort(DMA_HandleTypeDef *hdma)
{
 8003484:	b5f0      	push	{r4, r5, r6, r7, lr}
  /* Check the DMA peripheral handle */
  if (NULL == hdma)
 8003486:	2800      	cmp	r0, #0
 8003488:	d008      	beq.n	800349c <HAL_DMA_Abort+0x18>
  {
    return HAL_ERROR;
  }

  /* Check the DMA peripheral state */
  if (hdma->State != HAL_DMA_STATE_BUSY)
 800348a:	1d84      	adds	r4, r0, #6
 800348c:	7fe3      	ldrb	r3, [r4, #31]
 800348e:	1d41      	adds	r1, r0, #5
 8003490:	2b02      	cmp	r3, #2
 8003492:	d005      	beq.n	80034a0 <HAL_DMA_Abort+0x1c>
  {
    hdma->ErrorCode = HAL_DMA_ERROR_NO_XFER;
 8003494:	2304      	movs	r3, #4
 8003496:	63c3      	str	r3, [r0, #60]	@ 0x3c

    /* Process Unlocked */
    __HAL_UNLOCK(hdma);
 8003498:	2300      	movs	r3, #0
 800349a:	77cb      	strb	r3, [r1, #31]
    return HAL_ERROR;
 800349c:	2001      	movs	r0, #1
    /* Process Unlocked */
    __HAL_UNLOCK(hdma);
  }

  return HAL_OK;
}
 800349e:	bdf0      	pop	{r4, r5, r6, r7, pc}
    __HAL_DMA_DISABLE_IT(hdma, (DMA_IT_TC | DMA_IT_HT | DMA_IT_TE));
 80034a0:	250e      	movs	r5, #14
 80034a2:	6802      	ldr	r2, [r0, #0]
    hdma->DMAmuxChannel->CCR &= ~DMAMUX_CxCR_SOIE;
 80034a4:	6c46      	ldr	r6, [r0, #68]	@ 0x44
    __HAL_DMA_DISABLE_IT(hdma, (DMA_IT_TC | DMA_IT_HT | DMA_IT_TE));
 80034a6:	6813      	ldr	r3, [r2, #0]
 80034a8:	43ab      	bics	r3, r5
 80034aa:	6013      	str	r3, [r2, #0]
    hdma->DMAmuxChannel->CCR &= ~DMAMUX_CxCR_SOIE;
 80034ac:	6833      	ldr	r3, [r6, #0]
 80034ae:	4d10      	ldr	r5, [pc, #64]	@ (80034f0 <HAL_DMA_Abort+0x6c>)
 80034b0:	402b      	ands	r3, r5
 80034b2:	6033      	str	r3, [r6, #0]
    __HAL_DMA_DISABLE(hdma);
 80034b4:	2301      	movs	r3, #1
 80034b6:	6816      	ldr	r6, [r2, #0]
 80034b8:	439e      	bics	r6, r3
 80034ba:	6016      	str	r6, [r2, #0]
    __HAL_DMA_CLEAR_FLAG(hdma, ((DMA_FLAG_GI1) << (hdma->ChannelIndex  & 0x1CU)));
 80034bc:	6c02      	ldr	r2, [r0, #64]	@ 0x40
 80034be:	331b      	adds	r3, #27
 80034c0:	401a      	ands	r2, r3
 80034c2:	3b1b      	subs	r3, #27
 80034c4:	4093      	lsls	r3, r2
 80034c6:	4e0b      	ldr	r6, [pc, #44]	@ (80034f4 <HAL_DMA_Abort+0x70>)
 80034c8:	6877      	ldr	r7, [r6, #4]
 80034ca:	433b      	orrs	r3, r7
 80034cc:	6073      	str	r3, [r6, #4]
    hdma->DMAmuxChannelStatus->CFR = hdma->DMAmuxChannelStatusMask;
 80034ce:	6cc2      	ldr	r2, [r0, #76]	@ 0x4c
 80034d0:	6c83      	ldr	r3, [r0, #72]	@ 0x48
 80034d2:	605a      	str	r2, [r3, #4]
    if (hdma->DMAmuxRequestGen != 0U)
 80034d4:	6d03      	ldr	r3, [r0, #80]	@ 0x50
 80034d6:	2b00      	cmp	r3, #0
 80034d8:	d005      	beq.n	80034e6 <HAL_DMA_Abort+0x62>
      hdma->DMAmuxRequestGen->RGCR &= ~DMAMUX_RGxCR_OIE;
 80034da:	681a      	ldr	r2, [r3, #0]
 80034dc:	402a      	ands	r2, r5
 80034de:	601a      	str	r2, [r3, #0]
      hdma->DMAmuxRequestGenStatus->RGCFR = hdma->DMAmuxRequestGenStatusMask;
 80034e0:	6d43      	ldr	r3, [r0, #84]	@ 0x54
 80034e2:	6d82      	ldr	r2, [r0, #88]	@ 0x58
 80034e4:	605a      	str	r2, [r3, #4]
    hdma->State = HAL_DMA_STATE_READY;
 80034e6:	2301      	movs	r3, #1
    __HAL_UNLOCK(hdma);
 80034e8:	2000      	movs	r0, #0
    hdma->State = HAL_DMA_STATE_READY;
 80034ea:	77e3      	strb	r3, [r4, #31]
    __HAL_UNLOCK(hdma);
 80034ec:	77c8      	strb	r0, [r1, #31]
  return HAL_OK;
 80034ee:	e7d6      	b.n	800349e <HAL_DMA_Abort+0x1a>
 80034f0:	fffffeff 	.word	0xfffffeff
 80034f4:	40020000 	.word	0x40020000

080034f8 <HAL_DMA_Abort_IT>:
  * @param hdma Pointer to a DMA_HandleTypeDef structure that contains
  *             the configuration information for the specified DMA Channel.
  * @retval HAL status
  */
HAL_StatusTypeDef HAL_DMA_Abort_IT(DMA_HandleTypeDef *hdma)
{
 80034f8:	b5f8      	push	{r3, r4, r5, r6, r7, lr}
  HAL_StatusTypeDef status = HAL_OK;

  if (hdma->State != HAL_DMA_STATE_BUSY)
 80034fa:	1d81      	adds	r1, r0, #6
 80034fc:	7fcb      	ldrb	r3, [r1, #31]
 80034fe:	2b02      	cmp	r3, #2
 8003500:	d003      	beq.n	800350a <HAL_DMA_Abort_IT+0x12>
  {
    /* no transfer ongoing */
    hdma->ErrorCode = HAL_DMA_ERROR_NO_XFER;
 8003502:	2304      	movs	r3, #4
 8003504:	63c3      	str	r3, [r0, #60]	@ 0x3c

    status = HAL_ERROR;
 8003506:	2001      	movs	r0, #1
    {
      hdma->XferAbortCallback(hdma);
    }
  }
  return status;
}
 8003508:	bdf8      	pop	{r3, r4, r5, r6, r7, pc}
    __HAL_DMA_DISABLE_IT(hdma, (DMA_IT_TC | DMA_IT_HT | DMA_IT_TE));
 800350a:	240e      	movs	r4, #14
 800350c:	6802      	ldr	r2, [r0, #0]
    __HAL_DMA_CLEAR_FLAG(hdma, ((DMA_FLAG_GI1) << (hdma->ChannelIndex & 0x1CU)));
 800350e:	271c      	movs	r7, #28
    __HAL_DMA_DISABLE_IT(hdma, (DMA_IT_TC | DMA_IT_HT | DMA_IT_TE));
 8003510:	6813      	ldr	r3, [r2, #0]
    hdma->DMAmuxChannel->CCR &= ~DMAMUX_CxCR_SOIE;
 8003512:	6c45      	ldr	r5, [r0, #68]	@ 0x44
    __HAL_DMA_DISABLE_IT(hdma, (DMA_IT_TC | DMA_IT_HT | DMA_IT_TE));
 8003514:	43a3      	bics	r3, r4
 8003516:	6013      	str	r3, [r2, #0]
    __HAL_DMA_DISABLE(hdma);
 8003518:	2301      	movs	r3, #1
 800351a:	6814      	ldr	r4, [r2, #0]
 800351c:	439c      	bics	r4, r3
 800351e:	6014      	str	r4, [r2, #0]
    hdma->DMAmuxChannel->CCR &= ~DMAMUX_CxCR_SOIE;
 8003520:	682a      	ldr	r2, [r5, #0]
 8003522:	4c10      	ldr	r4, [pc, #64]	@ (8003564 <HAL_DMA_Abort_IT+0x6c>)
 8003524:	4022      	ands	r2, r4
 8003526:	602a      	str	r2, [r5, #0]
    __HAL_DMA_CLEAR_FLAG(hdma, ((DMA_FLAG_GI1) << (hdma->ChannelIndex & 0x1CU)));
 8003528:	6c02      	ldr	r2, [r0, #64]	@ 0x40
 800352a:	4d0f      	ldr	r5, [pc, #60]	@ (8003568 <HAL_DMA_Abort_IT+0x70>)
 800352c:	403a      	ands	r2, r7
 800352e:	4093      	lsls	r3, r2
 8003530:	686e      	ldr	r6, [r5, #4]
 8003532:	4333      	orrs	r3, r6
 8003534:	606b      	str	r3, [r5, #4]
    hdma->DMAmuxChannelStatus->CFR = hdma->DMAmuxChannelStatusMask;
 8003536:	6cc2      	ldr	r2, [r0, #76]	@ 0x4c
 8003538:	6c83      	ldr	r3, [r0, #72]	@ 0x48
 800353a:	605a      	str	r2, [r3, #4]
    if (hdma->DMAmuxRequestGen != 0U)
 800353c:	6d03      	ldr	r3, [r0, #80]	@ 0x50
 800353e:	2b00      	cmp	r3, #0
 8003540:	d005      	beq.n	800354e <HAL_DMA_Abort_IT+0x56>
      hdma->DMAmuxRequestGen->RGCR &= ~DMAMUX_RGxCR_OIE;
 8003542:	681a      	ldr	r2, [r3, #0]
 8003544:	4022      	ands	r2, r4
 8003546:	601a      	str	r2, [r3, #0]
      hdma->DMAmuxRequestGenStatus->RGCFR = hdma->DMAmuxRequestGenStatusMask;
 8003548:	6d43      	ldr	r3, [r0, #84]	@ 0x54
 800354a:	6d82      	ldr	r2, [r0, #88]	@ 0x58
 800354c:	605a      	str	r2, [r3, #4]
    hdma->State = HAL_DMA_STATE_READY;
 800354e:	2301      	movs	r3, #1
    __HAL_UNLOCK(hdma);
 8003550:	2200      	movs	r2, #0
    hdma->State = HAL_DMA_STATE_READY;
 8003552:	77cb      	strb	r3, [r1, #31]
    __HAL_UNLOCK(hdma);
 8003554:	1d43      	adds	r3, r0, #5
 8003556:	77da      	strb	r2, [r3, #31]
    if (hdma->XferAbortCallback != NULL)
 8003558:	6b83      	ldr	r3, [r0, #56]	@ 0x38
 800355a:	4293      	cmp	r3, r2
 800355c:	d000      	beq.n	8003560 <HAL_DMA_Abort_IT+0x68>
      hdma->XferAbortCallback(hdma);
 800355e:	4798      	blx	r3
  HAL_StatusTypeDef status = HAL_OK;
 8003560:	2000      	movs	r0, #0
 8003562:	e7d1      	b.n	8003508 <HAL_DMA_Abort_IT+0x10>
 8003564:	fffffeff 	.word	0xfffffeff
 8003568:	40020000 	.word	0x40020000

0800356c <HAL_FLASH_Unlock>:
  * @brief  Unlock the FLASH control register access.
  * @retval HAL Status
  */
HAL_StatusTypeDef HAL_FLASH_Unlock(void)
{
  HAL_StatusTypeDef status = HAL_OK;
 800356c:	2000      	movs	r0, #0

  if (READ_BIT(FLASH->CR, FLASH_CR_LOCK) != 0x00U)
 800356e:	4b05      	ldr	r3, [pc, #20]	@ (8003584 <HAL_FLASH_Unlock+0x18>)
 8003570:	695a      	ldr	r2, [r3, #20]
 8003572:	4282      	cmp	r2, r0
 8003574:	da05      	bge.n	8003582 <HAL_FLASH_Unlock+0x16>
  {
    /* Authorize the FLASH Registers access */
    WRITE_REG(FLASH->KEYR, FLASH_KEY1);
 8003576:	4a04      	ldr	r2, [pc, #16]	@ (8003588 <HAL_FLASH_Unlock+0x1c>)
 8003578:	609a      	str	r2, [r3, #8]
    WRITE_REG(FLASH->KEYR, FLASH_KEY2);
 800357a:	4a04      	ldr	r2, [pc, #16]	@ (800358c <HAL_FLASH_Unlock+0x20>)
 800357c:	609a      	str	r2, [r3, #8]

    /* verify Flash is unlock */
    if (READ_BIT(FLASH->CR, FLASH_CR_LOCK) != 0x00U)
 800357e:	6958      	ldr	r0, [r3, #20]
 8003580:	0fc0      	lsrs	r0, r0, #31
      status = HAL_ERROR;
    }
  }

  return status;
}
 8003582:	4770      	bx	lr
 8003584:	40022000 	.word	0x40022000
 8003588:	45670123 	.word	0x45670123
 800358c:	cdef89ab 	.word	0xcdef89ab

08003590 <FLASH_WaitForLastOperation>:
  * @brief  Wait for a FLASH operation to complete.
  * @param  Timeout maximum flash operation timeout
  * @retval HAL_StatusTypeDef HAL Status
  */
HAL_StatusTypeDef FLASH_WaitForLastOperation(uint32_t Timeout)
{
 8003590:	b5f8      	push	{r3, r4, r5, r6, r7, lr}
 8003592:	0004      	movs	r4, r0
  uint32_t error;
  uint32_t tickstart = HAL_GetTick();
 8003594:	f7ff fb5a 	bl	8002c4c <HAL_GetTick>
  error = (FLASH_SR_BSY1 | FLASH_SR_BSY2);
#else
  error = FLASH_SR_BSY1;
#endif /* FLASH_DBANK_SUPPORT */

  while ((FLASH->SR & error) != 0x00U)
 8003598:	2780      	movs	r7, #128	@ 0x80
  uint32_t tickstart = HAL_GetTick();
 800359a:	0006      	movs	r6, r0
  while ((FLASH->SR & error) != 0x00U)
 800359c:	027f      	lsls	r7, r7, #9
 800359e:	4d14      	ldr	r5, [pc, #80]	@ (80035f0 <FLASH_WaitForLastOperation+0x60>)
 80035a0:	692b      	ldr	r3, [r5, #16]
 80035a2:	423b      	tst	r3, r7
 80035a4:	d116      	bne.n	80035d4 <FLASH_WaitForLastOperation+0x44>
      }
    }
  }

  /* check flash errors */
  error = (FLASH->SR & FLASH_SR_ERRORS);
 80035a6:	692a      	ldr	r2, [r5, #16]
 80035a8:	4b12      	ldr	r3, [pc, #72]	@ (80035f4 <FLASH_WaitForLastOperation+0x64>)
 80035aa:	0011      	movs	r1, r2

  /* Clear SR register */
  FLASH->SR = FLASH_SR_CLEAR;
 80035ac:	4812      	ldr	r0, [pc, #72]	@ (80035f8 <FLASH_WaitForLastOperation+0x68>)
  error = (FLASH->SR & FLASH_SR_ERRORS);
 80035ae:	4019      	ands	r1, r3
  FLASH->SR = FLASH_SR_CLEAR;
 80035b0:	6128      	str	r0, [r5, #16]

  if (error != 0x00U)
 80035b2:	421a      	tst	r2, r3
 80035b4:	d117      	bne.n	80035e6 <FLASH_WaitForLastOperation+0x56>
    pFlash.ErrorCode = error;
    return HAL_ERROR;
  }

  /* Wait for control register to be written */
  while ((FLASH->SR & FLASH_SR_CFGBSY) != 0x00U)
 80035b6:	2780      	movs	r7, #128	@ 0x80
 80035b8:	02ff      	lsls	r7, r7, #11
 80035ba:	692b      	ldr	r3, [r5, #16]
 80035bc:	0018      	movs	r0, r3
 80035be:	4038      	ands	r0, r7
 80035c0:	423b      	tst	r3, r7
 80035c2:	d00f      	beq.n	80035e4 <FLASH_WaitForLastOperation+0x54>
  {
    if(Timeout != HAL_MAX_DELAY)
 80035c4:	1c63      	adds	r3, r4, #1
 80035c6:	d0f8      	beq.n	80035ba <FLASH_WaitForLastOperation+0x2a>
    {
      if ((HAL_GetTick() - tickstart) >= Timeout)
 80035c8:	f7ff fb40 	bl	8002c4c <HAL_GetTick>
 80035cc:	1b80      	subs	r0, r0, r6
 80035ce:	42a0      	cmp	r0, r4
 80035d0:	d3f3      	bcc.n	80035ba <FLASH_WaitForLastOperation+0x2a>
 80035d2:	e006      	b.n	80035e2 <FLASH_WaitForLastOperation+0x52>
    if(Timeout != HAL_MAX_DELAY)
 80035d4:	1c63      	adds	r3, r4, #1
 80035d6:	d0e3      	beq.n	80035a0 <FLASH_WaitForLastOperation+0x10>
      if ((HAL_GetTick() - tickstart) >= Timeout)
 80035d8:	f7ff fb38 	bl	8002c4c <HAL_GetTick>
 80035dc:	1b80      	subs	r0, r0, r6
 80035de:	42a0      	cmp	r0, r4
 80035e0:	d3dd      	bcc.n	800359e <FLASH_WaitForLastOperation+0xe>
        return HAL_TIMEOUT;
 80035e2:	2003      	movs	r0, #3
      }
    }
  }

  return HAL_OK;
}
 80035e4:	bdf8      	pop	{r3, r4, r5, r6, r7, pc}
    pFlash.ErrorCode = error;
 80035e6:	4b05      	ldr	r3, [pc, #20]	@ (80035fc <FLASH_WaitForLastOperation+0x6c>)
    return HAL_ERROR;
 80035e8:	2001      	movs	r0, #1
    pFlash.ErrorCode = error;
 80035ea:	6059      	str	r1, [r3, #4]
    return HAL_ERROR;
 80035ec:	e7fa      	b.n	80035e4 <FLASH_WaitForLastOperation+0x54>
 80035ee:	46c0      	nop			@ (mov r8, r8)
 80035f0:	40022000 	.word	0x40022000
 80035f4:	0000c3fa 	.word	0x0000c3fa
 80035f8:	0000c3fb 	.word	0x0000c3fb
 80035fc:	20000904 	.word	0x20000904

08003600 <HAL_FLASH_Program>:
{
 8003600:	b5f7      	push	{r0, r1, r2, r4, r5, r6, r7, lr}
  __HAL_LOCK(&pFlash);
 8003602:	4e17      	ldr	r6, [pc, #92]	@ (8003660 <HAL_FLASH_Program+0x60>)
{
 8003604:	9301      	str	r3, [sp, #4]
  __HAL_LOCK(&pFlash);
 8003606:	7833      	ldrb	r3, [r6, #0]
{
 8003608:	0004      	movs	r4, r0
 800360a:	000d      	movs	r5, r1
  __HAL_LOCK(&pFlash);
 800360c:	2002      	movs	r0, #2
{
 800360e:	9200      	str	r2, [sp, #0]
  __HAL_LOCK(&pFlash);
 8003610:	2b01      	cmp	r3, #1
 8003612:	d01e      	beq.n	8003652 <HAL_FLASH_Program+0x52>
 8003614:	2301      	movs	r3, #1
  status = FLASH_WaitForLastOperation(FLASH_TIMEOUT_VALUE);
 8003616:	20fa      	movs	r0, #250	@ 0xfa
  __HAL_LOCK(&pFlash);
 8003618:	7033      	strb	r3, [r6, #0]
  pFlash.ErrorCode = HAL_FLASH_ERROR_NONE;
 800361a:	2300      	movs	r3, #0
  status = FLASH_WaitForLastOperation(FLASH_TIMEOUT_VALUE);
 800361c:	0080      	lsls	r0, r0, #2
  pFlash.ErrorCode = HAL_FLASH_ERROR_NONE;
 800361e:	6073      	str	r3, [r6, #4]
  status = FLASH_WaitForLastOperation(FLASH_TIMEOUT_VALUE);
 8003620:	f7ff ffb6 	bl	8003590 <FLASH_WaitForLastOperation>
  if (status == HAL_OK)
 8003624:	2800      	cmp	r0, #0
 8003626:	d112      	bne.n	800364e <HAL_FLASH_Program+0x4e>
    if (TypeProgram == FLASH_TYPEPROGRAM_DOUBLEWORD)
 8003628:	4f0e      	ldr	r7, [pc, #56]	@ (8003664 <HAL_FLASH_Program+0x64>)
 800362a:	2c01      	cmp	r4, #1
 800362c:	d112      	bne.n	8003654 <HAL_FLASH_Program+0x54>
  * @retval None
  */
static void FLASH_Program_DoubleWord(uint32_t Address, uint64_t Data)
{
  /* Set PG bit */
  SET_BIT(FLASH->CR, FLASH_CR_PG);
 800362e:	697b      	ldr	r3, [r7, #20]
 8003630:	4323      	orrs	r3, r4
 8003632:	617b      	str	r3, [r7, #20]

  /* Program first word */
  *(uint32_t *)Address = (uint32_t)Data;
 8003634:	9b00      	ldr	r3, [sp, #0]
 8003636:	602b      	str	r3, [r5, #0]
           so that all instructions following the ISB are fetched from cache or memory,
           after the instruction has been completed.
 */
__STATIC_FORCEINLINE void __ISB(void)
{
  __ASM volatile ("isb 0xF":::"memory");
 8003638:	f3bf 8f6f 	isb	sy
  /* Barrier to ensure programming is performed in 2 steps, in right order
    (independently of compiler optimization behavior) */
  __ISB();

  /* Program second word */
  *(uint32_t *)(Address + 4U) = (uint32_t)(Data >> 32U);
 800363c:	9b01      	ldr	r3, [sp, #4]
 800363e:	606b      	str	r3, [r5, #4]
    status = FLASH_WaitForLastOperation(FLASH_TIMEOUT_VALUE);
 8003640:	20fa      	movs	r0, #250	@ 0xfa
 8003642:	0080      	lsls	r0, r0, #2
 8003644:	f7ff ffa4 	bl	8003590 <FLASH_WaitForLastOperation>
    CLEAR_BIT(FLASH->CR, TypeProgram);
 8003648:	697b      	ldr	r3, [r7, #20]
 800364a:	43a3      	bics	r3, r4
 800364c:	617b      	str	r3, [r7, #20]
  __HAL_UNLOCK(&pFlash);
 800364e:	2300      	movs	r3, #0
 8003650:	7033      	strb	r3, [r6, #0]
}
 8003652:	bdfe      	pop	{r1, r2, r3, r4, r5, r6, r7, pc}
      FLASH_Program_Fast(Address, (uint32_t)Data);
 8003654:	0028      	movs	r0, r5
 8003656:	9900      	ldr	r1, [sp, #0]
 8003658:	f002 ff8e 	bl	8006578 <__FLASH_Program_Fast_veneer>
 800365c:	e7f0      	b.n	8003640 <HAL_FLASH_Program+0x40>
 800365e:	46c0      	nop			@ (mov r8, r8)
 8003660:	20000904 	.word	0x20000904
 8003664:	40022000 	.word	0x40022000

08003668 <HAL_FLASH_Lock>:
  (void)FLASH_WaitForLastOperation(FLASH_TIMEOUT_VALUE);
 8003668:	20fa      	movs	r0, #250	@ 0xfa
{
 800366a:	b510      	push	{r4, lr}
  (void)FLASH_WaitForLastOperation(FLASH_TIMEOUT_VALUE);
 800366c:	0080      	lsls	r0, r0, #2
 800366e:	f7ff ff8f 	bl	8003590 <FLASH_WaitForLastOperation>
  SET_BIT(FLASH->CR, FLASH_CR_LOCK);
 8003672:	2280      	movs	r2, #128	@ 0x80
 8003674:	4b04      	ldr	r3, [pc, #16]	@ (8003688 <HAL_FLASH_Lock+0x20>)
 8003676:	0612      	lsls	r2, r2, #24
 8003678:	6959      	ldr	r1, [r3, #20]
 800367a:	430a      	orrs	r2, r1
 800367c:	615a      	str	r2, [r3, #20]
  if (READ_BIT(FLASH->CR, FLASH_CR_LOCK) != 0x00u)
 800367e:	6958      	ldr	r0, [r3, #20]
 8003680:	43c0      	mvns	r0, r0
  return status;
 8003682:	0fc0      	lsrs	r0, r0, #31
}
 8003684:	bd10      	pop	{r4, pc}
 8003686:	46c0      	nop			@ (mov r8, r8)
 8003688:	40022000 	.word	0x40022000

0800368c <FLASH_PageErase>:
  /* Check the parameters */
  assert_param(IS_FLASH_BANK(Banks));
  assert_param(IS_FLASH_PAGE(Page));

  /* Get configuration register, then clear page number */
  tmp = (FLASH->CR & ~FLASH_CR_PNB);
 800368c:	4a04      	ldr	r2, [pc, #16]	@ (80036a0 <FLASH_PageErase+0x14>)
 800368e:	4805      	ldr	r0, [pc, #20]	@ (80036a4 <FLASH_PageErase+0x18>)
 8003690:	6953      	ldr	r3, [r2, #20]
  /* Prevent unused argument(s) compilation warning */
  UNUSED(Banks);
#endif /* FLASH_DBANK_SUPPORT */

  /* Set page number, Page Erase bit & Start bit */
  FLASH->CR = (tmp | (FLASH_CR_STRT | (Page <<  FLASH_CR_PNB_Pos) | FLASH_CR_PER));
 8003692:	00c9      	lsls	r1, r1, #3
  tmp = (FLASH->CR & ~FLASH_CR_PNB);
 8003694:	4003      	ands	r3, r0
  FLASH->CR = (tmp | (FLASH_CR_STRT | (Page <<  FLASH_CR_PNB_Pos) | FLASH_CR_PER));
 8003696:	4319      	orrs	r1, r3
 8003698:	4b03      	ldr	r3, [pc, #12]	@ (80036a8 <FLASH_PageErase+0x1c>)
 800369a:	430b      	orrs	r3, r1
 800369c:	6153      	str	r3, [r2, #20]
}
 800369e:	4770      	bx	lr
 80036a0:	40022000 	.word	0x40022000
 80036a4:	ffffe007 	.word	0xffffe007
 80036a8:	00010002 	.word	0x00010002

080036ac <HAL_FLASHEx_Erase>:
{
 80036ac:	b5f7      	push	{r0, r1, r2, r4, r5, r6, r7, lr}
  __HAL_LOCK(&pFlash);
 80036ae:	4f21      	ldr	r7, [pc, #132]	@ (8003734 <HAL_FLASHEx_Erase+0x88>)
{
 80036b0:	0005      	movs	r5, r0
  __HAL_LOCK(&pFlash);
 80036b2:	783b      	ldrb	r3, [r7, #0]
 80036b4:	2402      	movs	r4, #2
{
 80036b6:	9101      	str	r1, [sp, #4]
  __HAL_LOCK(&pFlash);
 80036b8:	2b01      	cmp	r3, #1
 80036ba:	d01a      	beq.n	80036f2 <HAL_FLASHEx_Erase+0x46>
 80036bc:	2301      	movs	r3, #1
  status = FLASH_WaitForLastOperation(FLASH_TIMEOUT_VALUE);
 80036be:	20fa      	movs	r0, #250	@ 0xfa
  __HAL_LOCK(&pFlash);
 80036c0:	703b      	strb	r3, [r7, #0]
  pFlash.ErrorCode = HAL_FLASH_ERROR_NONE;
 80036c2:	2300      	movs	r3, #0
  status = FLASH_WaitForLastOperation(FLASH_TIMEOUT_VALUE);
 80036c4:	0080      	lsls	r0, r0, #2
  pFlash.ErrorCode = HAL_FLASH_ERROR_NONE;
 80036c6:	607b      	str	r3, [r7, #4]
  status = FLASH_WaitForLastOperation(FLASH_TIMEOUT_VALUE);
 80036c8:	f7ff ff62 	bl	8003590 <FLASH_WaitForLastOperation>
 80036cc:	1e04      	subs	r4, r0, #0
  if (status == HAL_OK)
 80036ce:	d10e      	bne.n	80036ee <HAL_FLASHEx_Erase+0x42>
    pEraseInit->Banks = FLASH_BANK_1;
 80036d0:	2304      	movs	r3, #4
 80036d2:	606b      	str	r3, [r5, #4]
    if (pEraseInit->TypeErase == FLASH_TYPEERASE_MASS)
 80036d4:	682b      	ldr	r3, [r5, #0]
 80036d6:	2b04      	cmp	r3, #4
 80036d8:	d10d      	bne.n	80036f6 <HAL_FLASHEx_Erase+0x4a>
      status = FLASH_WaitForLastOperation(FLASH_TIMEOUT_VALUE);
 80036da:	20fa      	movs	r0, #250	@ 0xfa
  FLASH->CR |= (FLASH_CR_STRT | Banks);
 80036dc:	4a16      	ldr	r2, [pc, #88]	@ (8003738 <HAL_FLASHEx_Erase+0x8c>)
 80036de:	4b17      	ldr	r3, [pc, #92]	@ (800373c <HAL_FLASHEx_Erase+0x90>)
 80036e0:	6951      	ldr	r1, [r2, #20]
      status = FLASH_WaitForLastOperation(FLASH_TIMEOUT_VALUE);
 80036e2:	0080      	lsls	r0, r0, #2
  FLASH->CR |= (FLASH_CR_STRT | Banks);
 80036e4:	430b      	orrs	r3, r1
 80036e6:	6153      	str	r3, [r2, #20]
      status = FLASH_WaitForLastOperation(FLASH_TIMEOUT_VALUE);
 80036e8:	f7ff ff52 	bl	8003590 <FLASH_WaitForLastOperation>
 80036ec:	0004      	movs	r4, r0
  __HAL_UNLOCK(&pFlash);
 80036ee:	2300      	movs	r3, #0
 80036f0:	703b      	strb	r3, [r7, #0]
}
 80036f2:	0020      	movs	r0, r4
 80036f4:	bdfe      	pop	{r1, r2, r3, r4, r5, r6, r7, pc}
      *PageError = 0xFFFFFFFFU;
 80036f6:	2301      	movs	r3, #1
 80036f8:	9a01      	ldr	r2, [sp, #4]
 80036fa:	425b      	negs	r3, r3
 80036fc:	6013      	str	r3, [r2, #0]
      for (index = pEraseInit->Page; index < (pEraseInit->Page + pEraseInit->NbPages); index++)
 80036fe:	68ae      	ldr	r6, [r5, #8]
 8003700:	68ab      	ldr	r3, [r5, #8]
 8003702:	68ea      	ldr	r2, [r5, #12]
 8003704:	189b      	adds	r3, r3, r2
 8003706:	42b3      	cmp	r3, r6
 8003708:	d90c      	bls.n	8003724 <HAL_FLASHEx_Erase+0x78>
        FLASH_PageErase(pEraseInit->Banks, index);
 800370a:	6868      	ldr	r0, [r5, #4]
 800370c:	0031      	movs	r1, r6
 800370e:	f7ff ffbd 	bl	800368c <FLASH_PageErase>
        status = FLASH_WaitForLastOperation(FLASH_TIMEOUT_VALUE);
 8003712:	20fa      	movs	r0, #250	@ 0xfa
 8003714:	0080      	lsls	r0, r0, #2
 8003716:	f7ff ff3b 	bl	8003590 <FLASH_WaitForLastOperation>
        if (status != HAL_OK)
 800371a:	2800      	cmp	r0, #0
 800371c:	d008      	beq.n	8003730 <HAL_FLASHEx_Erase+0x84>
        status = FLASH_WaitForLastOperation(FLASH_TIMEOUT_VALUE);
 800371e:	0004      	movs	r4, r0
          *PageError = index;
 8003720:	9b01      	ldr	r3, [sp, #4]
 8003722:	601e      	str	r6, [r3, #0]
      CLEAR_BIT(FLASH->CR, FLASH_CR_PER);
 8003724:	2102      	movs	r1, #2
 8003726:	4a04      	ldr	r2, [pc, #16]	@ (8003738 <HAL_FLASHEx_Erase+0x8c>)
 8003728:	6953      	ldr	r3, [r2, #20]
 800372a:	438b      	bics	r3, r1
 800372c:	6153      	str	r3, [r2, #20]
 800372e:	e7de      	b.n	80036ee <HAL_FLASHEx_Erase+0x42>
      for (index = pEraseInit->Page; index < (pEraseInit->Page + pEraseInit->NbPages); index++)
 8003730:	3601      	adds	r6, #1
 8003732:	e7e5      	b.n	8003700 <HAL_FLASHEx_Erase+0x54>
 8003734:	20000904 	.word	0x20000904
 8003738:	40022000 	.word	0x40022000
 800373c:	00010004 	.word	0x00010004

08003740 <HAL_GPIO_Init>:
  *         the configuration information for the specified GPIO peripheral.
  * @retval None
  */
void HAL_GPIO_Init(GPIO_TypeDef  *GPIOx, GPIO_InitTypeDef *GPIO_Init)
{
  uint32_t position = 0x00u;
 8003740:	2300      	movs	r3, #0
{
 8003742:	b5f0      	push	{r4, r5, r6, r7, lr}
 8003744:	b085      	sub	sp, #20
  assert_param(IS_GPIO_ALL_INSTANCE(GPIOx));
  assert_param(IS_GPIO_PIN(GPIO_Init->Pin));
  assert_param(IS_GPIO_MODE(GPIO_Init->Mode));

  /* Configure the port pins */
  while (((GPIO_Init->Pin) >> position) != 0x00u)
 8003746:	680a      	ldr	r2, [r1, #0]
 8003748:	0014      	movs	r4, r2
 800374a:	40dc      	lsrs	r4, r3
 800374c:	d101      	bne.n	8003752 <HAL_GPIO_Init+0x12>
      }
    }

    position++;
  }
}
 800374e:	b005      	add	sp, #20
 8003750:	bdf0      	pop	{r4, r5, r6, r7, pc}
    iocurrent = (GPIO_Init->Pin) & (1uL << position);
 8003752:	2501      	movs	r5, #1
 8003754:	0014      	movs	r4, r2
 8003756:	409d      	lsls	r5, r3
 8003758:	402c      	ands	r4, r5
 800375a:	9400      	str	r4, [sp, #0]
    if (iocurrent != 0x00u)
 800375c:	422a      	tst	r2, r5
 800375e:	d100      	bne.n	8003762 <HAL_GPIO_Init+0x22>
 8003760:	e091      	b.n	8003886 <HAL_GPIO_Init+0x146>
      if (((GPIO_Init->Mode & GPIO_MODE) == MODE_OUTPUT) || ((GPIO_Init->Mode & GPIO_MODE) == MODE_AF))
 8003762:	684a      	ldr	r2, [r1, #4]
 8003764:	005f      	lsls	r7, r3, #1
 8003766:	4694      	mov	ip, r2
 8003768:	2203      	movs	r2, #3
 800376a:	4664      	mov	r4, ip
 800376c:	4022      	ands	r2, r4
        temp &= ~(GPIO_OSPEEDR_OSPEED0 << (position * 2u));
 800376e:	2403      	movs	r4, #3
 8003770:	40bc      	lsls	r4, r7
 8003772:	43e4      	mvns	r4, r4
 8003774:	9401      	str	r4, [sp, #4]
      if (((GPIO_Init->Mode & GPIO_MODE) == MODE_OUTPUT) || ((GPIO_Init->Mode & GPIO_MODE) == MODE_AF))
 8003776:	1e54      	subs	r4, r2, #1
 8003778:	2c01      	cmp	r4, #1
 800377a:	d82e      	bhi.n	80037da <HAL_GPIO_Init+0x9a>
        temp = GPIOx->OSPEEDR;
 800377c:	6886      	ldr	r6, [r0, #8]
        temp &= ~(GPIO_OSPEEDR_OSPEED0 << (position * 2u));
 800377e:	9c01      	ldr	r4, [sp, #4]
 8003780:	4026      	ands	r6, r4
        temp |= (GPIO_Init->Speed << (position * 2u));
 8003782:	68cc      	ldr	r4, [r1, #12]
 8003784:	40bc      	lsls	r4, r7
 8003786:	4334      	orrs	r4, r6
        GPIOx->OSPEEDR = temp;
 8003788:	6084      	str	r4, [r0, #8]
        temp = GPIOx->OTYPER;
 800378a:	6844      	ldr	r4, [r0, #4]
        temp |= (((GPIO_Init->Mode & OUTPUT_TYPE) >> OUTPUT_TYPE_Pos) << position);
 800378c:	2601      	movs	r6, #1
        temp &= ~(GPIO_OTYPER_OT0 << position) ;
 800378e:	43ac      	bics	r4, r5
 8003790:	0025      	movs	r5, r4
        temp |= (((GPIO_Init->Mode & OUTPUT_TYPE) >> OUTPUT_TYPE_Pos) << position);
 8003792:	4664      	mov	r4, ip
 8003794:	0924      	lsrs	r4, r4, #4
 8003796:	4034      	ands	r4, r6
 8003798:	409c      	lsls	r4, r3
 800379a:	432c      	orrs	r4, r5
        GPIOx->OTYPER = temp;
 800379c:	6044      	str	r4, [r0, #4]
        temp = GPIOx->PUPDR;
 800379e:	68c5      	ldr	r5, [r0, #12]
        temp &= ~(GPIO_PUPDR_PUPD0 << (position * 2u));
 80037a0:	9c01      	ldr	r4, [sp, #4]
 80037a2:	4025      	ands	r5, r4
        temp |= ((GPIO_Init->Pull) << (position * 2u));
 80037a4:	688c      	ldr	r4, [r1, #8]
 80037a6:	40bc      	lsls	r4, r7
 80037a8:	432c      	orrs	r4, r5
        GPIOx->PUPDR = temp;
 80037aa:	60c4      	str	r4, [r0, #12]
      if ((GPIO_Init->Mode & GPIO_MODE) == MODE_AF)
 80037ac:	2a02      	cmp	r2, #2
 80037ae:	d116      	bne.n	80037de <HAL_GPIO_Init+0x9e>
        temp &= ~(0xFu << ((position & 0x07u) * 4u));
 80037b0:	2507      	movs	r5, #7
 80037b2:	260f      	movs	r6, #15
 80037b4:	401d      	ands	r5, r3
 80037b6:	00ad      	lsls	r5, r5, #2
 80037b8:	40ae      	lsls	r6, r5
        temp = GPIOx->AFR[position >> 3u];
 80037ba:	08dc      	lsrs	r4, r3, #3
 80037bc:	00a4      	lsls	r4, r4, #2
 80037be:	1904      	adds	r4, r0, r4
 80037c0:	9402      	str	r4, [sp, #8]
 80037c2:	6a24      	ldr	r4, [r4, #32]
        temp &= ~(0xFu << ((position & 0x07u) * 4u));
 80037c4:	9603      	str	r6, [sp, #12]
 80037c6:	0026      	movs	r6, r4
 80037c8:	9c03      	ldr	r4, [sp, #12]
 80037ca:	43a6      	bics	r6, r4
 80037cc:	0034      	movs	r4, r6
        temp |= ((GPIO_Init->Alternate) << ((position & 0x07u) * 4u));
 80037ce:	690e      	ldr	r6, [r1, #16]
 80037d0:	40ae      	lsls	r6, r5
 80037d2:	4326      	orrs	r6, r4
        GPIOx->AFR[position >> 3u] = temp;
 80037d4:	9c02      	ldr	r4, [sp, #8]
 80037d6:	6226      	str	r6, [r4, #32]
 80037d8:	e001      	b.n	80037de <HAL_GPIO_Init+0x9e>
      if ((GPIO_Init->Mode & GPIO_MODE) != MODE_ANALOG)
 80037da:	2a03      	cmp	r2, #3
 80037dc:	d1df      	bne.n	800379e <HAL_GPIO_Init+0x5e>
      temp |= ((GPIO_Init->Mode & GPIO_MODE) << (position * 2u));
 80037de:	40ba      	lsls	r2, r7
      temp = GPIOx->MODER;
 80037e0:	6804      	ldr	r4, [r0, #0]
      temp &= ~(GPIO_MODER_MODE0 << (position * 2u));
 80037e2:	9d01      	ldr	r5, [sp, #4]
 80037e4:	4025      	ands	r5, r4
      temp |= ((GPIO_Init->Mode & GPIO_MODE) << (position * 2u));
 80037e6:	432a      	orrs	r2, r5
      if ((GPIO_Init->Mode & EXTI_MODE) != 0x00u)
 80037e8:	24c0      	movs	r4, #192	@ 0xc0
      GPIOx->MODER = temp;
 80037ea:	6002      	str	r2, [r0, #0]
      if ((GPIO_Init->Mode & EXTI_MODE) != 0x00u)
 80037ec:	4662      	mov	r2, ip
 80037ee:	02a4      	lsls	r4, r4, #10
 80037f0:	4222      	tst	r2, r4
 80037f2:	d048      	beq.n	8003886 <HAL_GPIO_Init+0x146>
        temp = EXTI->EXTICR[position >> 2u];
 80037f4:	4a25      	ldr	r2, [pc, #148]	@ (800388c <HAL_GPIO_Init+0x14c>)
        temp &= ~(0x0FuL << (8u * (position & 0x03u)));
 80037f6:	2503      	movs	r5, #3
        temp = EXTI->EXTICR[position >> 2u];
 80037f8:	089c      	lsrs	r4, r3, #2
 80037fa:	00a4      	lsls	r4, r4, #2
 80037fc:	18a4      	adds	r4, r4, r2
        temp &= ~(0x0FuL << (8u * (position & 0x03u)));
 80037fe:	220f      	movs	r2, #15
 8003800:	401d      	ands	r5, r3
 8003802:	00ed      	lsls	r5, r5, #3
 8003804:	40aa      	lsls	r2, r5
        temp |= (GPIO_GET_INDEX(GPIOx) << (8u * (position & 0x03u)));
 8003806:	27a0      	movs	r7, #160	@ 0xa0
        temp = EXTI->EXTICR[position >> 2u];
 8003808:	6e26      	ldr	r6, [r4, #96]	@ 0x60
        temp |= (GPIO_GET_INDEX(GPIOx) << (8u * (position & 0x03u)));
 800380a:	05ff      	lsls	r7, r7, #23
        temp &= ~(0x0FuL << (8u * (position & 0x03u)));
 800380c:	4396      	bics	r6, r2
        temp |= (GPIO_GET_INDEX(GPIOx) << (8u * (position & 0x03u)));
 800380e:	2200      	movs	r2, #0
 8003810:	42b8      	cmp	r0, r7
 8003812:	d00c      	beq.n	800382e <HAL_GPIO_Init+0xee>
 8003814:	4f1e      	ldr	r7, [pc, #120]	@ (8003890 <HAL_GPIO_Init+0x150>)
 8003816:	3201      	adds	r2, #1
 8003818:	42b8      	cmp	r0, r7
 800381a:	d008      	beq.n	800382e <HAL_GPIO_Init+0xee>
 800381c:	4f1d      	ldr	r7, [pc, #116]	@ (8003894 <HAL_GPIO_Init+0x154>)
 800381e:	3201      	adds	r2, #1
 8003820:	42b8      	cmp	r0, r7
 8003822:	d004      	beq.n	800382e <HAL_GPIO_Init+0xee>
 8003824:	4f1c      	ldr	r7, [pc, #112]	@ (8003898 <HAL_GPIO_Init+0x158>)
 8003826:	3203      	adds	r2, #3
 8003828:	42b8      	cmp	r0, r7
 800382a:	d100      	bne.n	800382e <HAL_GPIO_Init+0xee>
 800382c:	3a02      	subs	r2, #2
 800382e:	40aa      	lsls	r2, r5
        if ((GPIO_Init->Mode & TRIGGER_RISING) != 0x00u)
 8003830:	4667      	mov	r7, ip
        temp |= (GPIO_GET_INDEX(GPIOx) << (8u * (position & 0x03u)));
 8003832:	4332      	orrs	r2, r6
        EXTI->EXTICR[position >> 2u] = temp;
 8003834:	6622      	str	r2, [r4, #96]	@ 0x60
        temp = EXTI->RTSR1;
 8003836:	4c15      	ldr	r4, [pc, #84]	@ (800388c <HAL_GPIO_Init+0x14c>)
        temp &= ~(iocurrent);
 8003838:	9a00      	ldr	r2, [sp, #0]
        temp = EXTI->RTSR1;
 800383a:	6826      	ldr	r6, [r4, #0]
          temp |= iocurrent;
 800383c:	9d00      	ldr	r5, [sp, #0]
        temp &= ~(iocurrent);
 800383e:	43d2      	mvns	r2, r2
          temp |= iocurrent;
 8003840:	4335      	orrs	r5, r6
        if ((GPIO_Init->Mode & TRIGGER_RISING) != 0x00u)
 8003842:	02ff      	lsls	r7, r7, #11
 8003844:	d401      	bmi.n	800384a <HAL_GPIO_Init+0x10a>
        temp &= ~(iocurrent);
 8003846:	0035      	movs	r5, r6
 8003848:	4015      	ands	r5, r2
        if ((GPIO_Init->Mode & TRIGGER_FALLING) != 0x00u)
 800384a:	4667      	mov	r7, ip
        EXTI->RTSR1 = temp;
 800384c:	6025      	str	r5, [r4, #0]
        temp = EXTI->FTSR1;
 800384e:	6866      	ldr	r6, [r4, #4]
          temp |= iocurrent;
 8003850:	9d00      	ldr	r5, [sp, #0]
 8003852:	4335      	orrs	r5, r6
        if ((GPIO_Init->Mode & TRIGGER_FALLING) != 0x00u)
 8003854:	02bf      	lsls	r7, r7, #10
 8003856:	d401      	bmi.n	800385c <HAL_GPIO_Init+0x11c>
        temp &= ~(iocurrent);
 8003858:	0035      	movs	r5, r6
 800385a:	4015      	ands	r5, r2
        if ((GPIO_Init->Mode & EXTI_EVT) != 0x00u)
 800385c:	4667      	mov	r7, ip
        EXTI->FTSR1 = temp;
 800385e:	6065      	str	r5, [r4, #4]
        temp = EXTI->EMR1;
 8003860:	4c0e      	ldr	r4, [pc, #56]	@ (800389c <HAL_GPIO_Init+0x15c>)
          temp |= iocurrent;
 8003862:	9d00      	ldr	r5, [sp, #0]
        temp = EXTI->EMR1;
 8003864:	6fe6      	ldr	r6, [r4, #124]	@ 0x7c
          temp |= iocurrent;
 8003866:	4335      	orrs	r5, r6
        if ((GPIO_Init->Mode & EXTI_EVT) != 0x00u)
 8003868:	03bf      	lsls	r7, r7, #14
 800386a:	d401      	bmi.n	8003870 <HAL_GPIO_Init+0x130>
        temp &= ~(iocurrent);
 800386c:	0035      	movs	r5, r6
 800386e:	4015      	ands	r5, r2
        if ((GPIO_Init->Mode & EXTI_IT) != 0x00u)
 8003870:	4667      	mov	r7, ip
        EXTI->EMR1 = temp;
 8003872:	67e5      	str	r5, [r4, #124]	@ 0x7c
        temp = EXTI->IMR1;
 8003874:	4c0a      	ldr	r4, [pc, #40]	@ (80038a0 <HAL_GPIO_Init+0x160>)
          temp |= iocurrent;
 8003876:	9e00      	ldr	r6, [sp, #0]
        temp = EXTI->IMR1;
 8003878:	6fe5      	ldr	r5, [r4, #124]	@ 0x7c
          temp |= iocurrent;
 800387a:	432e      	orrs	r6, r5
        if ((GPIO_Init->Mode & EXTI_IT) != 0x00u)
 800387c:	03ff      	lsls	r7, r7, #15
 800387e:	d401      	bmi.n	8003884 <HAL_GPIO_Init+0x144>
        temp &= ~(iocurrent);
 8003880:	4015      	ands	r5, r2
 8003882:	002e      	movs	r6, r5
        EXTI->IMR1 = temp;
 8003884:	67e6      	str	r6, [r4, #124]	@ 0x7c
    position++;
 8003886:	3301      	adds	r3, #1
 8003888:	e75d      	b.n	8003746 <HAL_GPIO_Init+0x6>
 800388a:	46c0      	nop			@ (mov r8, r8)
 800388c:	40021800 	.word	0x40021800
 8003890:	50000400 	.word	0x50000400
 8003894:	50000800 	.word	0x50000800
 8003898:	50000c00 	.word	0x50000c00
 800389c:	40021808 	.word	0x40021808
 80038a0:	40021804 	.word	0x40021804

080038a4 <HAL_GPIO_ReadPin>:
  GPIO_PinState bitstatus;

  /* Check the parameters */
  assert_param(IS_GPIO_PIN(GPIO_Pin));

  if ((GPIOx->IDR & GPIO_Pin) != 0x00u)
 80038a4:	6900      	ldr	r0, [r0, #16]
 80038a6:	4008      	ands	r0, r1
 80038a8:	1e43      	subs	r3, r0, #1
 80038aa:	4198      	sbcs	r0, r3
  }
  else
  {
    bitstatus = GPIO_PIN_RESET;
  }
  return bitstatus;
 80038ac:	b2c0      	uxtb	r0, r0
}
 80038ae:	4770      	bx	lr

080038b0 <HAL_GPIO_WritePin>:
{
  /* Check the parameters */
  assert_param(IS_GPIO_PIN(GPIO_Pin));
  assert_param(IS_GPIO_PIN_ACTION(PinState));

  if (PinState != GPIO_PIN_RESET)
 80038b0:	2a00      	cmp	r2, #0
 80038b2:	d001      	beq.n	80038b8 <HAL_GPIO_WritePin+0x8>
  {
    GPIOx->BSRR = (uint32_t)GPIO_Pin;
 80038b4:	6181      	str	r1, [r0, #24]
  }
  else
  {
    GPIOx->BRR = (uint32_t)GPIO_Pin;
  }
}
 80038b6:	4770      	bx	lr
    GPIOx->BRR = (uint32_t)GPIO_Pin;
 80038b8:	6281      	str	r1, [r0, #40]	@ 0x28
}
 80038ba:	e7fc      	b.n	80038b6 <HAL_GPIO_WritePin+0x6>

080038bc <HAL_I2C_Init>:
  * @param  hi2c Pointer to a I2C_HandleTypeDef structure that contains
  *                the configuration information for the specified I2C.
  * @retval HAL status
  */
HAL_StatusTypeDef HAL_I2C_Init(I2C_HandleTypeDef *hi2c)
{
 80038bc:	b570      	push	{r4, r5, r6, lr}
 80038be:	0004      	movs	r4, r0
  /* Check the I2C handle allocation */
  if (hi2c == NULL)
  {
    return HAL_ERROR;
 80038c0:	2001      	movs	r0, #1
  if (hi2c == NULL)
 80038c2:	2c00      	cmp	r4, #0
 80038c4:	d04e      	beq.n	8003964 <HAL_I2C_Init+0xa8>
  assert_param(IS_I2C_OWN_ADDRESS2(hi2c->Init.OwnAddress2));
  assert_param(IS_I2C_OWN_ADDRESS2_MASK(hi2c->Init.OwnAddress2Masks));
  assert_param(IS_I2C_GENERAL_CALL(hi2c->Init.GeneralCallMode));
  assert_param(IS_I2C_NO_STRETCH(hi2c->Init.NoStretchMode));

  if (hi2c->State == HAL_I2C_STATE_RESET)
 80038c6:	0025      	movs	r5, r4
 80038c8:	3541      	adds	r5, #65	@ 0x41
 80038ca:	782b      	ldrb	r3, [r5, #0]
 80038cc:	b2da      	uxtb	r2, r3
 80038ce:	2b00      	cmp	r3, #0
 80038d0:	d105      	bne.n	80038de <HAL_I2C_Init+0x22>
  {
    /* Allocate lock resource and initialize it */
    hi2c->Lock = HAL_UNLOCKED;
 80038d2:	0023      	movs	r3, r4
 80038d4:	3340      	adds	r3, #64	@ 0x40

    /* Init the low level hardware : GPIO, CLOCK, CORTEX...etc */
    hi2c->MspInitCallback(hi2c);
#else
    /* Init the low level hardware : GPIO, CLOCK, CORTEX...etc */
    HAL_I2C_MspInit(hi2c);
 80038d6:	0020      	movs	r0, r4
    hi2c->Lock = HAL_UNLOCKED;
 80038d8:	701a      	strb	r2, [r3, #0]
    HAL_I2C_MspInit(hi2c);
 80038da:	f7fe ff4b 	bl	8002774 <HAL_I2C_MspInit>
#endif /* USE_HAL_I2C_REGISTER_CALLBACKS */
  }

  hi2c->State = HAL_I2C_STATE_BUSY;
 80038de:	2324      	movs	r3, #36	@ 0x24

  /* Disable the selected I2C peripheral */
  __HAL_I2C_DISABLE(hi2c);
 80038e0:	2101      	movs	r1, #1
  hi2c->State = HAL_I2C_STATE_BUSY;
 80038e2:	702b      	strb	r3, [r5, #0]
  __HAL_I2C_DISABLE(hi2c);
 80038e4:	6823      	ldr	r3, [r4, #0]
  /*---------------------------- I2Cx OAR1 Configuration ---------------------*/
  /* Disable Own Address1 before set the Own Address1 configuration */
  hi2c->Instance->OAR1 &= ~I2C_OAR1_OA1EN;

  /* Configure I2Cx: Own Address1 and ack own address1 mode */
  if (hi2c->Init.AddressingMode == I2C_ADDRESSINGMODE_7BIT)
 80038e6:	68e0      	ldr	r0, [r4, #12]
  __HAL_I2C_DISABLE(hi2c);
 80038e8:	681a      	ldr	r2, [r3, #0]
  {
    hi2c->Instance->OAR1 = (I2C_OAR1_OA1EN | hi2c->Init.OwnAddress1);
 80038ea:	68a6      	ldr	r6, [r4, #8]
  __HAL_I2C_DISABLE(hi2c);
 80038ec:	438a      	bics	r2, r1
 80038ee:	601a      	str	r2, [r3, #0]
  hi2c->Instance->TIMINGR = hi2c->Init.Timing & TIMING_CLEAR_MASK;
 80038f0:	491d      	ldr	r1, [pc, #116]	@ (8003968 <HAL_I2C_Init+0xac>)
 80038f2:	6862      	ldr	r2, [r4, #4]
 80038f4:	400a      	ands	r2, r1
 80038f6:	611a      	str	r2, [r3, #16]
  hi2c->Instance->OAR1 &= ~I2C_OAR1_OA1EN;
 80038f8:	689a      	ldr	r2, [r3, #8]
 80038fa:	491c      	ldr	r1, [pc, #112]	@ (800396c <HAL_I2C_Init+0xb0>)
 80038fc:	400a      	ands	r2, r1
 80038fe:	609a      	str	r2, [r3, #8]
  if (hi2c->Init.AddressingMode == I2C_ADDRESSINGMODE_7BIT)
 8003900:	2801      	cmp	r0, #1
 8003902:	d107      	bne.n	8003914 <HAL_I2C_Init+0x58>
    hi2c->Instance->OAR1 = (I2C_OAR1_OA1EN | hi2c->Init.OwnAddress1);
 8003904:	2280      	movs	r2, #128	@ 0x80
 8003906:	0212      	lsls	r2, r2, #8
 8003908:	4332      	orrs	r2, r6
 800390a:	609a      	str	r2, [r3, #8]
    SET_BIT(hi2c->Instance->CR2, I2C_CR2_ADD10);
  }
  else
  {
    /* Clear the I2C ADD10 bit */
    CLEAR_BIT(hi2c->Instance->CR2, I2C_CR2_ADD10);
 800390c:	685a      	ldr	r2, [r3, #4]
 800390e:	4818      	ldr	r0, [pc, #96]	@ (8003970 <HAL_I2C_Init+0xb4>)
 8003910:	4002      	ands	r2, r0
 8003912:	e009      	b.n	8003928 <HAL_I2C_Init+0x6c>
    hi2c->Instance->OAR1 = (I2C_OAR1_OA1EN | I2C_OAR1_OA1MODE | hi2c->Init.OwnAddress1);
 8003914:	2284      	movs	r2, #132	@ 0x84
 8003916:	0212      	lsls	r2, r2, #8
 8003918:	4332      	orrs	r2, r6
 800391a:	609a      	str	r2, [r3, #8]
  if (hi2c->Init.AddressingMode == I2C_ADDRESSINGMODE_10BIT)
 800391c:	2802      	cmp	r0, #2
 800391e:	d1f5      	bne.n	800390c <HAL_I2C_Init+0x50>
    SET_BIT(hi2c->Instance->CR2, I2C_CR2_ADD10);
 8003920:	2280      	movs	r2, #128	@ 0x80
 8003922:	6858      	ldr	r0, [r3, #4]
 8003924:	0112      	lsls	r2, r2, #4
 8003926:	4302      	orrs	r2, r0
    CLEAR_BIT(hi2c->Instance->CR2, I2C_CR2_ADD10);
 8003928:	605a      	str	r2, [r3, #4]
  }
  /* Enable the AUTOEND by default, and enable NACK (should be disable only during Slave process */
  hi2c->Instance->CR2 |= (I2C_CR2_AUTOEND | I2C_CR2_NACK);
 800392a:	6858      	ldr	r0, [r3, #4]
 800392c:	4a11      	ldr	r2, [pc, #68]	@ (8003974 <HAL_I2C_Init+0xb8>)
 800392e:	4302      	orrs	r2, r0
 8003930:	605a      	str	r2, [r3, #4]

  /*---------------------------- I2Cx OAR2 Configuration ---------------------*/
  /* Disable Own Address2 before set the Own Address2 configuration */
  hi2c->Instance->OAR2 &= ~I2C_DUALADDRESS_ENABLE;
 8003932:	68da      	ldr	r2, [r3, #12]
  hi2c->Instance->CR1 = (hi2c->Init.GeneralCallMode | hi2c->Init.NoStretchMode);

  /* Enable the selected I2C peripheral */
  __HAL_I2C_ENABLE(hi2c);

  hi2c->ErrorCode = HAL_I2C_ERROR_NONE;
 8003934:	2000      	movs	r0, #0
  hi2c->Instance->OAR2 &= ~I2C_DUALADDRESS_ENABLE;
 8003936:	400a      	ands	r2, r1
 8003938:	60da      	str	r2, [r3, #12]
  hi2c->Instance->OAR2 = (hi2c->Init.DualAddressMode | hi2c->Init.OwnAddress2 | \
 800393a:	6961      	ldr	r1, [r4, #20]
 800393c:	6922      	ldr	r2, [r4, #16]
 800393e:	430a      	orrs	r2, r1
                          (hi2c->Init.OwnAddress2Masks << 8));
 8003940:	69a1      	ldr	r1, [r4, #24]
 8003942:	0209      	lsls	r1, r1, #8
  hi2c->Instance->OAR2 = (hi2c->Init.DualAddressMode | hi2c->Init.OwnAddress2 | \
 8003944:	430a      	orrs	r2, r1
 8003946:	60da      	str	r2, [r3, #12]
  hi2c->Instance->CR1 = (hi2c->Init.GeneralCallMode | hi2c->Init.NoStretchMode);
 8003948:	6a21      	ldr	r1, [r4, #32]
 800394a:	69e2      	ldr	r2, [r4, #28]
 800394c:	430a      	orrs	r2, r1
 800394e:	601a      	str	r2, [r3, #0]
  __HAL_I2C_ENABLE(hi2c);
 8003950:	2201      	movs	r2, #1
 8003952:	6819      	ldr	r1, [r3, #0]
 8003954:	430a      	orrs	r2, r1
 8003956:	601a      	str	r2, [r3, #0]
  hi2c->State = HAL_I2C_STATE_READY;
 8003958:	2320      	movs	r3, #32
  hi2c->ErrorCode = HAL_I2C_ERROR_NONE;
 800395a:	6460      	str	r0, [r4, #68]	@ 0x44
  hi2c->State = HAL_I2C_STATE_READY;
 800395c:	702b      	strb	r3, [r5, #0]
  hi2c->PreviousState = I2C_STATE_NONE;
 800395e:	6320      	str	r0, [r4, #48]	@ 0x30
  hi2c->Mode = HAL_I2C_MODE_NONE;
 8003960:	3442      	adds	r4, #66	@ 0x42
 8003962:	7020      	strb	r0, [r4, #0]

  return HAL_OK;
}
 8003964:	bd70      	pop	{r4, r5, r6, pc}
 8003966:	46c0      	nop			@ (mov r8, r8)
 8003968:	f0ffffff 	.word	0xf0ffffff
 800396c:	ffff7fff 	.word	0xffff7fff
 8003970:	fffff7ff 	.word	0xfffff7ff
 8003974:	02008000 	.word	0x02008000

08003978 <HAL_I2CEx_ConfigAnalogFilter>:
  *                the configuration information for the specified I2Cx peripheral.
  * @param  AnalogFilter New state of the Analog filter.
  * @retval HAL status
  */
HAL_StatusTypeDef HAL_I2CEx_ConfigAnalogFilter(I2C_HandleTypeDef *hi2c, uint32_t AnalogFilter)
{
 8003978:	b5f0      	push	{r4, r5, r6, r7, lr}
  /* Check the parameters */
  assert_param(IS_I2C_ALL_INSTANCE(hi2c->Instance));
  assert_param(IS_I2C_ANALOG_FILTER(AnalogFilter));

  if (hi2c->State == HAL_I2C_STATE_READY)
 800397a:	0004      	movs	r4, r0
 800397c:	3441      	adds	r4, #65	@ 0x41
 800397e:	7822      	ldrb	r2, [r4, #0]
{
 8003980:	0003      	movs	r3, r0
 8003982:	000f      	movs	r7, r1
  {
    /* Process Locked */
    __HAL_LOCK(hi2c);
 8003984:	2002      	movs	r0, #2
  if (hi2c->State == HAL_I2C_STATE_READY)
 8003986:	b2d6      	uxtb	r6, r2
 8003988:	2a20      	cmp	r2, #32
 800398a:	d118      	bne.n	80039be <HAL_I2CEx_ConfigAnalogFilter+0x46>
    __HAL_LOCK(hi2c);
 800398c:	001d      	movs	r5, r3
 800398e:	3540      	adds	r5, #64	@ 0x40
 8003990:	782a      	ldrb	r2, [r5, #0]
 8003992:	2a01      	cmp	r2, #1
 8003994:	d013      	beq.n	80039be <HAL_I2CEx_ConfigAnalogFilter+0x46>

    hi2c->State = HAL_I2C_STATE_BUSY;
 8003996:	2224      	movs	r2, #36	@ 0x24
 8003998:	7022      	strb	r2, [r4, #0]

    /* Disable the selected I2C peripheral */
    __HAL_I2C_DISABLE(hi2c);
 800399a:	681b      	ldr	r3, [r3, #0]
 800399c:	3a23      	subs	r2, #35	@ 0x23
 800399e:	6819      	ldr	r1, [r3, #0]

    /* Reset I2Cx ANOFF bit */
    hi2c->Instance->CR1 &= ~(I2C_CR1_ANFOFF);
 80039a0:	4807      	ldr	r0, [pc, #28]	@ (80039c0 <HAL_I2CEx_ConfigAnalogFilter+0x48>)
    __HAL_I2C_DISABLE(hi2c);
 80039a2:	4391      	bics	r1, r2
 80039a4:	6019      	str	r1, [r3, #0]
    hi2c->Instance->CR1 &= ~(I2C_CR1_ANFOFF);
 80039a6:	6819      	ldr	r1, [r3, #0]
 80039a8:	4001      	ands	r1, r0
    __HAL_I2C_ENABLE(hi2c);

    hi2c->State = HAL_I2C_STATE_READY;

    /* Process Unlocked */
    __HAL_UNLOCK(hi2c);
 80039aa:	2000      	movs	r0, #0
    hi2c->Instance->CR1 &= ~(I2C_CR1_ANFOFF);
 80039ac:	6019      	str	r1, [r3, #0]
    hi2c->Instance->CR1 |= AnalogFilter;
 80039ae:	6819      	ldr	r1, [r3, #0]
 80039b0:	4339      	orrs	r1, r7
 80039b2:	6019      	str	r1, [r3, #0]
    __HAL_I2C_ENABLE(hi2c);
 80039b4:	6819      	ldr	r1, [r3, #0]
 80039b6:	430a      	orrs	r2, r1
 80039b8:	601a      	str	r2, [r3, #0]
    hi2c->State = HAL_I2C_STATE_READY;
 80039ba:	7026      	strb	r6, [r4, #0]
    __HAL_UNLOCK(hi2c);
 80039bc:	7028      	strb	r0, [r5, #0]
  }
  else
  {
    return HAL_BUSY;
  }
}
 80039be:	bdf0      	pop	{r4, r5, r6, r7, pc}
 80039c0:	ffffefff 	.word	0xffffefff

080039c4 <HAL_I2CEx_ConfigDigitalFilter>:

  /* Check the parameters */
  assert_param(IS_I2C_ALL_INSTANCE(hi2c->Instance));
  assert_param(IS_I2C_DIGITAL_FILTER(DigitalFilter));

  if (hi2c->State == HAL_I2C_STATE_READY)
 80039c4:	0002      	movs	r2, r0
{
 80039c6:	b5f0      	push	{r4, r5, r6, r7, lr}
  if (hi2c->State == HAL_I2C_STATE_READY)
 80039c8:	3241      	adds	r2, #65	@ 0x41
 80039ca:	7814      	ldrb	r4, [r2, #0]
{
 80039cc:	0003      	movs	r3, r0
  if (hi2c->State == HAL_I2C_STATE_READY)
 80039ce:	b2e5      	uxtb	r5, r4
  {
    /* Process Locked */
    __HAL_LOCK(hi2c);
 80039d0:	2002      	movs	r0, #2
  if (hi2c->State == HAL_I2C_STATE_READY)
 80039d2:	2c20      	cmp	r4, #32
 80039d4:	d117      	bne.n	8003a06 <HAL_I2CEx_ConfigDigitalFilter+0x42>
    __HAL_LOCK(hi2c);
 80039d6:	001c      	movs	r4, r3
 80039d8:	3440      	adds	r4, #64	@ 0x40
 80039da:	7826      	ldrb	r6, [r4, #0]
 80039dc:	2e01      	cmp	r6, #1
 80039de:	d012      	beq.n	8003a06 <HAL_I2CEx_ConfigDigitalFilter+0x42>

    hi2c->State = HAL_I2C_STATE_BUSY;
 80039e0:	3022      	adds	r0, #34	@ 0x22
 80039e2:	7010      	strb	r0, [r2, #0]

    /* Disable the selected I2C peripheral */
    __HAL_I2C_DISABLE(hi2c);
 80039e4:	681b      	ldr	r3, [r3, #0]
 80039e6:	3823      	subs	r0, #35	@ 0x23
 80039e8:	681e      	ldr	r6, [r3, #0]

    /* Get the old register value */
    tmpreg = hi2c->Instance->CR1;

    /* Reset I2Cx DNF bits [11:8] */
    tmpreg &= ~(I2C_CR1_DNF);
 80039ea:	4f07      	ldr	r7, [pc, #28]	@ (8003a08 <HAL_I2CEx_ConfigDigitalFilter+0x44>)
    __HAL_I2C_DISABLE(hi2c);
 80039ec:	4386      	bics	r6, r0
 80039ee:	601e      	str	r6, [r3, #0]
    tmpreg = hi2c->Instance->CR1;
 80039f0:	681e      	ldr	r6, [r3, #0]

    /* Set I2Cx DNF coefficient */
    tmpreg |= DigitalFilter << 8U;
 80039f2:	0209      	lsls	r1, r1, #8
    tmpreg &= ~(I2C_CR1_DNF);
 80039f4:	403e      	ands	r6, r7
    tmpreg |= DigitalFilter << 8U;
 80039f6:	4331      	orrs	r1, r6

    /* Store the new register value */
    hi2c->Instance->CR1 = tmpreg;
 80039f8:	6019      	str	r1, [r3, #0]

    __HAL_I2C_ENABLE(hi2c);
 80039fa:	6819      	ldr	r1, [r3, #0]
 80039fc:	4308      	orrs	r0, r1
 80039fe:	6018      	str	r0, [r3, #0]

    hi2c->State = HAL_I2C_STATE_READY;

    /* Process Unlocked */
    __HAL_UNLOCK(hi2c);
 8003a00:	2000      	movs	r0, #0
    hi2c->State = HAL_I2C_STATE_READY;
 8003a02:	7015      	strb	r5, [r2, #0]
    __HAL_UNLOCK(hi2c);
 8003a04:	7020      	strb	r0, [r4, #0]
  }
  else
  {
    return HAL_BUSY;
  }
}
 8003a06:	bdf0      	pop	{r4, r5, r6, r7, pc}
 8003a08:	fffff0ff 	.word	0xfffff0ff

08003a0c <HAL_PWREx_ControlVoltageScaling>:
  *        cleared before returning the status. If the flag is not cleared within
  *        6 microseconds, HAL_TIMEOUT status is reported.
  * @retval HAL Status
  */
HAL_StatusTypeDef HAL_PWREx_ControlVoltageScaling(uint32_t VoltageScaling)
{
 8003a0c:	b510      	push	{r4, lr}
  uint32_t wait_loop_index;

  assert_param(IS_PWR_VOLTAGE_SCALING_RANGE(VoltageScaling));

  /* Modify voltage scaling range */
  MODIFY_REG(PWR->CR1, PWR_CR1_VOS, VoltageScaling);
 8003a0e:	4c11      	ldr	r4, [pc, #68]	@ (8003a54 <HAL_PWREx_ControlVoltageScaling+0x48>)
 8003a10:	4911      	ldr	r1, [pc, #68]	@ (8003a58 <HAL_PWREx_ControlVoltageScaling+0x4c>)
 8003a12:	6823      	ldr	r3, [r4, #0]
{
 8003a14:	0002      	movs	r2, r0
  MODIFY_REG(PWR->CR1, PWR_CR1_VOS, VoltageScaling);
 8003a16:	400b      	ands	r3, r1
 8003a18:	4303      	orrs	r3, r0
 8003a1a:	6023      	str	r3, [r4, #0]

  /* In case of Range 1 selected, we need to ensure that main regulator reaches new value */
  if (VoltageScaling == PWR_REGULATOR_VOLTAGE_SCALE1)
 8003a1c:	2380      	movs	r3, #128	@ 0x80
        return HAL_TIMEOUT;
      }
    }
  }

  return HAL_OK;
 8003a1e:	2000      	movs	r0, #0
  if (VoltageScaling == PWR_REGULATOR_VOLTAGE_SCALE1)
 8003a20:	009b      	lsls	r3, r3, #2
 8003a22:	429a      	cmp	r2, r3
 8003a24:	d10e      	bne.n	8003a44 <HAL_PWREx_ControlVoltageScaling+0x38>
    wait_loop_index = ((PWR_VOSF_SETTING_DELAY_6_US * SystemCoreClock) / 1000000U) + 1U;
 8003a26:	4b0d      	ldr	r3, [pc, #52]	@ (8003a5c <HAL_PWREx_ControlVoltageScaling+0x50>)
 8003a28:	490d      	ldr	r1, [pc, #52]	@ (8003a60 <HAL_PWREx_ControlVoltageScaling+0x54>)
 8003a2a:	6818      	ldr	r0, [r3, #0]
 8003a2c:	2306      	movs	r3, #6
 8003a2e:	4358      	muls	r0, r3
 8003a30:	f7fc fb9a 	bl	8000168 <__udivsi3>
    while (HAL_IS_BIT_SET(PWR->SR2, PWR_SR2_VOSF))
 8003a34:	2280      	movs	r2, #128	@ 0x80
    wait_loop_index = ((PWR_VOSF_SETTING_DELAY_6_US * SystemCoreClock) / 1000000U) + 1U;
 8003a36:	1c43      	adds	r3, r0, #1
    while (HAL_IS_BIT_SET(PWR->SR2, PWR_SR2_VOSF))
 8003a38:	00d2      	lsls	r2, r2, #3
 8003a3a:	6961      	ldr	r1, [r4, #20]
 8003a3c:	0008      	movs	r0, r1
 8003a3e:	4010      	ands	r0, r2
 8003a40:	4211      	tst	r1, r2
 8003a42:	d100      	bne.n	8003a46 <HAL_PWREx_ControlVoltageScaling+0x3a>
}
 8003a44:	bd10      	pop	{r4, pc}
      if (wait_loop_index != 0U)
 8003a46:	2b00      	cmp	r3, #0
 8003a48:	d001      	beq.n	8003a4e <HAL_PWREx_ControlVoltageScaling+0x42>
        wait_loop_index--;
 8003a4a:	3b01      	subs	r3, #1
 8003a4c:	e7f5      	b.n	8003a3a <HAL_PWREx_ControlVoltageScaling+0x2e>
        return HAL_TIMEOUT;
 8003a4e:	2003      	movs	r0, #3
 8003a50:	e7f8      	b.n	8003a44 <HAL_PWREx_ControlVoltageScaling+0x38>
 8003a52:	46c0      	nop			@ (mov r8, r8)
 8003a54:	40007000 	.word	0x40007000
 8003a58:	fffff9ff 	.word	0xfffff9ff
 8003a5c:	20000000 	.word	0x20000000
 8003a60:	000f4240 	.word	0x000f4240

08003a64 <HAL_RCC_OscConfig>:
  *         supported by this function. User should request a transition to LSE Off
  *         first and then to LSE On or LSE Bypass.
  * @retval HAL status
  */
HAL_StatusTypeDef HAL_RCC_OscConfig(RCC_OscInitTypeDef  *RCC_OscInitStruct)
{
 8003a64:	b5f0      	push	{r4, r5, r6, r7, lr}
 8003a66:	0004      	movs	r4, r0
 8003a68:	b085      	sub	sp, #20
  uint32_t tickstart;
  uint32_t temp_sysclksrc;
  uint32_t temp_pllckcfg;

  /* Check Null pointer */
  if (RCC_OscInitStruct == NULL)
 8003a6a:	2800      	cmp	r0, #0
 8003a6c:	d102      	bne.n	8003a74 <HAL_RCC_OscConfig+0x10>
  {
    return HAL_ERROR;
 8003a6e:	2001      	movs	r0, #1
        }
      }
    }
  }
  return HAL_OK;
}
 8003a70:	b005      	add	sp, #20
 8003a72:	bdf0      	pop	{r4, r5, r6, r7, pc}
  if (((RCC_OscInitStruct->OscillatorType) & RCC_OSCILLATORTYPE_HSE) == RCC_OSCILLATORTYPE_HSE)
 8003a74:	6803      	ldr	r3, [r0, #0]
 8003a76:	07db      	lsls	r3, r3, #31
 8003a78:	d410      	bmi.n	8003a9c <HAL_RCC_OscConfig+0x38>
  if (((RCC_OscInitStruct->OscillatorType) & RCC_OSCILLATORTYPE_HSI) == RCC_OSCILLATORTYPE_HSI)
 8003a7a:	6823      	ldr	r3, [r4, #0]
 8003a7c:	079b      	lsls	r3, r3, #30
 8003a7e:	d45c      	bmi.n	8003b3a <HAL_RCC_OscConfig+0xd6>
  if (((RCC_OscInitStruct->OscillatorType) & RCC_OSCILLATORTYPE_LSI) == RCC_OSCILLATORTYPE_LSI)
 8003a80:	6823      	ldr	r3, [r4, #0]
 8003a82:	071b      	lsls	r3, r3, #28
 8003a84:	d500      	bpl.n	8003a88 <HAL_RCC_OscConfig+0x24>
 8003a86:	e0c1      	b.n	8003c0c <HAL_RCC_OscConfig+0x1a8>
  if (((RCC_OscInitStruct->OscillatorType) & RCC_OSCILLATORTYPE_LSE) == RCC_OSCILLATORTYPE_LSE)
 8003a88:	6823      	ldr	r3, [r4, #0]
 8003a8a:	075b      	lsls	r3, r3, #29
 8003a8c:	d500      	bpl.n	8003a90 <HAL_RCC_OscConfig+0x2c>
 8003a8e:	e0f2      	b.n	8003c76 <HAL_RCC_OscConfig+0x212>
  if (RCC_OscInitStruct->PLL.PLLState != RCC_PLL_NONE)
 8003a90:	69e3      	ldr	r3, [r4, #28]
 8003a92:	2b00      	cmp	r3, #0
 8003a94:	d000      	beq.n	8003a98 <HAL_RCC_OscConfig+0x34>
 8003a96:	e179      	b.n	8003d8c <HAL_RCC_OscConfig+0x328>
  return HAL_OK;
 8003a98:	2000      	movs	r0, #0
 8003a9a:	e7e9      	b.n	8003a70 <HAL_RCC_OscConfig+0xc>
    temp_sysclksrc = __HAL_RCC_GET_SYSCLK_SOURCE();
 8003a9c:	2238      	movs	r2, #56	@ 0x38
 8003a9e:	4daf      	ldr	r5, [pc, #700]	@ (8003d5c <HAL_RCC_OscConfig+0x2f8>)
 8003aa0:	68ab      	ldr	r3, [r5, #8]
 8003aa2:	4013      	ands	r3, r2
    temp_pllckcfg = __HAL_RCC_GET_PLL_OSCSOURCE();
 8003aa4:	68ea      	ldr	r2, [r5, #12]
    if (((temp_sysclksrc == RCC_SYSCLKSOURCE_STATUS_PLLCLK) && (temp_pllckcfg == RCC_PLLSOURCE_HSE))
 8003aa6:	2b10      	cmp	r3, #16
 8003aa8:	d109      	bne.n	8003abe <HAL_RCC_OscConfig+0x5a>
    temp_pllckcfg = __HAL_RCC_GET_PLL_OSCSOURCE();
 8003aaa:	43d3      	mvns	r3, r2
    if (((temp_sysclksrc == RCC_SYSCLKSOURCE_STATUS_PLLCLK) && (temp_pllckcfg == RCC_PLLSOURCE_HSE))
 8003aac:	079b      	lsls	r3, r3, #30
 8003aae:	d108      	bne.n	8003ac2 <HAL_RCC_OscConfig+0x5e>
      if ((READ_BIT(RCC->CR, RCC_CR_HSERDY) != 0U) && (RCC_OscInitStruct->HSEState == RCC_HSE_OFF))
 8003ab0:	682b      	ldr	r3, [r5, #0]
 8003ab2:	039b      	lsls	r3, r3, #14
 8003ab4:	d5e1      	bpl.n	8003a7a <HAL_RCC_OscConfig+0x16>
 8003ab6:	6863      	ldr	r3, [r4, #4]
 8003ab8:	2b00      	cmp	r3, #0
 8003aba:	d1de      	bne.n	8003a7a <HAL_RCC_OscConfig+0x16>
 8003abc:	e7d7      	b.n	8003a6e <HAL_RCC_OscConfig+0xa>
        || (temp_sysclksrc == RCC_SYSCLKSOURCE_STATUS_HSE))
 8003abe:	2b08      	cmp	r3, #8
 8003ac0:	d0f6      	beq.n	8003ab0 <HAL_RCC_OscConfig+0x4c>
      __HAL_RCC_HSE_CONFIG(RCC_OscInitStruct->HSEState);
 8003ac2:	2280      	movs	r2, #128	@ 0x80
 8003ac4:	6863      	ldr	r3, [r4, #4]
 8003ac6:	0252      	lsls	r2, r2, #9
 8003ac8:	4293      	cmp	r3, r2
 8003aca:	d111      	bne.n	8003af0 <HAL_RCC_OscConfig+0x8c>
 8003acc:	682a      	ldr	r2, [r5, #0]
 8003ace:	4313      	orrs	r3, r2
 8003ad0:	602b      	str	r3, [r5, #0]
        tickstart = HAL_GetTick();
 8003ad2:	f7ff f8bb 	bl	8002c4c <HAL_GetTick>
        while (READ_BIT(RCC->CR, RCC_CR_HSERDY) == 0U)
 8003ad6:	2780      	movs	r7, #128	@ 0x80
        tickstart = HAL_GetTick();
 8003ad8:	0006      	movs	r6, r0
        while (READ_BIT(RCC->CR, RCC_CR_HSERDY) == 0U)
 8003ada:	02bf      	lsls	r7, r7, #10
 8003adc:	682b      	ldr	r3, [r5, #0]
 8003ade:	423b      	tst	r3, r7
 8003ae0:	d1cb      	bne.n	8003a7a <HAL_RCC_OscConfig+0x16>
          if ((HAL_GetTick() - tickstart) > HSE_TIMEOUT_VALUE)
 8003ae2:	f7ff f8b3 	bl	8002c4c <HAL_GetTick>
 8003ae6:	1b80      	subs	r0, r0, r6
 8003ae8:	2864      	cmp	r0, #100	@ 0x64
 8003aea:	d9f7      	bls.n	8003adc <HAL_RCC_OscConfig+0x78>
            return HAL_TIMEOUT;
 8003aec:	2003      	movs	r0, #3
 8003aee:	e7bf      	b.n	8003a70 <HAL_RCC_OscConfig+0xc>
      __HAL_RCC_HSE_CONFIG(RCC_OscInitStruct->HSEState);
 8003af0:	21a0      	movs	r1, #160	@ 0xa0
 8003af2:	02c9      	lsls	r1, r1, #11
 8003af4:	428b      	cmp	r3, r1
 8003af6:	d108      	bne.n	8003b0a <HAL_RCC_OscConfig+0xa6>
 8003af8:	2380      	movs	r3, #128	@ 0x80
 8003afa:	6829      	ldr	r1, [r5, #0]
 8003afc:	02db      	lsls	r3, r3, #11
 8003afe:	430b      	orrs	r3, r1
 8003b00:	602b      	str	r3, [r5, #0]
 8003b02:	682b      	ldr	r3, [r5, #0]
 8003b04:	431a      	orrs	r2, r3
 8003b06:	602a      	str	r2, [r5, #0]
      if (RCC_OscInitStruct->HSEState != RCC_HSE_OFF)
 8003b08:	e7e3      	b.n	8003ad2 <HAL_RCC_OscConfig+0x6e>
      __HAL_RCC_HSE_CONFIG(RCC_OscInitStruct->HSEState);
 8003b0a:	682a      	ldr	r2, [r5, #0]
 8003b0c:	4994      	ldr	r1, [pc, #592]	@ (8003d60 <HAL_RCC_OscConfig+0x2fc>)
 8003b0e:	400a      	ands	r2, r1
 8003b10:	602a      	str	r2, [r5, #0]
 8003b12:	682a      	ldr	r2, [r5, #0]
 8003b14:	4993      	ldr	r1, [pc, #588]	@ (8003d64 <HAL_RCC_OscConfig+0x300>)
 8003b16:	400a      	ands	r2, r1
 8003b18:	602a      	str	r2, [r5, #0]
      if (RCC_OscInitStruct->HSEState != RCC_HSE_OFF)
 8003b1a:	2b00      	cmp	r3, #0
 8003b1c:	d1d9      	bne.n	8003ad2 <HAL_RCC_OscConfig+0x6e>
        tickstart = HAL_GetTick();
 8003b1e:	f7ff f895 	bl	8002c4c <HAL_GetTick>
        while (READ_BIT(RCC->CR, RCC_CR_HSERDY) != 0U)
 8003b22:	2780      	movs	r7, #128	@ 0x80
        tickstart = HAL_GetTick();
 8003b24:	0006      	movs	r6, r0
        while (READ_BIT(RCC->CR, RCC_CR_HSERDY) != 0U)
 8003b26:	02bf      	lsls	r7, r7, #10
 8003b28:	682b      	ldr	r3, [r5, #0]
 8003b2a:	423b      	tst	r3, r7
 8003b2c:	d0a5      	beq.n	8003a7a <HAL_RCC_OscConfig+0x16>
          if ((HAL_GetTick() - tickstart) > HSE_TIMEOUT_VALUE)
 8003b2e:	f7ff f88d 	bl	8002c4c <HAL_GetTick>
 8003b32:	1b80      	subs	r0, r0, r6
 8003b34:	2864      	cmp	r0, #100	@ 0x64
 8003b36:	d9f7      	bls.n	8003b28 <HAL_RCC_OscConfig+0xc4>
 8003b38:	e7d8      	b.n	8003aec <HAL_RCC_OscConfig+0x88>
    temp_sysclksrc = __HAL_RCC_GET_SYSCLK_SOURCE();
 8003b3a:	2238      	movs	r2, #56	@ 0x38
 8003b3c:	4d87      	ldr	r5, [pc, #540]	@ (8003d5c <HAL_RCC_OscConfig+0x2f8>)
 8003b3e:	68ab      	ldr	r3, [r5, #8]
 8003b40:	4013      	ands	r3, r2
    temp_pllckcfg = __HAL_RCC_GET_PLL_OSCSOURCE();
 8003b42:	68ea      	ldr	r2, [r5, #12]
    if (((temp_sysclksrc == RCC_SYSCLKSOURCE_STATUS_PLLCLK) && (temp_pllckcfg == RCC_PLLSOURCE_HSI))
 8003b44:	2b10      	cmp	r3, #16
 8003b46:	d128      	bne.n	8003b9a <HAL_RCC_OscConfig+0x136>
    temp_pllckcfg = __HAL_RCC_GET_PLL_OSCSOURCE();
 8003b48:	2103      	movs	r1, #3
 8003b4a:	400a      	ands	r2, r1
    if (((temp_sysclksrc == RCC_SYSCLKSOURCE_STATUS_PLLCLK) && (temp_pllckcfg == RCC_PLLSOURCE_HSI))
 8003b4c:	2a02      	cmp	r2, #2
 8003b4e:	d126      	bne.n	8003b9e <HAL_RCC_OscConfig+0x13a>
      if ((READ_BIT(RCC->CR, RCC_CR_HSIRDY) != 0U) && (RCC_OscInitStruct->HSIState == RCC_HSI_OFF))
 8003b50:	682a      	ldr	r2, [r5, #0]
 8003b52:	0552      	lsls	r2, r2, #21
 8003b54:	d503      	bpl.n	8003b5e <HAL_RCC_OscConfig+0xfa>
 8003b56:	68e2      	ldr	r2, [r4, #12]
 8003b58:	2a00      	cmp	r2, #0
 8003b5a:	d100      	bne.n	8003b5e <HAL_RCC_OscConfig+0xfa>
 8003b5c:	e787      	b.n	8003a6e <HAL_RCC_OscConfig+0xa>
        __HAL_RCC_HSI_CALIBRATIONVALUE_ADJUST(RCC_OscInitStruct->HSICalibrationValue);
 8003b5e:	6869      	ldr	r1, [r5, #4]
 8003b60:	6962      	ldr	r2, [r4, #20]
 8003b62:	4881      	ldr	r0, [pc, #516]	@ (8003d68 <HAL_RCC_OscConfig+0x304>)
 8003b64:	0212      	lsls	r2, r2, #8
 8003b66:	4001      	ands	r1, r0
 8003b68:	430a      	orrs	r2, r1
 8003b6a:	606a      	str	r2, [r5, #4]
        if (temp_sysclksrc == RCC_SYSCLKSOURCE_STATUS_HSI)
 8003b6c:	2b00      	cmp	r3, #0
 8003b6e:	d10c      	bne.n	8003b8a <HAL_RCC_OscConfig+0x126>
          __HAL_RCC_HSI_CONFIG(RCC_OscInitStruct->HSIDiv);
 8003b70:	682b      	ldr	r3, [r5, #0]
 8003b72:	4a7e      	ldr	r2, [pc, #504]	@ (8003d6c <HAL_RCC_OscConfig+0x308>)
          SystemCoreClock = (HSI_VALUE / (1UL << ((READ_BIT(RCC->CR, RCC_CR_HSIDIV)) >> RCC_CR_HSIDIV_Pos)));
 8003b74:	497e      	ldr	r1, [pc, #504]	@ (8003d70 <HAL_RCC_OscConfig+0x30c>)
          __HAL_RCC_HSI_CONFIG(RCC_OscInitStruct->HSIDiv);
 8003b76:	4013      	ands	r3, r2
 8003b78:	6922      	ldr	r2, [r4, #16]
 8003b7a:	4313      	orrs	r3, r2
 8003b7c:	602b      	str	r3, [r5, #0]
          SystemCoreClock = (HSI_VALUE / (1UL << ((READ_BIT(RCC->CR, RCC_CR_HSIDIV)) >> RCC_CR_HSIDIV_Pos)));
 8003b7e:	682b      	ldr	r3, [r5, #0]
 8003b80:	4a7c      	ldr	r2, [pc, #496]	@ (8003d74 <HAL_RCC_OscConfig+0x310>)
 8003b82:	049b      	lsls	r3, r3, #18
 8003b84:	0f5b      	lsrs	r3, r3, #29
 8003b86:	40da      	lsrs	r2, r3
 8003b88:	600a      	str	r2, [r1, #0]
        if (HAL_InitTick(uwTickPrio) != HAL_OK)
 8003b8a:	4b7b      	ldr	r3, [pc, #492]	@ (8003d78 <HAL_RCC_OscConfig+0x314>)
 8003b8c:	6818      	ldr	r0, [r3, #0]
 8003b8e:	f7ff f815 	bl	8002bbc <HAL_InitTick>
 8003b92:	2800      	cmp	r0, #0
 8003b94:	d100      	bne.n	8003b98 <HAL_RCC_OscConfig+0x134>
 8003b96:	e773      	b.n	8003a80 <HAL_RCC_OscConfig+0x1c>
 8003b98:	e769      	b.n	8003a6e <HAL_RCC_OscConfig+0xa>
        || (temp_sysclksrc == RCC_SYSCLKSOURCE_STATUS_HSI))
 8003b9a:	2b00      	cmp	r3, #0
 8003b9c:	d0d8      	beq.n	8003b50 <HAL_RCC_OscConfig+0xec>
      if (RCC_OscInitStruct->HSIState != RCC_HSI_OFF)
 8003b9e:	68e3      	ldr	r3, [r4, #12]
 8003ba0:	2b00      	cmp	r3, #0
 8003ba2:	d020      	beq.n	8003be6 <HAL_RCC_OscConfig+0x182>
        __HAL_RCC_HSI_CONFIG(RCC_OscInitStruct->HSIDiv);
 8003ba4:	682b      	ldr	r3, [r5, #0]
 8003ba6:	4a71      	ldr	r2, [pc, #452]	@ (8003d6c <HAL_RCC_OscConfig+0x308>)
        while (READ_BIT(RCC->CR, RCC_CR_HSIRDY) == 0U)
 8003ba8:	2780      	movs	r7, #128	@ 0x80
        __HAL_RCC_HSI_CONFIG(RCC_OscInitStruct->HSIDiv);
 8003baa:	4013      	ands	r3, r2
 8003bac:	6922      	ldr	r2, [r4, #16]
        while (READ_BIT(RCC->CR, RCC_CR_HSIRDY) == 0U)
 8003bae:	00ff      	lsls	r7, r7, #3
        __HAL_RCC_HSI_CONFIG(RCC_OscInitStruct->HSIDiv);
 8003bb0:	4313      	orrs	r3, r2
 8003bb2:	602b      	str	r3, [r5, #0]
        __HAL_RCC_HSI_ENABLE();
 8003bb4:	2380      	movs	r3, #128	@ 0x80
 8003bb6:	682a      	ldr	r2, [r5, #0]
 8003bb8:	005b      	lsls	r3, r3, #1
 8003bba:	4313      	orrs	r3, r2
 8003bbc:	602b      	str	r3, [r5, #0]
        tickstart = HAL_GetTick();
 8003bbe:	f7ff f845 	bl	8002c4c <HAL_GetTick>
 8003bc2:	0006      	movs	r6, r0
        while (READ_BIT(RCC->CR, RCC_CR_HSIRDY) == 0U)
 8003bc4:	682b      	ldr	r3, [r5, #0]
 8003bc6:	423b      	tst	r3, r7
 8003bc8:	d007      	beq.n	8003bda <HAL_RCC_OscConfig+0x176>
        __HAL_RCC_HSI_CALIBRATIONVALUE_ADJUST(RCC_OscInitStruct->HSICalibrationValue);
 8003bca:	686a      	ldr	r2, [r5, #4]
 8003bcc:	6963      	ldr	r3, [r4, #20]
 8003bce:	4966      	ldr	r1, [pc, #408]	@ (8003d68 <HAL_RCC_OscConfig+0x304>)
 8003bd0:	021b      	lsls	r3, r3, #8
 8003bd2:	400a      	ands	r2, r1
 8003bd4:	4313      	orrs	r3, r2
 8003bd6:	606b      	str	r3, [r5, #4]
 8003bd8:	e752      	b.n	8003a80 <HAL_RCC_OscConfig+0x1c>
          if ((HAL_GetTick() - tickstart) > HSI_TIMEOUT_VALUE)
 8003bda:	f7ff f837 	bl	8002c4c <HAL_GetTick>
 8003bde:	1b80      	subs	r0, r0, r6
 8003be0:	2802      	cmp	r0, #2
 8003be2:	d9ef      	bls.n	8003bc4 <HAL_RCC_OscConfig+0x160>
 8003be4:	e782      	b.n	8003aec <HAL_RCC_OscConfig+0x88>
        __HAL_RCC_HSI_DISABLE();
 8003be6:	682b      	ldr	r3, [r5, #0]
 8003be8:	4a64      	ldr	r2, [pc, #400]	@ (8003d7c <HAL_RCC_OscConfig+0x318>)
        while (READ_BIT(RCC->CR, RCC_CR_HSIRDY) != 0U)
 8003bea:	2780      	movs	r7, #128	@ 0x80
        __HAL_RCC_HSI_DISABLE();
 8003bec:	4013      	ands	r3, r2
 8003bee:	602b      	str	r3, [r5, #0]
        tickstart = HAL_GetTick();
 8003bf0:	f7ff f82c 	bl	8002c4c <HAL_GetTick>
 8003bf4:	0006      	movs	r6, r0
        while (READ_BIT(RCC->CR, RCC_CR_HSIRDY) != 0U)
 8003bf6:	00ff      	lsls	r7, r7, #3
 8003bf8:	682b      	ldr	r3, [r5, #0]
 8003bfa:	423b      	tst	r3, r7
 8003bfc:	d100      	bne.n	8003c00 <HAL_RCC_OscConfig+0x19c>
 8003bfe:	e73f      	b.n	8003a80 <HAL_RCC_OscConfig+0x1c>
          if ((HAL_GetTick() - tickstart) > HSI_TIMEOUT_VALUE)
 8003c00:	f7ff f824 	bl	8002c4c <HAL_GetTick>
 8003c04:	1b80      	subs	r0, r0, r6
 8003c06:	2802      	cmp	r0, #2
 8003c08:	d9f6      	bls.n	8003bf8 <HAL_RCC_OscConfig+0x194>
 8003c0a:	e76f      	b.n	8003aec <HAL_RCC_OscConfig+0x88>
    if (__HAL_RCC_GET_SYSCLK_SOURCE() == RCC_SYSCLKSOURCE_STATUS_LSI)
 8003c0c:	2238      	movs	r2, #56	@ 0x38
 8003c0e:	4d53      	ldr	r5, [pc, #332]	@ (8003d5c <HAL_RCC_OscConfig+0x2f8>)
 8003c10:	68ab      	ldr	r3, [r5, #8]
 8003c12:	4013      	ands	r3, r2
 8003c14:	2b18      	cmp	r3, #24
 8003c16:	d108      	bne.n	8003c2a <HAL_RCC_OscConfig+0x1c6>
      if ((((RCC->CSR) & RCC_CSR_LSIRDY) != 0U) && (RCC_OscInitStruct->LSIState == RCC_LSI_OFF))
 8003c18:	6e2b      	ldr	r3, [r5, #96]	@ 0x60
 8003c1a:	079b      	lsls	r3, r3, #30
 8003c1c:	d400      	bmi.n	8003c20 <HAL_RCC_OscConfig+0x1bc>
 8003c1e:	e733      	b.n	8003a88 <HAL_RCC_OscConfig+0x24>
 8003c20:	69a3      	ldr	r3, [r4, #24]
 8003c22:	2b00      	cmp	r3, #0
 8003c24:	d000      	beq.n	8003c28 <HAL_RCC_OscConfig+0x1c4>
 8003c26:	e72f      	b.n	8003a88 <HAL_RCC_OscConfig+0x24>
 8003c28:	e721      	b.n	8003a6e <HAL_RCC_OscConfig+0xa>
      if (RCC_OscInitStruct->LSIState != RCC_LSI_OFF)
 8003c2a:	69a2      	ldr	r2, [r4, #24]
 8003c2c:	2301      	movs	r3, #1
 8003c2e:	2a00      	cmp	r2, #0
 8003c30:	d010      	beq.n	8003c54 <HAL_RCC_OscConfig+0x1f0>
        __HAL_RCC_LSI_ENABLE();
 8003c32:	6e2a      	ldr	r2, [r5, #96]	@ 0x60
        while (READ_BIT(RCC->CSR, RCC_CSR_LSIRDY) == 0U)
 8003c34:	2702      	movs	r7, #2
        __HAL_RCC_LSI_ENABLE();
 8003c36:	4313      	orrs	r3, r2
 8003c38:	662b      	str	r3, [r5, #96]	@ 0x60
        tickstart = HAL_GetTick();
 8003c3a:	f7ff f807 	bl	8002c4c <HAL_GetTick>
 8003c3e:	0006      	movs	r6, r0
        while (READ_BIT(RCC->CSR, RCC_CSR_LSIRDY) == 0U)
 8003c40:	6e2b      	ldr	r3, [r5, #96]	@ 0x60
 8003c42:	423b      	tst	r3, r7
 8003c44:	d000      	beq.n	8003c48 <HAL_RCC_OscConfig+0x1e4>
 8003c46:	e71f      	b.n	8003a88 <HAL_RCC_OscConfig+0x24>
          if ((HAL_GetTick() - tickstart) > LSI_TIMEOUT_VALUE)
 8003c48:	f7ff f800 	bl	8002c4c <HAL_GetTick>
 8003c4c:	1b80      	subs	r0, r0, r6
 8003c4e:	2802      	cmp	r0, #2
 8003c50:	d9f6      	bls.n	8003c40 <HAL_RCC_OscConfig+0x1dc>
 8003c52:	e74b      	b.n	8003aec <HAL_RCC_OscConfig+0x88>
        __HAL_RCC_LSI_DISABLE();
 8003c54:	6e2a      	ldr	r2, [r5, #96]	@ 0x60
        while (READ_BIT(RCC->CSR, RCC_CSR_LSIRDY) != 0U)
 8003c56:	2702      	movs	r7, #2
        __HAL_RCC_LSI_DISABLE();
 8003c58:	439a      	bics	r2, r3
 8003c5a:	662a      	str	r2, [r5, #96]	@ 0x60
        tickstart = HAL_GetTick();
 8003c5c:	f7fe fff6 	bl	8002c4c <HAL_GetTick>
 8003c60:	0006      	movs	r6, r0
        while (READ_BIT(RCC->CSR, RCC_CSR_LSIRDY) != 0U)
 8003c62:	6e2b      	ldr	r3, [r5, #96]	@ 0x60
 8003c64:	423b      	tst	r3, r7
 8003c66:	d100      	bne.n	8003c6a <HAL_RCC_OscConfig+0x206>
 8003c68:	e70e      	b.n	8003a88 <HAL_RCC_OscConfig+0x24>
          if ((HAL_GetTick() - tickstart) > LSI_TIMEOUT_VALUE)
 8003c6a:	f7fe ffef 	bl	8002c4c <HAL_GetTick>
 8003c6e:	1b80      	subs	r0, r0, r6
 8003c70:	2802      	cmp	r0, #2
 8003c72:	d9f6      	bls.n	8003c62 <HAL_RCC_OscConfig+0x1fe>
 8003c74:	e73a      	b.n	8003aec <HAL_RCC_OscConfig+0x88>
    if (__HAL_RCC_GET_SYSCLK_SOURCE() == RCC_SYSCLKSOURCE_STATUS_LSE)
 8003c76:	2238      	movs	r2, #56	@ 0x38
 8003c78:	4d38      	ldr	r5, [pc, #224]	@ (8003d5c <HAL_RCC_OscConfig+0x2f8>)
 8003c7a:	68ab      	ldr	r3, [r5, #8]
 8003c7c:	4013      	ands	r3, r2
 8003c7e:	2b20      	cmp	r3, #32
 8003c80:	d108      	bne.n	8003c94 <HAL_RCC_OscConfig+0x230>
      if ((((RCC->BDCR) & RCC_BDCR_LSERDY) != 0U) && (RCC_OscInitStruct->LSEState == RCC_LSE_OFF))
 8003c82:	6deb      	ldr	r3, [r5, #92]	@ 0x5c
 8003c84:	079b      	lsls	r3, r3, #30
 8003c86:	d400      	bmi.n	8003c8a <HAL_RCC_OscConfig+0x226>
 8003c88:	e702      	b.n	8003a90 <HAL_RCC_OscConfig+0x2c>
 8003c8a:	68a3      	ldr	r3, [r4, #8]
 8003c8c:	2b00      	cmp	r3, #0
 8003c8e:	d000      	beq.n	8003c92 <HAL_RCC_OscConfig+0x22e>
 8003c90:	e6fe      	b.n	8003a90 <HAL_RCC_OscConfig+0x2c>
 8003c92:	e6ec      	b.n	8003a6e <HAL_RCC_OscConfig+0xa>
      if (__HAL_RCC_PWR_IS_CLK_DISABLED() != 0U)
 8003c94:	2280      	movs	r2, #128	@ 0x80
    FlagStatus       pwrclkchanged = RESET;
 8003c96:	2100      	movs	r1, #0
      if (__HAL_RCC_PWR_IS_CLK_DISABLED() != 0U)
 8003c98:	6beb      	ldr	r3, [r5, #60]	@ 0x3c
 8003c9a:	0552      	lsls	r2, r2, #21
    FlagStatus       pwrclkchanged = RESET;
 8003c9c:	9100      	str	r1, [sp, #0]
      if (__HAL_RCC_PWR_IS_CLK_DISABLED() != 0U)
 8003c9e:	4213      	tst	r3, r2
 8003ca0:	d108      	bne.n	8003cb4 <HAL_RCC_OscConfig+0x250>
        __HAL_RCC_PWR_CLK_ENABLE();
 8003ca2:	6beb      	ldr	r3, [r5, #60]	@ 0x3c
 8003ca4:	4313      	orrs	r3, r2
 8003ca6:	63eb      	str	r3, [r5, #60]	@ 0x3c
 8003ca8:	6beb      	ldr	r3, [r5, #60]	@ 0x3c
 8003caa:	4013      	ands	r3, r2
 8003cac:	9303      	str	r3, [sp, #12]
 8003cae:	9b03      	ldr	r3, [sp, #12]
        pwrclkchanged = SET;
 8003cb0:	2301      	movs	r3, #1
 8003cb2:	9300      	str	r3, [sp, #0]
      if (HAL_IS_BIT_CLR(PWR->CR1, PWR_CR1_DBP))
 8003cb4:	2780      	movs	r7, #128	@ 0x80
 8003cb6:	4e32      	ldr	r6, [pc, #200]	@ (8003d80 <HAL_RCC_OscConfig+0x31c>)
 8003cb8:	007f      	lsls	r7, r7, #1
 8003cba:	6833      	ldr	r3, [r6, #0]
 8003cbc:	423b      	tst	r3, r7
 8003cbe:	d015      	beq.n	8003cec <HAL_RCC_OscConfig+0x288>
      __HAL_RCC_LSE_CONFIG(RCC_OscInitStruct->LSEState);
 8003cc0:	68a3      	ldr	r3, [r4, #8]
 8003cc2:	2b01      	cmp	r3, #1
 8003cc4:	d122      	bne.n	8003d0c <HAL_RCC_OscConfig+0x2a8>
 8003cc6:	6dea      	ldr	r2, [r5, #92]	@ 0x5c
 8003cc8:	4313      	orrs	r3, r2
 8003cca:	65eb      	str	r3, [r5, #92]	@ 0x5c
        tickstart = HAL_GetTick();
 8003ccc:	f7fe ffbe 	bl	8002c4c <HAL_GetTick>
        while (READ_BIT(RCC->BDCR, RCC_BDCR_LSERDY) == 0U)
 8003cd0:	2702      	movs	r7, #2
        tickstart = HAL_GetTick();
 8003cd2:	0006      	movs	r6, r0
        while (READ_BIT(RCC->BDCR, RCC_BDCR_LSERDY) == 0U)
 8003cd4:	6deb      	ldr	r3, [r5, #92]	@ 0x5c
 8003cd6:	423b      	tst	r3, r7
 8003cd8:	d038      	beq.n	8003d4c <HAL_RCC_OscConfig+0x2e8>
      if (pwrclkchanged == SET)
 8003cda:	9b00      	ldr	r3, [sp, #0]
 8003cdc:	2b01      	cmp	r3, #1
 8003cde:	d000      	beq.n	8003ce2 <HAL_RCC_OscConfig+0x27e>
 8003ce0:	e6d6      	b.n	8003a90 <HAL_RCC_OscConfig+0x2c>
        __HAL_RCC_PWR_CLK_DISABLE();
 8003ce2:	6beb      	ldr	r3, [r5, #60]	@ 0x3c
 8003ce4:	4a27      	ldr	r2, [pc, #156]	@ (8003d84 <HAL_RCC_OscConfig+0x320>)
 8003ce6:	4013      	ands	r3, r2
 8003ce8:	63eb      	str	r3, [r5, #60]	@ 0x3c
 8003cea:	e6d1      	b.n	8003a90 <HAL_RCC_OscConfig+0x2c>
        SET_BIT(PWR->CR1, PWR_CR1_DBP);
 8003cec:	6833      	ldr	r3, [r6, #0]
 8003cee:	433b      	orrs	r3, r7
 8003cf0:	6033      	str	r3, [r6, #0]
        tickstart = HAL_GetTick();
 8003cf2:	f7fe ffab 	bl	8002c4c <HAL_GetTick>
 8003cf6:	9001      	str	r0, [sp, #4]
        while (HAL_IS_BIT_CLR(PWR->CR1, PWR_CR1_DBP))
 8003cf8:	6833      	ldr	r3, [r6, #0]
 8003cfa:	423b      	tst	r3, r7
 8003cfc:	d1e0      	bne.n	8003cc0 <HAL_RCC_OscConfig+0x25c>
          if ((HAL_GetTick() - tickstart) > RCC_DBP_TIMEOUT_VALUE)
 8003cfe:	f7fe ffa5 	bl	8002c4c <HAL_GetTick>
 8003d02:	9b01      	ldr	r3, [sp, #4]
 8003d04:	1ac0      	subs	r0, r0, r3
 8003d06:	2802      	cmp	r0, #2
 8003d08:	d9f6      	bls.n	8003cf8 <HAL_RCC_OscConfig+0x294>
 8003d0a:	e6ef      	b.n	8003aec <HAL_RCC_OscConfig+0x88>
      __HAL_RCC_LSE_CONFIG(RCC_OscInitStruct->LSEState);
 8003d0c:	6dea      	ldr	r2, [r5, #92]	@ 0x5c
 8003d0e:	2b05      	cmp	r3, #5
 8003d10:	d105      	bne.n	8003d1e <HAL_RCC_OscConfig+0x2ba>
 8003d12:	3b01      	subs	r3, #1
 8003d14:	4313      	orrs	r3, r2
 8003d16:	65eb      	str	r3, [r5, #92]	@ 0x5c
 8003d18:	6dea      	ldr	r2, [r5, #92]	@ 0x5c
 8003d1a:	2301      	movs	r3, #1
 8003d1c:	e7d4      	b.n	8003cc8 <HAL_RCC_OscConfig+0x264>
 8003d1e:	2101      	movs	r1, #1
 8003d20:	438a      	bics	r2, r1
 8003d22:	65ea      	str	r2, [r5, #92]	@ 0x5c
 8003d24:	6dea      	ldr	r2, [r5, #92]	@ 0x5c
 8003d26:	3103      	adds	r1, #3
 8003d28:	438a      	bics	r2, r1
 8003d2a:	65ea      	str	r2, [r5, #92]	@ 0x5c
      if (RCC_OscInitStruct->LSEState != RCC_LSE_OFF)
 8003d2c:	2b00      	cmp	r3, #0
 8003d2e:	d1cd      	bne.n	8003ccc <HAL_RCC_OscConfig+0x268>
        tickstart = HAL_GetTick();
 8003d30:	f7fe ff8c 	bl	8002c4c <HAL_GetTick>
        while (READ_BIT(RCC->BDCR, RCC_BDCR_LSERDY) != 0U)
 8003d34:	2702      	movs	r7, #2
        tickstart = HAL_GetTick();
 8003d36:	0006      	movs	r6, r0
        while (READ_BIT(RCC->BDCR, RCC_BDCR_LSERDY) != 0U)
 8003d38:	6deb      	ldr	r3, [r5, #92]	@ 0x5c
 8003d3a:	423b      	tst	r3, r7
 8003d3c:	d0cd      	beq.n	8003cda <HAL_RCC_OscConfig+0x276>
          if ((HAL_GetTick() - tickstart) > RCC_LSE_TIMEOUT_VALUE)
 8003d3e:	f7fe ff85 	bl	8002c4c <HAL_GetTick>
 8003d42:	4b11      	ldr	r3, [pc, #68]	@ (8003d88 <HAL_RCC_OscConfig+0x324>)
 8003d44:	1b80      	subs	r0, r0, r6
 8003d46:	4298      	cmp	r0, r3
 8003d48:	d9f6      	bls.n	8003d38 <HAL_RCC_OscConfig+0x2d4>
 8003d4a:	e6cf      	b.n	8003aec <HAL_RCC_OscConfig+0x88>
          if ((HAL_GetTick() - tickstart) > RCC_LSE_TIMEOUT_VALUE)
 8003d4c:	f7fe ff7e 	bl	8002c4c <HAL_GetTick>
 8003d50:	4b0d      	ldr	r3, [pc, #52]	@ (8003d88 <HAL_RCC_OscConfig+0x324>)
 8003d52:	1b80      	subs	r0, r0, r6
 8003d54:	4298      	cmp	r0, r3
 8003d56:	d9bd      	bls.n	8003cd4 <HAL_RCC_OscConfig+0x270>
 8003d58:	e6c8      	b.n	8003aec <HAL_RCC_OscConfig+0x88>
 8003d5a:	46c0      	nop			@ (mov r8, r8)
 8003d5c:	40021000 	.word	0x40021000
 8003d60:	fffeffff 	.word	0xfffeffff
 8003d64:	fffbffff 	.word	0xfffbffff
 8003d68:	ffff80ff 	.word	0xffff80ff
 8003d6c:	ffffc7ff 	.word	0xffffc7ff
 8003d70:	20000000 	.word	0x20000000
 8003d74:	00f42400 	.word	0x00f42400
 8003d78:	20000008 	.word	0x20000008
 8003d7c:	fffffeff 	.word	0xfffffeff
 8003d80:	40007000 	.word	0x40007000
 8003d84:	efffffff 	.word	0xefffffff
 8003d88:	00001388 	.word	0x00001388
    if (__HAL_RCC_GET_SYSCLK_SOURCE() != RCC_SYSCLKSOURCE_STATUS_PLLCLK)
 8003d8c:	2138      	movs	r1, #56	@ 0x38
 8003d8e:	4d43      	ldr	r5, [pc, #268]	@ (8003e9c <HAL_RCC_OscConfig+0x438>)
 8003d90:	68aa      	ldr	r2, [r5, #8]
 8003d92:	400a      	ands	r2, r1
 8003d94:	2a10      	cmp	r2, #16
 8003d96:	d053      	beq.n	8003e40 <HAL_RCC_OscConfig+0x3dc>
      if (RCC_OscInitStruct->PLL.PLLState == RCC_PLL_ON)
 8003d98:	4a41      	ldr	r2, [pc, #260]	@ (8003ea0 <HAL_RCC_OscConfig+0x43c>)
 8003d9a:	2b02      	cmp	r3, #2
 8003d9c:	d13a      	bne.n	8003e14 <HAL_RCC_OscConfig+0x3b0>
        __HAL_RCC_PLL_DISABLE();
 8003d9e:	682b      	ldr	r3, [r5, #0]
        while (READ_BIT(RCC->CR, RCC_CR_PLLRDY) != 0U)
 8003da0:	2780      	movs	r7, #128	@ 0x80
        __HAL_RCC_PLL_DISABLE();
 8003da2:	4013      	ands	r3, r2
 8003da4:	602b      	str	r3, [r5, #0]
        tickstart = HAL_GetTick();
 8003da6:	f7fe ff51 	bl	8002c4c <HAL_GetTick>
 8003daa:	0006      	movs	r6, r0
        while (READ_BIT(RCC->CR, RCC_CR_PLLRDY) != 0U)
 8003dac:	04bf      	lsls	r7, r7, #18
 8003dae:	682b      	ldr	r3, [r5, #0]
 8003db0:	423b      	tst	r3, r7
 8003db2:	d129      	bne.n	8003e08 <HAL_RCC_OscConfig+0x3a4>
        __HAL_RCC_PLL_CONFIG(RCC_OscInitStruct->PLL.PLLSource,
 8003db4:	6a61      	ldr	r1, [r4, #36]	@ 0x24
 8003db6:	6a23      	ldr	r3, [r4, #32]
 8003db8:	68ea      	ldr	r2, [r5, #12]
 8003dba:	430b      	orrs	r3, r1
 8003dbc:	4939      	ldr	r1, [pc, #228]	@ (8003ea4 <HAL_RCC_OscConfig+0x440>)
        while (READ_BIT(RCC->CR, RCC_CR_PLLRDY) == 0U)
 8003dbe:	2680      	movs	r6, #128	@ 0x80
        __HAL_RCC_PLL_CONFIG(RCC_OscInitStruct->PLL.PLLSource,
 8003dc0:	400a      	ands	r2, r1
 8003dc2:	4313      	orrs	r3, r2
 8003dc4:	6ae2      	ldr	r2, [r4, #44]	@ 0x2c
        while (READ_BIT(RCC->CR, RCC_CR_PLLRDY) == 0U)
 8003dc6:	04b6      	lsls	r6, r6, #18
        __HAL_RCC_PLL_CONFIG(RCC_OscInitStruct->PLL.PLLSource,
 8003dc8:	4313      	orrs	r3, r2
 8003dca:	6b22      	ldr	r2, [r4, #48]	@ 0x30
 8003dcc:	4313      	orrs	r3, r2
 8003dce:	6b62      	ldr	r2, [r4, #52]	@ 0x34
 8003dd0:	4313      	orrs	r3, r2
 8003dd2:	6aa2      	ldr	r2, [r4, #40]	@ 0x28
 8003dd4:	0212      	lsls	r2, r2, #8
 8003dd6:	4313      	orrs	r3, r2
 8003dd8:	60eb      	str	r3, [r5, #12]
        __HAL_RCC_PLL_ENABLE();
 8003dda:	2380      	movs	r3, #128	@ 0x80
 8003ddc:	682a      	ldr	r2, [r5, #0]
 8003dde:	045b      	lsls	r3, r3, #17
 8003de0:	4313      	orrs	r3, r2
 8003de2:	602b      	str	r3, [r5, #0]
        __HAL_RCC_PLLCLKOUT_ENABLE(RCC_PLLRCLK);
 8003de4:	2380      	movs	r3, #128	@ 0x80
 8003de6:	68ea      	ldr	r2, [r5, #12]
 8003de8:	055b      	lsls	r3, r3, #21
 8003dea:	4313      	orrs	r3, r2
 8003dec:	60eb      	str	r3, [r5, #12]
        tickstart = HAL_GetTick();
 8003dee:	f7fe ff2d 	bl	8002c4c <HAL_GetTick>
 8003df2:	0004      	movs	r4, r0
        while (READ_BIT(RCC->CR, RCC_CR_PLLRDY) == 0U)
 8003df4:	682b      	ldr	r3, [r5, #0]
 8003df6:	4233      	tst	r3, r6
 8003df8:	d000      	beq.n	8003dfc <HAL_RCC_OscConfig+0x398>
 8003dfa:	e64d      	b.n	8003a98 <HAL_RCC_OscConfig+0x34>
          if ((HAL_GetTick() - tickstart) > PLL_TIMEOUT_VALUE)
 8003dfc:	f7fe ff26 	bl	8002c4c <HAL_GetTick>
 8003e00:	1b00      	subs	r0, r0, r4
 8003e02:	2802      	cmp	r0, #2
 8003e04:	d9f6      	bls.n	8003df4 <HAL_RCC_OscConfig+0x390>
 8003e06:	e671      	b.n	8003aec <HAL_RCC_OscConfig+0x88>
          if ((HAL_GetTick() - tickstart) > PLL_TIMEOUT_VALUE)
 8003e08:	f7fe ff20 	bl	8002c4c <HAL_GetTick>
 8003e0c:	1b80      	subs	r0, r0, r6
 8003e0e:	2802      	cmp	r0, #2
 8003e10:	d9cd      	bls.n	8003dae <HAL_RCC_OscConfig+0x34a>
 8003e12:	e66b      	b.n	8003aec <HAL_RCC_OscConfig+0x88>
        __HAL_RCC_PLL_DISABLE();
 8003e14:	682b      	ldr	r3, [r5, #0]
        while (READ_BIT(RCC->CR, RCC_CR_PLLRDY) != 0U)
 8003e16:	2680      	movs	r6, #128	@ 0x80
        __HAL_RCC_PLL_DISABLE();
 8003e18:	4013      	ands	r3, r2
 8003e1a:	602b      	str	r3, [r5, #0]
        tickstart = HAL_GetTick();
 8003e1c:	f7fe ff16 	bl	8002c4c <HAL_GetTick>
 8003e20:	0004      	movs	r4, r0
        while (READ_BIT(RCC->CR, RCC_CR_PLLRDY) != 0U)
 8003e22:	04b6      	lsls	r6, r6, #18
 8003e24:	682b      	ldr	r3, [r5, #0]
 8003e26:	4233      	tst	r3, r6
 8003e28:	d104      	bne.n	8003e34 <HAL_RCC_OscConfig+0x3d0>
        RCC->PLLCFGR &= ~(RCC_PLLCFGR_PLLSRC | RCC_PLLCFGR_PLLPEN | RCC_PLLCFGR_PLLQEN | RCC_PLLCFGR_PLLREN);
 8003e2a:	68eb      	ldr	r3, [r5, #12]
 8003e2c:	4a1e      	ldr	r2, [pc, #120]	@ (8003ea8 <HAL_RCC_OscConfig+0x444>)
 8003e2e:	4013      	ands	r3, r2
 8003e30:	60eb      	str	r3, [r5, #12]
 8003e32:	e631      	b.n	8003a98 <HAL_RCC_OscConfig+0x34>
          if ((HAL_GetTick() - tickstart) > PLL_TIMEOUT_VALUE)
 8003e34:	f7fe ff0a 	bl	8002c4c <HAL_GetTick>
 8003e38:	1b00      	subs	r0, r0, r4
 8003e3a:	2802      	cmp	r0, #2
 8003e3c:	d9f2      	bls.n	8003e24 <HAL_RCC_OscConfig+0x3c0>
 8003e3e:	e655      	b.n	8003aec <HAL_RCC_OscConfig+0x88>
      if ((RCC_OscInitStruct->PLL.PLLState) == RCC_PLL_OFF)
 8003e40:	2b01      	cmp	r3, #1
 8003e42:	d100      	bne.n	8003e46 <HAL_RCC_OscConfig+0x3e2>
 8003e44:	e613      	b.n	8003a6e <HAL_RCC_OscConfig+0xa>
        if ((READ_BIT(temp_pllckcfg, RCC_PLLCFGR_PLLSRC) != RCC_OscInitStruct->PLL.PLLSource) ||
 8003e46:	2203      	movs	r2, #3
        temp_pllckcfg = RCC->PLLCFGR;
 8003e48:	68e8      	ldr	r0, [r5, #12]
        if ((READ_BIT(temp_pllckcfg, RCC_PLLCFGR_PLLSRC) != RCC_OscInitStruct->PLL.PLLSource) ||
 8003e4a:	6a21      	ldr	r1, [r4, #32]
 8003e4c:	4002      	ands	r2, r0
 8003e4e:	428a      	cmp	r2, r1
 8003e50:	d000      	beq.n	8003e54 <HAL_RCC_OscConfig+0x3f0>
 8003e52:	e60c      	b.n	8003a6e <HAL_RCC_OscConfig+0xa>
            (READ_BIT(temp_pllckcfg, RCC_PLLCFGR_PLLM) != RCC_OscInitStruct->PLL.PLLM) ||
 8003e54:	2270      	movs	r2, #112	@ 0x70
        if ((READ_BIT(temp_pllckcfg, RCC_PLLCFGR_PLLSRC) != RCC_OscInitStruct->PLL.PLLSource) ||
 8003e56:	6a61      	ldr	r1, [r4, #36]	@ 0x24
            (READ_BIT(temp_pllckcfg, RCC_PLLCFGR_PLLM) != RCC_OscInitStruct->PLL.PLLM) ||
 8003e58:	4002      	ands	r2, r0
        if ((READ_BIT(temp_pllckcfg, RCC_PLLCFGR_PLLSRC) != RCC_OscInitStruct->PLL.PLLSource) ||
 8003e5a:	428a      	cmp	r2, r1
 8003e5c:	d000      	beq.n	8003e60 <HAL_RCC_OscConfig+0x3fc>
 8003e5e:	e606      	b.n	8003a6e <HAL_RCC_OscConfig+0xa>
            (READ_BIT(temp_pllckcfg, RCC_PLLCFGR_PLLN) != (RCC_OscInitStruct->PLL.PLLN << RCC_PLLCFGR_PLLN_Pos)) ||
 8003e60:	21fe      	movs	r1, #254	@ 0xfe
 8003e62:	6aa2      	ldr	r2, [r4, #40]	@ 0x28
 8003e64:	01c9      	lsls	r1, r1, #7
 8003e66:	4001      	ands	r1, r0
 8003e68:	0212      	lsls	r2, r2, #8
            (READ_BIT(temp_pllckcfg, RCC_PLLCFGR_PLLM) != RCC_OscInitStruct->PLL.PLLM) ||
 8003e6a:	4291      	cmp	r1, r2
 8003e6c:	d000      	beq.n	8003e70 <HAL_RCC_OscConfig+0x40c>
 8003e6e:	e5fe      	b.n	8003a6e <HAL_RCC_OscConfig+0xa>
            (READ_BIT(temp_pllckcfg, RCC_PLLCFGR_PLLP) != RCC_OscInitStruct->PLL.PLLP) ||
 8003e70:	22f8      	movs	r2, #248	@ 0xf8
            (READ_BIT(temp_pllckcfg, RCC_PLLCFGR_PLLN) != (RCC_OscInitStruct->PLL.PLLN << RCC_PLLCFGR_PLLN_Pos)) ||
 8003e72:	6ae1      	ldr	r1, [r4, #44]	@ 0x2c
            (READ_BIT(temp_pllckcfg, RCC_PLLCFGR_PLLP) != RCC_OscInitStruct->PLL.PLLP) ||
 8003e74:	0392      	lsls	r2, r2, #14
 8003e76:	4002      	ands	r2, r0
            (READ_BIT(temp_pllckcfg, RCC_PLLCFGR_PLLN) != (RCC_OscInitStruct->PLL.PLLN << RCC_PLLCFGR_PLLN_Pos)) ||
 8003e78:	428a      	cmp	r2, r1
 8003e7a:	d000      	beq.n	8003e7e <HAL_RCC_OscConfig+0x41a>
 8003e7c:	e5f7      	b.n	8003a6e <HAL_RCC_OscConfig+0xa>
            (READ_BIT(temp_pllckcfg, RCC_PLLCFGR_PLLQ) != RCC_OscInitStruct->PLL.PLLQ) ||
 8003e7e:	22e0      	movs	r2, #224	@ 0xe0
            (READ_BIT(temp_pllckcfg, RCC_PLLCFGR_PLLP) != RCC_OscInitStruct->PLL.PLLP) ||
 8003e80:	6b21      	ldr	r1, [r4, #48]	@ 0x30
            (READ_BIT(temp_pllckcfg, RCC_PLLCFGR_PLLQ) != RCC_OscInitStruct->PLL.PLLQ) ||
 8003e82:	0512      	lsls	r2, r2, #20
 8003e84:	4002      	ands	r2, r0
            (READ_BIT(temp_pllckcfg, RCC_PLLCFGR_PLLP) != RCC_OscInitStruct->PLL.PLLP) ||
 8003e86:	428a      	cmp	r2, r1
 8003e88:	d000      	beq.n	8003e8c <HAL_RCC_OscConfig+0x428>
 8003e8a:	e5f0      	b.n	8003a6e <HAL_RCC_OscConfig+0xa>
            (READ_BIT(temp_pllckcfg, RCC_PLLCFGR_PLLQ) != RCC_OscInitStruct->PLL.PLLQ) ||
 8003e8c:	6b63      	ldr	r3, [r4, #52]	@ 0x34
            (READ_BIT(temp_pllckcfg, RCC_PLLCFGR_PLLR) != RCC_OscInitStruct->PLL.PLLR))
 8003e8e:	0f40      	lsrs	r0, r0, #29
 8003e90:	0740      	lsls	r0, r0, #29
            (READ_BIT(temp_pllckcfg, RCC_PLLCFGR_PLLQ) != RCC_OscInitStruct->PLL.PLLQ) ||
 8003e92:	1ac0      	subs	r0, r0, r3
 8003e94:	1e43      	subs	r3, r0, #1
 8003e96:	4198      	sbcs	r0, r3
 8003e98:	b2c0      	uxtb	r0, r0
 8003e9a:	e5e9      	b.n	8003a70 <HAL_RCC_OscConfig+0xc>
 8003e9c:	40021000 	.word	0x40021000
 8003ea0:	feffffff 	.word	0xfeffffff
 8003ea4:	11c1808c 	.word	0x11c1808c
 8003ea8:	eefefffc 	.word	0xeefefffc

08003eac <HAL_RCC_GetSysClockFreq>:
uint32_t HAL_RCC_GetSysClockFreq(void)
{
  uint32_t pllvco, pllsource, pllr, pllm, hsidiv;
  uint32_t sysclockfreq;

  if (__HAL_RCC_GET_SYSCLK_SOURCE() == RCC_SYSCLKSOURCE_STATUS_HSI)
 8003eac:	2338      	movs	r3, #56	@ 0x38
{
 8003eae:	b570      	push	{r4, r5, r6, lr}
  if (__HAL_RCC_GET_SYSCLK_SOURCE() == RCC_SYSCLKSOURCE_STATUS_HSI)
 8003eb0:	4c1d      	ldr	r4, [pc, #116]	@ (8003f28 <HAL_RCC_GetSysClockFreq+0x7c>)
 8003eb2:	68a2      	ldr	r2, [r4, #8]
 8003eb4:	421a      	tst	r2, r3
 8003eb6:	d105      	bne.n	8003ec4 <HAL_RCC_GetSysClockFreq+0x18>
  {
    /* HSISYS can be derived for HSI16 */
    hsidiv = (1UL << ((READ_BIT(RCC->CR, RCC_CR_HSIDIV)) >> RCC_CR_HSIDIV_Pos));
 8003eb8:	6823      	ldr	r3, [r4, #0]

    /* HSI used as system clock source */
    sysclockfreq = (HSI_VALUE / hsidiv);
 8003eba:	481c      	ldr	r0, [pc, #112]	@ (8003f2c <HAL_RCC_GetSysClockFreq+0x80>)
    hsidiv = (1UL << ((READ_BIT(RCC->CR, RCC_CR_HSIDIV)) >> RCC_CR_HSIDIV_Pos));
 8003ebc:	049b      	lsls	r3, r3, #18
 8003ebe:	0f5b      	lsrs	r3, r3, #29
    sysclockfreq = (HSI_VALUE / hsidiv);
 8003ec0:	40d8      	lsrs	r0, r3
  {
    sysclockfreq = 0U;
  }

  return sysclockfreq;
}
 8003ec2:	bd70      	pop	{r4, r5, r6, pc}
  else if (__HAL_RCC_GET_SYSCLK_SOURCE() == RCC_SYSCLKSOURCE_STATUS_HSE)
 8003ec4:	68a2      	ldr	r2, [r4, #8]
 8003ec6:	401a      	ands	r2, r3
 8003ec8:	2a08      	cmp	r2, #8
 8003eca:	d027      	beq.n	8003f1c <HAL_RCC_GetSysClockFreq+0x70>
  else if (__HAL_RCC_GET_SYSCLK_SOURCE() == RCC_SYSCLKSOURCE_STATUS_PLLCLK)
 8003ecc:	68a2      	ldr	r2, [r4, #8]
 8003ece:	401a      	ands	r2, r3
 8003ed0:	2a10      	cmp	r2, #16
 8003ed2:	d117      	bne.n	8003f04 <HAL_RCC_GetSysClockFreq+0x58>
    pllsource = (RCC->PLLCFGR & RCC_PLLCFGR_PLLSRC);
 8003ed4:	68e3      	ldr	r3, [r4, #12]
    pllm = ((RCC->PLLCFGR & RCC_PLLCFGR_PLLM) >> RCC_PLLCFGR_PLLM_Pos) + 1U ;
 8003ed6:	68e1      	ldr	r1, [r4, #12]
    pllsource = (RCC->PLLCFGR & RCC_PLLCFGR_PLLSRC);
 8003ed8:	43db      	mvns	r3, r3
        pllvco = (HSI_VALUE / pllm) * ((RCC->PLLCFGR & RCC_PLLCFGR_PLLN) >> RCC_PLLCFGR_PLLN_Pos) ;
 8003eda:	68e5      	ldr	r5, [r4, #12]
    pllm = ((RCC->PLLCFGR & RCC_PLLCFGR_PLLM) >> RCC_PLLCFGR_PLLM_Pos) + 1U ;
 8003edc:	0649      	lsls	r1, r1, #25
 8003ede:	0f49      	lsrs	r1, r1, #29
 8003ee0:	326f      	adds	r2, #111	@ 0x6f
        pllvco = (HSI_VALUE / pllm) * ((RCC->PLLCFGR & RCC_PLLCFGR_PLLN) >> RCC_PLLCFGR_PLLN_Pos) ;
 8003ee2:	0a2d      	lsrs	r5, r5, #8
    pllm = ((RCC->PLLCFGR & RCC_PLLCFGR_PLLM) >> RCC_PLLCFGR_PLLM_Pos) + 1U ;
 8003ee4:	3101      	adds	r1, #1
        pllvco = (HSI_VALUE / pllm) * ((RCC->PLLCFGR & RCC_PLLCFGR_PLLN) >> RCC_PLLCFGR_PLLN_Pos) ;
 8003ee6:	4015      	ands	r5, r2
    switch (pllsource)
 8003ee8:	079b      	lsls	r3, r3, #30
 8003eea:	d109      	bne.n	8003f00 <HAL_RCC_GetSysClockFreq+0x54>
        pllvco = (HSE_VALUE / pllm) * ((RCC->PLLCFGR & RCC_PLLCFGR_PLLN) >> RCC_PLLCFGR_PLLN_Pos);
 8003eec:	4810      	ldr	r0, [pc, #64]	@ (8003f30 <HAL_RCC_GetSysClockFreq+0x84>)
        pllvco = (HSI_VALUE / pllm) * ((RCC->PLLCFGR & RCC_PLLCFGR_PLLN) >> RCC_PLLCFGR_PLLN_Pos) ;
 8003eee:	f7fc f93b 	bl	8000168 <__udivsi3>
    pllr = (((RCC->PLLCFGR & RCC_PLLCFGR_PLLR) >> RCC_PLLCFGR_PLLR_Pos) + 1U);
 8003ef2:	68e1      	ldr	r1, [r4, #12]
        pllvco = (HSI_VALUE / pllm) * ((RCC->PLLCFGR & RCC_PLLCFGR_PLLN) >> RCC_PLLCFGR_PLLN_Pos) ;
 8003ef4:	4368      	muls	r0, r5
    pllr = (((RCC->PLLCFGR & RCC_PLLCFGR_PLLR) >> RCC_PLLCFGR_PLLR_Pos) + 1U);
 8003ef6:	0f49      	lsrs	r1, r1, #29
 8003ef8:	3101      	adds	r1, #1
    sysclockfreq = pllvco / pllr;
 8003efa:	f7fc f935 	bl	8000168 <__udivsi3>
 8003efe:	e7e0      	b.n	8003ec2 <HAL_RCC_GetSysClockFreq+0x16>
        pllvco = (HSI_VALUE / pllm) * ((RCC->PLLCFGR & RCC_PLLCFGR_PLLN) >> RCC_PLLCFGR_PLLN_Pos) ;
 8003f00:	480a      	ldr	r0, [pc, #40]	@ (8003f2c <HAL_RCC_GetSysClockFreq+0x80>)
 8003f02:	e7f4      	b.n	8003eee <HAL_RCC_GetSysClockFreq+0x42>
  else if (__HAL_RCC_GET_SYSCLK_SOURCE() == RCC_SYSCLKSOURCE_STATUS_LSE)
 8003f04:	68a2      	ldr	r2, [r4, #8]
 8003f06:	401a      	ands	r2, r3
 8003f08:	2a20      	cmp	r2, #32
 8003f0a:	d009      	beq.n	8003f20 <HAL_RCC_GetSysClockFreq+0x74>
  else if (__HAL_RCC_GET_SYSCLK_SOURCE() == RCC_SYSCLKSOURCE_STATUS_LSI)
 8003f0c:	68a2      	ldr	r2, [r4, #8]
    sysclockfreq = 0U;
 8003f0e:	2000      	movs	r0, #0
  else if (__HAL_RCC_GET_SYSCLK_SOURCE() == RCC_SYSCLKSOURCE_STATUS_LSI)
 8003f10:	4013      	ands	r3, r2
 8003f12:	2b18      	cmp	r3, #24
 8003f14:	d1d5      	bne.n	8003ec2 <HAL_RCC_GetSysClockFreq+0x16>
    sysclockfreq = LSI_VALUE;
 8003f16:	20fa      	movs	r0, #250	@ 0xfa
 8003f18:	01c0      	lsls	r0, r0, #7
 8003f1a:	e7d2      	b.n	8003ec2 <HAL_RCC_GetSysClockFreq+0x16>
    sysclockfreq = HSE_VALUE;
 8003f1c:	4804      	ldr	r0, [pc, #16]	@ (8003f30 <HAL_RCC_GetSysClockFreq+0x84>)
 8003f1e:	e7d0      	b.n	8003ec2 <HAL_RCC_GetSysClockFreq+0x16>
    sysclockfreq = LSE_VALUE;
 8003f20:	2080      	movs	r0, #128	@ 0x80
 8003f22:	0200      	lsls	r0, r0, #8
 8003f24:	e7cd      	b.n	8003ec2 <HAL_RCC_GetSysClockFreq+0x16>
 8003f26:	46c0      	nop			@ (mov r8, r8)
 8003f28:	40021000 	.word	0x40021000
 8003f2c:	00f42400 	.word	0x00f42400
 8003f30:	007a1200 	.word	0x007a1200

08003f34 <HAL_RCC_ClockConfig>:
{
 8003f34:	b5f7      	push	{r0, r1, r2, r4, r5, r6, r7, lr}
 8003f36:	0004      	movs	r4, r0
 8003f38:	000d      	movs	r5, r1
  if (RCC_ClkInitStruct == NULL)
 8003f3a:	2800      	cmp	r0, #0
 8003f3c:	d101      	bne.n	8003f42 <HAL_RCC_ClockConfig+0xe>
    return HAL_ERROR;
 8003f3e:	2001      	movs	r0, #1
}
 8003f40:	bdfe      	pop	{r1, r2, r3, r4, r5, r6, r7, pc}
  if (FLatency > __HAL_FLASH_GET_LATENCY())
 8003f42:	2707      	movs	r7, #7
 8003f44:	4e48      	ldr	r6, [pc, #288]	@ (8004068 <HAL_RCC_ClockConfig+0x134>)
 8003f46:	6833      	ldr	r3, [r6, #0]
 8003f48:	403b      	ands	r3, r7
 8003f4a:	428b      	cmp	r3, r1
 8003f4c:	d32a      	bcc.n	8003fa4 <HAL_RCC_ClockConfig+0x70>
  if (((RCC_ClkInitStruct->ClockType) & RCC_CLOCKTYPE_HCLK) == RCC_CLOCKTYPE_HCLK)
 8003f4e:	6822      	ldr	r2, [r4, #0]
 8003f50:	0793      	lsls	r3, r2, #30
 8003f52:	d43b      	bmi.n	8003fcc <HAL_RCC_ClockConfig+0x98>
  if (((RCC_ClkInitStruct->ClockType) & RCC_CLOCKTYPE_SYSCLK) == RCC_CLOCKTYPE_SYSCLK)
 8003f54:	07d2      	lsls	r2, r2, #31
 8003f56:	d448      	bmi.n	8003fea <HAL_RCC_ClockConfig+0xb6>
  if (FLatency < __HAL_FLASH_GET_LATENCY())
 8003f58:	2707      	movs	r7, #7
 8003f5a:	6833      	ldr	r3, [r6, #0]
 8003f5c:	403b      	ands	r3, r7
 8003f5e:	42ab      	cmp	r3, r5
 8003f60:	d90a      	bls.n	8003f78 <HAL_RCC_ClockConfig+0x44>
    __HAL_FLASH_SET_LATENCY(FLatency);
 8003f62:	6833      	ldr	r3, [r6, #0]
 8003f64:	43bb      	bics	r3, r7
 8003f66:	432b      	orrs	r3, r5
 8003f68:	6033      	str	r3, [r6, #0]
    tickstart = HAL_GetTick();
 8003f6a:	f7fe fe6f 	bl	8002c4c <HAL_GetTick>
 8003f6e:	9001      	str	r0, [sp, #4]
    while ((FLASH->ACR & FLASH_ACR_LATENCY) != FLatency)
 8003f70:	6833      	ldr	r3, [r6, #0]
 8003f72:	403b      	ands	r3, r7
 8003f74:	42ab      	cmp	r3, r5
 8003f76:	d168      	bne.n	800404a <HAL_RCC_ClockConfig+0x116>
  if (((RCC_ClkInitStruct->ClockType) & RCC_CLOCKTYPE_PCLK1) == RCC_CLOCKTYPE_PCLK1)
 8003f78:	6823      	ldr	r3, [r4, #0]
 8003f7a:	4d3c      	ldr	r5, [pc, #240]	@ (800406c <HAL_RCC_ClockConfig+0x138>)
 8003f7c:	075b      	lsls	r3, r3, #29
 8003f7e:	d46c      	bmi.n	800405a <HAL_RCC_ClockConfig+0x126>
  SystemCoreClock = (HAL_RCC_GetSysClockFreq() >> ((AHBPrescTable[(RCC->CFGR & RCC_CFGR_HPRE) >> RCC_CFGR_HPRE_Pos]) & 0x1FU));
 8003f80:	f7ff ff94 	bl	8003eac <HAL_RCC_GetSysClockFreq>
 8003f84:	68ab      	ldr	r3, [r5, #8]
 8003f86:	493a      	ldr	r1, [pc, #232]	@ (8004070 <HAL_RCC_ClockConfig+0x13c>)
 8003f88:	051b      	lsls	r3, r3, #20
 8003f8a:	0f1b      	lsrs	r3, r3, #28
 8003f8c:	009b      	lsls	r3, r3, #2
 8003f8e:	585b      	ldr	r3, [r3, r1]
 8003f90:	211f      	movs	r1, #31
 8003f92:	400b      	ands	r3, r1
 8003f94:	40d8      	lsrs	r0, r3
 8003f96:	4a37      	ldr	r2, [pc, #220]	@ (8004074 <HAL_RCC_ClockConfig+0x140>)
  return HAL_InitTick(uwTickPrio);
 8003f98:	4b37      	ldr	r3, [pc, #220]	@ (8004078 <HAL_RCC_ClockConfig+0x144>)
  SystemCoreClock = (HAL_RCC_GetSysClockFreq() >> ((AHBPrescTable[(RCC->CFGR & RCC_CFGR_HPRE) >> RCC_CFGR_HPRE_Pos]) & 0x1FU));
 8003f9a:	6010      	str	r0, [r2, #0]
  return HAL_InitTick(uwTickPrio);
 8003f9c:	6818      	ldr	r0, [r3, #0]
 8003f9e:	f7fe fe0d 	bl	8002bbc <HAL_InitTick>
 8003fa2:	e7cd      	b.n	8003f40 <HAL_RCC_ClockConfig+0xc>
    __HAL_FLASH_SET_LATENCY(FLatency);
 8003fa4:	6833      	ldr	r3, [r6, #0]
 8003fa6:	43bb      	bics	r3, r7
 8003fa8:	430b      	orrs	r3, r1
 8003faa:	6033      	str	r3, [r6, #0]
    tickstart = HAL_GetTick();
 8003fac:	f7fe fe4e 	bl	8002c4c <HAL_GetTick>
 8003fb0:	9001      	str	r0, [sp, #4]
    while ((FLASH->ACR & FLASH_ACR_LATENCY) != FLatency)
 8003fb2:	6833      	ldr	r3, [r6, #0]
 8003fb4:	403b      	ands	r3, r7
 8003fb6:	42ab      	cmp	r3, r5
 8003fb8:	d0c9      	beq.n	8003f4e <HAL_RCC_ClockConfig+0x1a>
      if ((HAL_GetTick() - tickstart) > CLOCKSWITCH_TIMEOUT_VALUE)
 8003fba:	f7fe fe47 	bl	8002c4c <HAL_GetTick>
 8003fbe:	9b01      	ldr	r3, [sp, #4]
 8003fc0:	1ac0      	subs	r0, r0, r3
 8003fc2:	4b2e      	ldr	r3, [pc, #184]	@ (800407c <HAL_RCC_ClockConfig+0x148>)
 8003fc4:	4298      	cmp	r0, r3
 8003fc6:	d9f4      	bls.n	8003fb2 <HAL_RCC_ClockConfig+0x7e>
        return HAL_TIMEOUT;
 8003fc8:	2003      	movs	r0, #3
 8003fca:	e7b9      	b.n	8003f40 <HAL_RCC_ClockConfig+0xc>
    if (((RCC_ClkInitStruct->ClockType) & RCC_CLOCKTYPE_PCLK1) == RCC_CLOCKTYPE_PCLK1)
 8003fcc:	4927      	ldr	r1, [pc, #156]	@ (800406c <HAL_RCC_ClockConfig+0x138>)
 8003fce:	0753      	lsls	r3, r2, #29
 8003fd0:	d504      	bpl.n	8003fdc <HAL_RCC_ClockConfig+0xa8>
      MODIFY_REG(RCC->CFGR, RCC_CFGR_PPRE, RCC_HCLK_DIV16);
 8003fd2:	23e0      	movs	r3, #224	@ 0xe0
 8003fd4:	6888      	ldr	r0, [r1, #8]
 8003fd6:	01db      	lsls	r3, r3, #7
 8003fd8:	4303      	orrs	r3, r0
 8003fda:	608b      	str	r3, [r1, #8]
    MODIFY_REG(RCC->CFGR, RCC_CFGR_HPRE, RCC_ClkInitStruct->AHBCLKDivider);
 8003fdc:	688b      	ldr	r3, [r1, #8]
 8003fde:	4828      	ldr	r0, [pc, #160]	@ (8004080 <HAL_RCC_ClockConfig+0x14c>)
 8003fe0:	4003      	ands	r3, r0
 8003fe2:	68a0      	ldr	r0, [r4, #8]
 8003fe4:	4303      	orrs	r3, r0
 8003fe6:	608b      	str	r3, [r1, #8]
 8003fe8:	e7b4      	b.n	8003f54 <HAL_RCC_ClockConfig+0x20>
    if (RCC_ClkInitStruct->SYSCLKSource == RCC_SYSCLKSOURCE_HSE)
 8003fea:	6860      	ldr	r0, [r4, #4]
 8003fec:	4f1f      	ldr	r7, [pc, #124]	@ (800406c <HAL_RCC_ClockConfig+0x138>)
 8003fee:	2803      	cmp	r0, #3
 8003ff0:	d829      	bhi.n	8004046 <HAL_RCC_ClockConfig+0x112>
 8003ff2:	f7fc f89b 	bl	800012c <__gnu_thumb1_case_uqi>
 8003ff6:	0220      	.short	0x0220
 8003ff8:	241c      	.short	0x241c
      if (READ_BIT(RCC->CR, RCC_CR_HSERDY) == 0U)
 8003ffa:	683b      	ldr	r3, [r7, #0]
 8003ffc:	039b      	lsls	r3, r3, #14
 8003ffe:	d59e      	bpl.n	8003f3e <HAL_RCC_ClockConfig+0xa>
    MODIFY_REG(RCC->CFGR, RCC_CFGR_SW, RCC_ClkInitStruct->SYSCLKSource);
 8004000:	2207      	movs	r2, #7
 8004002:	68bb      	ldr	r3, [r7, #8]
 8004004:	4393      	bics	r3, r2
 8004006:	4303      	orrs	r3, r0
 8004008:	60bb      	str	r3, [r7, #8]
    tickstart = HAL_GetTick();
 800400a:	f7fe fe1f 	bl	8002c4c <HAL_GetTick>
 800400e:	9001      	str	r0, [sp, #4]
    while (__HAL_RCC_GET_SYSCLK_SOURCE() != (RCC_ClkInitStruct->SYSCLKSource << RCC_CFGR_SWS_Pos))
 8004010:	2338      	movs	r3, #56	@ 0x38
 8004012:	68ba      	ldr	r2, [r7, #8]
 8004014:	401a      	ands	r2, r3
 8004016:	6863      	ldr	r3, [r4, #4]
 8004018:	00db      	lsls	r3, r3, #3
 800401a:	429a      	cmp	r2, r3
 800401c:	d09c      	beq.n	8003f58 <HAL_RCC_ClockConfig+0x24>
      if ((HAL_GetTick() - tickstart) > CLOCKSWITCH_TIMEOUT_VALUE)
 800401e:	f7fe fe15 	bl	8002c4c <HAL_GetTick>
 8004022:	9b01      	ldr	r3, [sp, #4]
 8004024:	1ac0      	subs	r0, r0, r3
 8004026:	4b15      	ldr	r3, [pc, #84]	@ (800407c <HAL_RCC_ClockConfig+0x148>)
 8004028:	4298      	cmp	r0, r3
 800402a:	d9f1      	bls.n	8004010 <HAL_RCC_ClockConfig+0xdc>
 800402c:	e7cc      	b.n	8003fc8 <HAL_RCC_ClockConfig+0x94>
      if (READ_BIT(RCC->CR, RCC_CR_PLLRDY) == 0U)
 800402e:	683b      	ldr	r3, [r7, #0]
 8004030:	019b      	lsls	r3, r3, #6
 8004032:	d4e5      	bmi.n	8004000 <HAL_RCC_ClockConfig+0xcc>
 8004034:	e783      	b.n	8003f3e <HAL_RCC_ClockConfig+0xa>
      if (READ_BIT(RCC->CR, RCC_CR_HSIRDY) == 0U)
 8004036:	683b      	ldr	r3, [r7, #0]
 8004038:	055b      	lsls	r3, r3, #21
 800403a:	d4e1      	bmi.n	8004000 <HAL_RCC_ClockConfig+0xcc>
 800403c:	e77f      	b.n	8003f3e <HAL_RCC_ClockConfig+0xa>
      if (READ_BIT(RCC->CSR, RCC_CSR_LSIRDY) == 0U)
 800403e:	6e3b      	ldr	r3, [r7, #96]	@ 0x60
      if (READ_BIT(RCC->BDCR, RCC_BDCR_LSERDY) == 0U)
 8004040:	079b      	lsls	r3, r3, #30
 8004042:	d4dd      	bmi.n	8004000 <HAL_RCC_ClockConfig+0xcc>
 8004044:	e77b      	b.n	8003f3e <HAL_RCC_ClockConfig+0xa>
 8004046:	6dfb      	ldr	r3, [r7, #92]	@ 0x5c
 8004048:	e7fa      	b.n	8004040 <HAL_RCC_ClockConfig+0x10c>
      if ((HAL_GetTick() - tickstart) > CLOCKSWITCH_TIMEOUT_VALUE)
 800404a:	f7fe fdff 	bl	8002c4c <HAL_GetTick>
 800404e:	9b01      	ldr	r3, [sp, #4]
 8004050:	1ac0      	subs	r0, r0, r3
 8004052:	4b0a      	ldr	r3, [pc, #40]	@ (800407c <HAL_RCC_ClockConfig+0x148>)
 8004054:	4298      	cmp	r0, r3
 8004056:	d98b      	bls.n	8003f70 <HAL_RCC_ClockConfig+0x3c>
 8004058:	e7b6      	b.n	8003fc8 <HAL_RCC_ClockConfig+0x94>
    MODIFY_REG(RCC->CFGR, RCC_CFGR_PPRE, RCC_ClkInitStruct->APB1CLKDivider);
 800405a:	68ab      	ldr	r3, [r5, #8]
 800405c:	4a09      	ldr	r2, [pc, #36]	@ (8004084 <HAL_RCC_ClockConfig+0x150>)
 800405e:	4013      	ands	r3, r2
 8004060:	68e2      	ldr	r2, [r4, #12]
 8004062:	4313      	orrs	r3, r2
 8004064:	60ab      	str	r3, [r5, #8]
 8004066:	e78b      	b.n	8003f80 <HAL_RCC_ClockConfig+0x4c>
 8004068:	40022000 	.word	0x40022000
 800406c:	40021000 	.word	0x40021000
 8004070:	080066d4 	.word	0x080066d4
 8004074:	20000000 	.word	0x20000000
 8004078:	20000008 	.word	0x20000008
 800407c:	00001388 	.word	0x00001388
 8004080:	fffff0ff 	.word	0xfffff0ff
 8004084:	ffff8fff 	.word	0xffff8fff

08004088 <HAL_RCC_GetPCLK1Freq>:
  *         @arg @ref LL_RCC_APB1_DIV_8
  *         @arg @ref LL_RCC_APB1_DIV_16
  */
__STATIC_INLINE uint32_t LL_RCC_GetAPB1Prescaler(void)
{
  return (uint32_t)(READ_BIT(RCC->CFGR, RCC_CFGR_PPRE));
 8004088:	4b06      	ldr	r3, [pc, #24]	@ (80040a4 <HAL_RCC_GetPCLK1Freq+0x1c>)
  * @retval PCLK1 frequency in Hz
  */
uint32_t HAL_RCC_GetPCLK1Freq(void)
{
  /* Get HCLK source and Compute PCLK1 frequency ---------------------------*/
  return ((uint32_t)(__LL_RCC_CALC_PCLK1_FREQ(HAL_RCC_GetHCLKFreq(), LL_RCC_GetAPB1Prescaler())));
 800408a:	4907      	ldr	r1, [pc, #28]	@ (80040a8 <HAL_RCC_GetPCLK1Freq+0x20>)
 800408c:	689b      	ldr	r3, [r3, #8]
  return SystemCoreClock;
 800408e:	4a07      	ldr	r2, [pc, #28]	@ (80040ac <HAL_RCC_GetPCLK1Freq+0x24>)
  return ((uint32_t)(__LL_RCC_CALC_PCLK1_FREQ(HAL_RCC_GetHCLKFreq(), LL_RCC_GetAPB1Prescaler())));
 8004090:	045b      	lsls	r3, r3, #17
 8004092:	0f5b      	lsrs	r3, r3, #29
 8004094:	009b      	lsls	r3, r3, #2
 8004096:	585b      	ldr	r3, [r3, r1]
 8004098:	211f      	movs	r1, #31
 800409a:	6810      	ldr	r0, [r2, #0]
 800409c:	400b      	ands	r3, r1
 800409e:	40d8      	lsrs	r0, r3
}
 80040a0:	4770      	bx	lr
 80040a2:	46c0      	nop			@ (mov r8, r8)
 80040a4:	40021000 	.word	0x40021000
 80040a8:	080066b4 	.word	0x080066b4
 80040ac:	20000000 	.word	0x20000000

080040b0 <HAL_RCCEx_PeriphCLKConfig>:
  *         the RTC clock source: in this case the access to Backup domain is enabled.
  *
  * @retval HAL status
  */
HAL_StatusTypeDef HAL_RCCEx_PeriphCLKConfig(RCC_PeriphCLKInitTypeDef  *PeriphClkInit)
{
 80040b0:	b5f0      	push	{r4, r5, r6, r7, lr}

  /* Check the parameters */
  assert_param(IS_RCC_PERIPHCLOCK(PeriphClkInit->PeriphClockSelection));

  /*-------------------------- RTC clock source configuration ----------------------*/
  if ((PeriphClkInit->PeriphClockSelection & RCC_PERIPHCLK_RTC) == RCC_PERIPHCLK_RTC)
 80040b2:	6803      	ldr	r3, [r0, #0]
{
 80040b4:	0005      	movs	r5, r0
 80040b6:	b085      	sub	sp, #20
  HAL_StatusTypeDef status = HAL_OK;   /* Final status */
 80040b8:	2000      	movs	r0, #0
  if ((PeriphClkInit->PeriphClockSelection & RCC_PERIPHCLK_RTC) == RCC_PERIPHCLK_RTC)
 80040ba:	039b      	lsls	r3, r3, #14
 80040bc:	d552      	bpl.n	8004164 <HAL_RCCEx_PeriphCLKConfig+0xb4>

    /* Check for RTC Parameters used to output RTCCLK */
    assert_param(IS_RCC_RTCCLKSOURCE(PeriphClkInit->RTCClockSelection));

    /* Enable Power Clock */
    if (__HAL_RCC_PWR_IS_CLK_DISABLED())
 80040be:	2280      	movs	r2, #128	@ 0x80
 80040c0:	4c5f      	ldr	r4, [pc, #380]	@ (8004240 <HAL_RCCEx_PeriphCLKConfig+0x190>)
 80040c2:	0552      	lsls	r2, r2, #21
 80040c4:	6be3      	ldr	r3, [r4, #60]	@ 0x3c
    FlagStatus       pwrclkchanged = RESET;
 80040c6:	9000      	str	r0, [sp, #0]
    if (__HAL_RCC_PWR_IS_CLK_DISABLED())
 80040c8:	4213      	tst	r3, r2
 80040ca:	d108      	bne.n	80040de <HAL_RCCEx_PeriphCLKConfig+0x2e>
    {
      __HAL_RCC_PWR_CLK_ENABLE();
 80040cc:	6be3      	ldr	r3, [r4, #60]	@ 0x3c
 80040ce:	4313      	orrs	r3, r2
 80040d0:	63e3      	str	r3, [r4, #60]	@ 0x3c
 80040d2:	6be3      	ldr	r3, [r4, #60]	@ 0x3c
 80040d4:	4013      	ands	r3, r2
 80040d6:	9303      	str	r3, [sp, #12]
 80040d8:	9b03      	ldr	r3, [sp, #12]
      pwrclkchanged = SET;
 80040da:	2301      	movs	r3, #1
 80040dc:	9300      	str	r3, [sp, #0]
    }

    /* Enable write access to Backup domain */
    SET_BIT(PWR->CR1, PWR_CR1_DBP);
 80040de:	2780      	movs	r7, #128	@ 0x80
 80040e0:	4e58      	ldr	r6, [pc, #352]	@ (8004244 <HAL_RCCEx_PeriphCLKConfig+0x194>)
 80040e2:	007f      	lsls	r7, r7, #1
 80040e4:	6833      	ldr	r3, [r6, #0]
 80040e6:	433b      	orrs	r3, r7
 80040e8:	6033      	str	r3, [r6, #0]

    /* Wait for Backup domain Write protection disable */
    tickstart = HAL_GetTick();
 80040ea:	f7fe fdaf 	bl	8002c4c <HAL_GetTick>
 80040ee:	9001      	str	r0, [sp, #4]

    while ((PWR->CR1 & PWR_CR1_DBP) == 0U)
 80040f0:	6833      	ldr	r3, [r6, #0]
 80040f2:	423b      	tst	r3, r7
 80040f4:	d028      	beq.n	8004148 <HAL_RCCEx_PeriphCLKConfig+0x98>
    }

    if (ret == HAL_OK)
    {
      /* Reset the Backup domain only if the RTC Clock source selection is modified from default */
      tmpregister = READ_BIT(RCC->BDCR, RCC_BDCR_RTCSEL);
 80040f6:	6de2      	ldr	r2, [r4, #92]	@ 0x5c
 80040f8:	23c0      	movs	r3, #192	@ 0xc0
 80040fa:	0010      	movs	r0, r2
 80040fc:	009b      	lsls	r3, r3, #2

      /* Reset the Backup domain only if the RTC Clock source selection is modified */
      if ((tmpregister != RCC_RTCCLKSOURCE_NONE) && (tmpregister != PeriphClkInit->RTCClockSelection))
 80040fe:	6a69      	ldr	r1, [r5, #36]	@ 0x24
 8004100:	4e51      	ldr	r6, [pc, #324]	@ (8004248 <HAL_RCCEx_PeriphCLKConfig+0x198>)
      tmpregister = READ_BIT(RCC->BDCR, RCC_BDCR_RTCSEL);
 8004102:	4018      	ands	r0, r3
      if ((tmpregister != RCC_RTCCLKSOURCE_NONE) && (tmpregister != PeriphClkInit->RTCClockSelection))
 8004104:	421a      	tst	r2, r3
 8004106:	d018      	beq.n	800413a <HAL_RCCEx_PeriphCLKConfig+0x8a>
 8004108:	4281      	cmp	r1, r0
 800410a:	d016      	beq.n	800413a <HAL_RCCEx_PeriphCLKConfig+0x8a>
      {
        /* Store the content of BDCR register before the reset of Backup Domain */
        tmpregister = READ_BIT(RCC->BDCR, ~(RCC_BDCR_RTCSEL));
        /* RTC Clock selection can be changed only if the Backup Domain is reset */
        __HAL_RCC_BACKUPRESET_FORCE();
 800410c:	2280      	movs	r2, #128	@ 0x80
        tmpregister = READ_BIT(RCC->BDCR, ~(RCC_BDCR_RTCSEL));
 800410e:	6de3      	ldr	r3, [r4, #92]	@ 0x5c
        __HAL_RCC_BACKUPRESET_FORCE();
 8004110:	6de0      	ldr	r0, [r4, #92]	@ 0x5c
        tmpregister = READ_BIT(RCC->BDCR, ~(RCC_BDCR_RTCSEL));
 8004112:	0019      	movs	r1, r3
        __HAL_RCC_BACKUPRESET_FORCE();
 8004114:	0252      	lsls	r2, r2, #9
 8004116:	4302      	orrs	r2, r0
 8004118:	65e2      	str	r2, [r4, #92]	@ 0x5c
        __HAL_RCC_BACKUPRESET_RELEASE();
 800411a:	6de2      	ldr	r2, [r4, #92]	@ 0x5c
 800411c:	484b      	ldr	r0, [pc, #300]	@ (800424c <HAL_RCCEx_PeriphCLKConfig+0x19c>)
        tmpregister = READ_BIT(RCC->BDCR, ~(RCC_BDCR_RTCSEL));
 800411e:	4031      	ands	r1, r6
        __HAL_RCC_BACKUPRESET_RELEASE();
 8004120:	4002      	ands	r2, r0
 8004122:	65e2      	str	r2, [r4, #92]	@ 0x5c
        /* Restore the Content of BDCR register */
        RCC->BDCR = tmpregister;
 8004124:	65e1      	str	r1, [r4, #92]	@ 0x5c
      }

      /* Wait for LSE reactivation if LSE was enable prior to Backup Domain reset */
      if (HAL_IS_BIT_SET(tmpregister, RCC_BDCR_LSEON))
 8004126:	07db      	lsls	r3, r3, #31
 8004128:	d507      	bpl.n	800413a <HAL_RCCEx_PeriphCLKConfig+0x8a>
      {
        /* Get Start Tick*/
        tickstart = HAL_GetTick();
 800412a:	f7fe fd8f 	bl	8002c4c <HAL_GetTick>
 800412e:	0007      	movs	r7, r0

        /* Wait till LSE is ready */
        while (READ_BIT(RCC->BDCR, RCC_BDCR_LSERDY) == 0U)
 8004130:	2202      	movs	r2, #2
 8004132:	6de3      	ldr	r3, [r4, #92]	@ 0x5c
 8004134:	4213      	tst	r3, r2
 8004136:	d100      	bne.n	800413a <HAL_RCCEx_PeriphCLKConfig+0x8a>
 8004138:	e07a      	b.n	8004230 <HAL_RCCEx_PeriphCLKConfig+0x180>
      }

      if (ret == HAL_OK)
      {
        /* Apply new RTC clock source selection */
        __HAL_RCC_RTC_CONFIG(PeriphClkInit->RTCClockSelection);
 800413a:	6de3      	ldr	r3, [r4, #92]	@ 0x5c
 800413c:	6a6a      	ldr	r2, [r5, #36]	@ 0x24
 800413e:	4033      	ands	r3, r6
 8004140:	4313      	orrs	r3, r2
  HAL_StatusTypeDef status = HAL_OK;   /* Final status */
 8004142:	2000      	movs	r0, #0
        __HAL_RCC_RTC_CONFIG(PeriphClkInit->RTCClockSelection);
 8004144:	65e3      	str	r3, [r4, #92]	@ 0x5c
 8004146:	e006      	b.n	8004156 <HAL_RCCEx_PeriphCLKConfig+0xa6>
      if ((HAL_GetTick() - tickstart) > RCC_DBP_TIMEOUT_VALUE)
 8004148:	f7fe fd80 	bl	8002c4c <HAL_GetTick>
 800414c:	9b01      	ldr	r3, [sp, #4]
 800414e:	1ac0      	subs	r0, r0, r3
 8004150:	2802      	cmp	r0, #2
 8004152:	d9cd      	bls.n	80040f0 <HAL_RCCEx_PeriphCLKConfig+0x40>
      }
      else
      {
        /* set overall return value */
        status = ret;
 8004154:	2003      	movs	r0, #3
      /* set overall return value */
      status = ret;
    }

    /* Restore clock configuration if changed */
    if (pwrclkchanged == SET)
 8004156:	9b00      	ldr	r3, [sp, #0]
 8004158:	2b01      	cmp	r3, #1
 800415a:	d103      	bne.n	8004164 <HAL_RCCEx_PeriphCLKConfig+0xb4>
    {
      __HAL_RCC_PWR_CLK_DISABLE();
 800415c:	6be3      	ldr	r3, [r4, #60]	@ 0x3c
 800415e:	4a3c      	ldr	r2, [pc, #240]	@ (8004250 <HAL_RCCEx_PeriphCLKConfig+0x1a0>)
 8004160:	4013      	ands	r3, r2
 8004162:	63e3      	str	r3, [r4, #60]	@ 0x3c
    }
  }

  /*-------------------------- USART1 clock source configuration -------------------*/
  if (((PeriphClkInit->PeriphClockSelection) & RCC_PERIPHCLK_USART1) == RCC_PERIPHCLK_USART1)
 8004164:	682b      	ldr	r3, [r5, #0]
 8004166:	07da      	lsls	r2, r3, #31
 8004168:	d506      	bpl.n	8004178 <HAL_RCCEx_PeriphCLKConfig+0xc8>
  {
    /* Check the parameters */
    assert_param(IS_RCC_USART1CLKSOURCE(PeriphClkInit->Usart1ClockSelection));

    /* Configure the USART1 clock source */
    __HAL_RCC_USART1_CONFIG(PeriphClkInit->Usart1ClockSelection);
 800416a:	2403      	movs	r4, #3
 800416c:	4934      	ldr	r1, [pc, #208]	@ (8004240 <HAL_RCCEx_PeriphCLKConfig+0x190>)
 800416e:	6d4a      	ldr	r2, [r1, #84]	@ 0x54
 8004170:	43a2      	bics	r2, r4
 8004172:	686c      	ldr	r4, [r5, #4]
 8004174:	4322      	orrs	r2, r4
 8004176:	654a      	str	r2, [r1, #84]	@ 0x54
  }
#endif /* RCC_CCIPR_USART3SEL */

#if defined(LPUART1)
  /*-------------------------- LPUART1 clock source configuration ------------------*/
  if (((PeriphClkInit->PeriphClockSelection) & RCC_PERIPHCLK_LPUART1) == RCC_PERIPHCLK_LPUART1)
 8004178:	06da      	lsls	r2, r3, #27
 800417a:	d506      	bpl.n	800418a <HAL_RCCEx_PeriphCLKConfig+0xda>
  {
    /* Check the parameters */
    assert_param(IS_RCC_LPUART1CLKSOURCE(PeriphClkInit->Lpuart1ClockSelection));

    /* Configure the LPUART1 clock source */
    __HAL_RCC_LPUART1_CONFIG(PeriphClkInit->Lpuart1ClockSelection);
 800417c:	4930      	ldr	r1, [pc, #192]	@ (8004240 <HAL_RCCEx_PeriphCLKConfig+0x190>)
 800417e:	4c35      	ldr	r4, [pc, #212]	@ (8004254 <HAL_RCCEx_PeriphCLKConfig+0x1a4>)
 8004180:	6d4a      	ldr	r2, [r1, #84]	@ 0x54
 8004182:	4022      	ands	r2, r4
 8004184:	68ac      	ldr	r4, [r5, #8]
 8004186:	4322      	orrs	r2, r4
 8004188:	654a      	str	r2, [r1, #84]	@ 0x54
  }
#endif /* LPUART2 */

#if defined(RCC_CCIPR_LPTIM1SEL)
  /*-------------------------- LPTIM1 clock source configuration -------------------*/
  if (((PeriphClkInit->PeriphClockSelection) & RCC_PERIPHCLK_LPTIM1) == (RCC_PERIPHCLK_LPTIM1))
 800418a:	059a      	lsls	r2, r3, #22
 800418c:	d506      	bpl.n	800419c <HAL_RCCEx_PeriphCLKConfig+0xec>
  {
    assert_param(IS_RCC_LPTIM1CLKSOURCE(PeriphClkInit->Lptim1ClockSelection));
    __HAL_RCC_LPTIM1_CONFIG(PeriphClkInit->Lptim1ClockSelection);
 800418e:	492c      	ldr	r1, [pc, #176]	@ (8004240 <HAL_RCCEx_PeriphCLKConfig+0x190>)
 8004190:	4c31      	ldr	r4, [pc, #196]	@ (8004258 <HAL_RCCEx_PeriphCLKConfig+0x1a8>)
 8004192:	6d4a      	ldr	r2, [r1, #84]	@ 0x54
 8004194:	4022      	ands	r2, r4
 8004196:	696c      	ldr	r4, [r5, #20]
 8004198:	4322      	orrs	r2, r4
 800419a:	654a      	str	r2, [r1, #84]	@ 0x54
  }
#endif /* RCC_CCIPR_LPTIM1SEL */

#if defined(RCC_CCIPR_LPTIM2SEL)
  /*-------------------------- LPTIM2 clock source configuration -------------------*/
  if (((PeriphClkInit->PeriphClockSelection) & RCC_PERIPHCLK_LPTIM2) == (RCC_PERIPHCLK_LPTIM2))
 800419c:	055a      	lsls	r2, r3, #21
 800419e:	d506      	bpl.n	80041ae <HAL_RCCEx_PeriphCLKConfig+0xfe>
  {
    assert_param(IS_RCC_LPTIM2CLKSOURCE(PeriphClkInit->Lptim2ClockSelection));
    __HAL_RCC_LPTIM2_CONFIG(PeriphClkInit->Lptim2ClockSelection);
 80041a0:	4927      	ldr	r1, [pc, #156]	@ (8004240 <HAL_RCCEx_PeriphCLKConfig+0x190>)
 80041a2:	4c2e      	ldr	r4, [pc, #184]	@ (800425c <HAL_RCCEx_PeriphCLKConfig+0x1ac>)
 80041a4:	6d4a      	ldr	r2, [r1, #84]	@ 0x54
 80041a6:	4022      	ands	r2, r4
 80041a8:	69ac      	ldr	r4, [r5, #24]
 80041aa:	4322      	orrs	r2, r4
 80041ac:	654a      	str	r2, [r1, #84]	@ 0x54
  }
#endif /* RCC_CCIPR_LPTIM2SEL */

  /*-------------------------- I2C1 clock source configuration ---------------------*/
  if (((PeriphClkInit->PeriphClockSelection) & RCC_PERIPHCLK_I2C1) == RCC_PERIPHCLK_I2C1)
 80041ae:	069a      	lsls	r2, r3, #26
 80041b0:	d506      	bpl.n	80041c0 <HAL_RCCEx_PeriphCLKConfig+0x110>
  {
    /* Check the parameters */
    assert_param(IS_RCC_I2C1CLKSOURCE(PeriphClkInit->I2c1ClockSelection));

    /* Configure the I2C1 clock source */
    __HAL_RCC_I2C1_CONFIG(PeriphClkInit->I2c1ClockSelection);
 80041b2:	4923      	ldr	r1, [pc, #140]	@ (8004240 <HAL_RCCEx_PeriphCLKConfig+0x190>)
 80041b4:	4c2a      	ldr	r4, [pc, #168]	@ (8004260 <HAL_RCCEx_PeriphCLKConfig+0x1b0>)
 80041b6:	6d4a      	ldr	r2, [r1, #84]	@ 0x54
 80041b8:	4022      	ands	r2, r4
 80041ba:	68ec      	ldr	r4, [r5, #12]
 80041bc:	4322      	orrs	r2, r4
 80041be:	654a      	str	r2, [r1, #84]	@ 0x54
      __HAL_RCC_PLLCLKOUT_ENABLE(RCC_PLLQCLK);
    }
  }
#endif /* RNG */
  /*-------------------------- ADC clock source configuration ----------------------*/
  if (((PeriphClkInit->PeriphClockSelection) & RCC_PERIPHCLK_ADC) == RCC_PERIPHCLK_ADC)
 80041c0:	045a      	lsls	r2, r3, #17
 80041c2:	d50f      	bpl.n	80041e4 <HAL_RCCEx_PeriphCLKConfig+0x134>
  {
    /* Check the parameters */
    assert_param(IS_RCC_ADCCLKSOURCE(PeriphClkInit->AdcClockSelection));

    /* Configure the ADC interface clock source */
    __HAL_RCC_ADC_CONFIG(PeriphClkInit->AdcClockSelection);
 80041c4:	491e      	ldr	r1, [pc, #120]	@ (8004240 <HAL_RCCEx_PeriphCLKConfig+0x190>)
 80041c6:	69ec      	ldr	r4, [r5, #28]
 80041c8:	6d4a      	ldr	r2, [r1, #84]	@ 0x54
 80041ca:	0092      	lsls	r2, r2, #2
 80041cc:	0892      	lsrs	r2, r2, #2
 80041ce:	4322      	orrs	r2, r4
 80041d0:	654a      	str	r2, [r1, #84]	@ 0x54

    if (PeriphClkInit->AdcClockSelection == RCC_ADCCLKSOURCE_PLLADC)
 80041d2:	2280      	movs	r2, #128	@ 0x80
 80041d4:	05d2      	lsls	r2, r2, #23
 80041d6:	4294      	cmp	r4, r2
 80041d8:	d104      	bne.n	80041e4 <HAL_RCCEx_PeriphCLKConfig+0x134>
    {
      /* Enable PLLPCLK output */
      __HAL_RCC_PLLCLKOUT_ENABLE(RCC_PLLPCLK);
 80041da:	2280      	movs	r2, #128	@ 0x80
 80041dc:	68cc      	ldr	r4, [r1, #12]
 80041de:	0252      	lsls	r2, r2, #9
 80041e0:	4322      	orrs	r2, r4
 80041e2:	60ca      	str	r2, [r1, #12]
  }
#endif /* CEC */

#if defined(RCC_CCIPR_TIM1SEL)
  /*-------------------------- TIM1 clock source configuration ---------------------*/
  if (((PeriphClkInit->PeriphClockSelection) & RCC_PERIPHCLK_TIM1) == RCC_PERIPHCLK_TIM1)
 80041e4:	029a      	lsls	r2, r3, #10
 80041e6:	d50f      	bpl.n	8004208 <HAL_RCCEx_PeriphCLKConfig+0x158>
  {
    /* Check the parameters */
    assert_param(IS_RCC_TIM1CLKSOURCE(PeriphClkInit->Tim1ClockSelection));

    /* Configure the TIM1 clock source */
    __HAL_RCC_TIM1_CONFIG(PeriphClkInit->Tim1ClockSelection);
 80041e8:	4915      	ldr	r1, [pc, #84]	@ (8004240 <HAL_RCCEx_PeriphCLKConfig+0x190>)
 80041ea:	4e1e      	ldr	r6, [pc, #120]	@ (8004264 <HAL_RCCEx_PeriphCLKConfig+0x1b4>)
 80041ec:	6d4a      	ldr	r2, [r1, #84]	@ 0x54
 80041ee:	6a2c      	ldr	r4, [r5, #32]
 80041f0:	4032      	ands	r2, r6
 80041f2:	4322      	orrs	r2, r4
 80041f4:	654a      	str	r2, [r1, #84]	@ 0x54

    if (PeriphClkInit->Tim1ClockSelection == RCC_TIM1CLKSOURCE_PLL)
 80041f6:	2280      	movs	r2, #128	@ 0x80
 80041f8:	03d2      	lsls	r2, r2, #15
 80041fa:	4294      	cmp	r4, r2
 80041fc:	d104      	bne.n	8004208 <HAL_RCCEx_PeriphCLKConfig+0x158>
    {
      /* Enable PLLQCLK output */
      __HAL_RCC_PLLCLKOUT_ENABLE(RCC_PLLQCLK);
 80041fe:	2280      	movs	r2, #128	@ 0x80
 8004200:	68cc      	ldr	r4, [r1, #12]
 8004202:	0452      	lsls	r2, r2, #17
 8004204:	4322      	orrs	r2, r4
 8004206:	60ca      	str	r2, [r1, #12]
    }
  }
#endif /* RCC_CCIPR_TIM15SEL */

  /*-------------------------- I2S1 clock source configuration ---------------------*/
  if (((PeriphClkInit->PeriphClockSelection) & RCC_PERIPHCLK_I2S1) == RCC_PERIPHCLK_I2S1)
 8004208:	051b      	lsls	r3, r3, #20
 800420a:	d50f      	bpl.n	800422c <HAL_RCCEx_PeriphCLKConfig+0x17c>
  {
    /* Check the parameters */
    assert_param(IS_RCC_I2S1CLKSOURCE(PeriphClkInit->I2s1ClockSelection));

    /* Configure the I2S1 clock source */
    __HAL_RCC_I2S1_CONFIG(PeriphClkInit->I2s1ClockSelection);
 800420c:	4a0c      	ldr	r2, [pc, #48]	@ (8004240 <HAL_RCCEx_PeriphCLKConfig+0x190>)
 800420e:	4c16      	ldr	r4, [pc, #88]	@ (8004268 <HAL_RCCEx_PeriphCLKConfig+0x1b8>)
 8004210:	6d53      	ldr	r3, [r2, #84]	@ 0x54
 8004212:	6929      	ldr	r1, [r5, #16]
 8004214:	4023      	ands	r3, r4
 8004216:	430b      	orrs	r3, r1
 8004218:	6553      	str	r3, [r2, #84]	@ 0x54

    if (PeriphClkInit->I2s1ClockSelection == RCC_I2S1CLKSOURCE_PLL)
 800421a:	2380      	movs	r3, #128	@ 0x80
 800421c:	01db      	lsls	r3, r3, #7
 800421e:	4299      	cmp	r1, r3
 8004220:	d104      	bne.n	800422c <HAL_RCCEx_PeriphCLKConfig+0x17c>
    {
      /* Enable PLLPCLK output */
      __HAL_RCC_PLLCLKOUT_ENABLE(RCC_PLLPCLK);
 8004222:	2380      	movs	r3, #128	@ 0x80
 8004224:	68d1      	ldr	r1, [r2, #12]
 8004226:	025b      	lsls	r3, r3, #9
 8004228:	430b      	orrs	r3, r1
 800422a:	60d3      	str	r3, [r2, #12]
    }
  }
#endif /* FDCAN1 || FDCAN2 */

  return status;
}
 800422c:	b005      	add	sp, #20
 800422e:	bdf0      	pop	{r4, r5, r6, r7, pc}
          if ((HAL_GetTick() - tickstart) > RCC_LSE_TIMEOUT_VALUE)
 8004230:	f7fe fd0c 	bl	8002c4c <HAL_GetTick>
 8004234:	4b0d      	ldr	r3, [pc, #52]	@ (800426c <HAL_RCCEx_PeriphCLKConfig+0x1bc>)
 8004236:	1bc0      	subs	r0, r0, r7
 8004238:	4298      	cmp	r0, r3
 800423a:	d800      	bhi.n	800423e <HAL_RCCEx_PeriphCLKConfig+0x18e>
 800423c:	e778      	b.n	8004130 <HAL_RCCEx_PeriphCLKConfig+0x80>
 800423e:	e789      	b.n	8004154 <HAL_RCCEx_PeriphCLKConfig+0xa4>
 8004240:	40021000 	.word	0x40021000
 8004244:	40007000 	.word	0x40007000
 8004248:	fffffcff 	.word	0xfffffcff
 800424c:	fffeffff 	.word	0xfffeffff
 8004250:	efffffff 	.word	0xefffffff
 8004254:	fffff3ff 	.word	0xfffff3ff
 8004258:	fff3ffff 	.word	0xfff3ffff
 800425c:	ffcfffff 	.word	0xffcfffff
 8004260:	ffffcfff 	.word	0xffffcfff
 8004264:	ffbfffff 	.word	0xffbfffff
 8004268:	ffff3fff 	.word	0xffff3fff
 800426c:	00001388 	.word	0x00001388

08004270 <TIM_OC1_SetConfig>:
  * @param  TIMx to select the TIM peripheral
  * @param  OC_Config The output configuration structure
  * @retval None
  */
static void TIM_OC1_SetConfig(TIM_TypeDef *TIMx, const TIM_OC_InitTypeDef *OC_Config)
{
 8004270:	b570      	push	{r4, r5, r6, lr}

  /* Get the TIMx CCER register value */
  tmpccer = TIMx->CCER;

  /* Disable the Channel 1: Reset the CC1E Bit */
  TIMx->CCER &= ~TIM_CCER_CC1E;
 8004272:	2401      	movs	r4, #1
  tmpccer = TIMx->CCER;
 8004274:	6a03      	ldr	r3, [r0, #32]
  TIMx->CCER &= ~TIM_CCER_CC1E;
 8004276:	6a02      	ldr	r2, [r0, #32]
 8004278:	43a2      	bics	r2, r4
 800427a:	6202      	str	r2, [r0, #32]

  /* Get the TIMx CR2 register value */
  tmpcr2 =  TIMx->CR2;
 800427c:	6844      	ldr	r4, [r0, #4]
  /* Get the TIMx CCMR1 register value */
  tmpccmrx = TIMx->CCMR1;

  /* Reset the Output Compare Mode Bits */
  tmpccmrx &= ~TIM_CCMR1_OC1M;
  tmpccmrx &= ~TIM_CCMR1_CC1S;
 800427e:	4a12      	ldr	r2, [pc, #72]	@ (80042c8 <TIM_OC1_SetConfig+0x58>)
  tmpccmrx = TIMx->CCMR1;
 8004280:	6985      	ldr	r5, [r0, #24]
  tmpccmrx &= ~TIM_CCMR1_CC1S;
 8004282:	4015      	ands	r5, r2
  /* Select the Output Compare Mode */
  tmpccmrx |= OC_Config->OCMode;
 8004284:	680a      	ldr	r2, [r1, #0]
 8004286:	4315      	orrs	r5, r2

  /* Reset the Output Polarity level */
  tmpccer &= ~TIM_CCER_CC1P;
 8004288:	2202      	movs	r2, #2
 800428a:	4393      	bics	r3, r2
  /* Set the Output Compare Polarity */
  tmpccer |= OC_Config->OCPolarity;
 800428c:	688a      	ldr	r2, [r1, #8]
 800428e:	4313      	orrs	r3, r2

  if (IS_TIM_CCXN_INSTANCE(TIMx, TIM_CHANNEL_1))
 8004290:	4a0e      	ldr	r2, [pc, #56]	@ (80042cc <TIM_OC1_SetConfig+0x5c>)
 8004292:	4290      	cmp	r0, r2
 8004294:	d005      	beq.n	80042a2 <TIM_OC1_SetConfig+0x32>
 8004296:	4a0e      	ldr	r2, [pc, #56]	@ (80042d0 <TIM_OC1_SetConfig+0x60>)
 8004298:	4290      	cmp	r0, r2
 800429a:	d002      	beq.n	80042a2 <TIM_OC1_SetConfig+0x32>
 800429c:	4a0d      	ldr	r2, [pc, #52]	@ (80042d4 <TIM_OC1_SetConfig+0x64>)
 800429e:	4290      	cmp	r0, r2
 80042a0:	d10b      	bne.n	80042ba <TIM_OC1_SetConfig+0x4a>
  {
    /* Check parameters */
    assert_param(IS_TIM_OCN_POLARITY(OC_Config->OCNPolarity));

    /* Reset the Output N Polarity level */
    tmpccer &= ~TIM_CCER_CC1NP;
 80042a2:	2208      	movs	r2, #8
 80042a4:	4393      	bics	r3, r2
    /* Set the Output N Polarity */
    tmpccer |= OC_Config->OCNPolarity;
 80042a6:	68ca      	ldr	r2, [r1, #12]
    tmpcr2 &= ~TIM_CR2_OIS1;
    tmpcr2 &= ~TIM_CR2_OIS1N;
    /* Set the Output Idle state */
    tmpcr2 |= OC_Config->OCIdleState;
    /* Set the Output N Idle state */
    tmpcr2 |= OC_Config->OCNIdleState;
 80042a8:	698e      	ldr	r6, [r1, #24]
    tmpccer |= OC_Config->OCNPolarity;
 80042aa:	4313      	orrs	r3, r2
    tmpccer &= ~TIM_CCER_CC1NE;
 80042ac:	2204      	movs	r2, #4
 80042ae:	4393      	bics	r3, r2
    tmpcr2 &= ~TIM_CR2_OIS1N;
 80042b0:	4a09      	ldr	r2, [pc, #36]	@ (80042d8 <TIM_OC1_SetConfig+0x68>)
 80042b2:	4022      	ands	r2, r4
    tmpcr2 |= OC_Config->OCNIdleState;
 80042b4:	694c      	ldr	r4, [r1, #20]
 80042b6:	4334      	orrs	r4, r6
 80042b8:	4314      	orrs	r4, r2

  /* Write to TIMx CCMR1 */
  TIMx->CCMR1 = tmpccmrx;

  /* Set the Capture Compare Register value */
  TIMx->CCR1 = OC_Config->Pulse;
 80042ba:	684a      	ldr	r2, [r1, #4]
  TIMx->CR2 = tmpcr2;
 80042bc:	6044      	str	r4, [r0, #4]
  TIMx->CCMR1 = tmpccmrx;
 80042be:	6185      	str	r5, [r0, #24]
  TIMx->CCR1 = OC_Config->Pulse;
 80042c0:	6342      	str	r2, [r0, #52]	@ 0x34

  /* Write to TIMx CCER */
  TIMx->CCER = tmpccer;
 80042c2:	6203      	str	r3, [r0, #32]
}
 80042c4:	bd70      	pop	{r4, r5, r6, pc}
 80042c6:	46c0      	nop			@ (mov r8, r8)
 80042c8:	fffeff8c 	.word	0xfffeff8c
 80042cc:	40012c00 	.word	0x40012c00
 80042d0:	40014400 	.word	0x40014400
 80042d4:	40014800 	.word	0x40014800
 80042d8:	fffffcff 	.word	0xfffffcff

080042dc <TIM_OC3_SetConfig>:
  * @param  TIMx to select the TIM peripheral
  * @param  OC_Config The output configuration structure
  * @retval None
  */
static void TIM_OC3_SetConfig(TIM_TypeDef *TIMx, const TIM_OC_InitTypeDef *OC_Config)
{
 80042dc:	b570      	push	{r4, r5, r6, lr}

  /* Get the TIMx CCER register value */
  tmpccer = TIMx->CCER;

  /* Disable the Channel 3: Reset the CC2E Bit */
  TIMx->CCER &= ~TIM_CCER_CC3E;
 80042de:	4a17      	ldr	r2, [pc, #92]	@ (800433c <TIM_OC3_SetConfig+0x60>)
  tmpccer = TIMx->CCER;
 80042e0:	6a05      	ldr	r5, [r0, #32]
  TIMx->CCER &= ~TIM_CCER_CC3E;
 80042e2:	6a03      	ldr	r3, [r0, #32]
 80042e4:	4013      	ands	r3, r2
 80042e6:	6203      	str	r3, [r0, #32]

  /* Get the TIMx CR2 register value */
  tmpcr2 =  TIMx->CR2;
 80042e8:	6842      	ldr	r2, [r0, #4]
  /* Get the TIMx CCMR2 register value */
  tmpccmrx = TIMx->CCMR2;

  /* Reset the Output Compare mode and Capture/Compare selection Bits */
  tmpccmrx &= ~TIM_CCMR2_OC3M;
  tmpccmrx &= ~TIM_CCMR2_CC3S;
 80042ea:	4b15      	ldr	r3, [pc, #84]	@ (8004340 <TIM_OC3_SetConfig+0x64>)
  tmpccmrx = TIMx->CCMR2;
 80042ec:	69c4      	ldr	r4, [r0, #28]
  tmpccmrx &= ~TIM_CCMR2_CC3S;
 80042ee:	401c      	ands	r4, r3
  /* Select the Output Compare Mode */
  tmpccmrx |= OC_Config->OCMode;
 80042f0:	680b      	ldr	r3, [r1, #0]
 80042f2:	431c      	orrs	r4, r3

  /* Reset the Output Polarity level */
  tmpccer &= ~TIM_CCER_CC3P;
 80042f4:	4b13      	ldr	r3, [pc, #76]	@ (8004344 <TIM_OC3_SetConfig+0x68>)
 80042f6:	401d      	ands	r5, r3
  /* Set the Output Compare Polarity */
  tmpccer |= (OC_Config->OCPolarity << 8U);
 80042f8:	688b      	ldr	r3, [r1, #8]
 80042fa:	021b      	lsls	r3, r3, #8
 80042fc:	432b      	orrs	r3, r5

  if (IS_TIM_CCXN_INSTANCE(TIMx, TIM_CHANNEL_3))
 80042fe:	4d12      	ldr	r5, [pc, #72]	@ (8004348 <TIM_OC3_SetConfig+0x6c>)
 8004300:	42a8      	cmp	r0, r5
 8004302:	d10e      	bne.n	8004322 <TIM_OC3_SetConfig+0x46>
  {
    assert_param(IS_TIM_OCN_POLARITY(OC_Config->OCNPolarity));

    /* Reset the Output N Polarity level */
    tmpccer &= ~TIM_CCER_CC3NP;
 8004304:	4d11      	ldr	r5, [pc, #68]	@ (800434c <TIM_OC3_SetConfig+0x70>)
 8004306:	401d      	ands	r5, r3
    /* Set the Output N Polarity */
    tmpccer |= (OC_Config->OCNPolarity << 8U);
 8004308:	68cb      	ldr	r3, [r1, #12]
 800430a:	021b      	lsls	r3, r3, #8
 800430c:	432b      	orrs	r3, r5
    /* Reset the Output N State */
    tmpccer &= ~TIM_CCER_CC3NE;
 800430e:	4d10      	ldr	r5, [pc, #64]	@ (8004350 <TIM_OC3_SetConfig+0x74>)
 8004310:	402b      	ands	r3, r5
    assert_param(IS_TIM_OCNIDLE_STATE(OC_Config->OCNIdleState));
    assert_param(IS_TIM_OCIDLE_STATE(OC_Config->OCIdleState));

    /* Reset the Output Compare and Output Compare N IDLE State */
    tmpcr2 &= ~TIM_CR2_OIS3;
    tmpcr2 &= ~TIM_CR2_OIS3N;
 8004312:	4d10      	ldr	r5, [pc, #64]	@ (8004354 <TIM_OC3_SetConfig+0x78>)
    /* Set the Output Idle state */
    tmpcr2 |= (OC_Config->OCIdleState << 4U);
    /* Set the Output N Idle state */
    tmpcr2 |= (OC_Config->OCNIdleState << 4U);
 8004314:	698e      	ldr	r6, [r1, #24]
    tmpcr2 &= ~TIM_CR2_OIS3N;
 8004316:	4015      	ands	r5, r2
    tmpcr2 |= (OC_Config->OCNIdleState << 4U);
 8004318:	694a      	ldr	r2, [r1, #20]
 800431a:	4332      	orrs	r2, r6
 800431c:	0112      	lsls	r2, r2, #4
 800431e:	432a      	orrs	r2, r5
 8004320:	e005      	b.n	800432e <TIM_OC3_SetConfig+0x52>
  if (IS_TIM_BREAK_INSTANCE(TIMx))
 8004322:	4d0d      	ldr	r5, [pc, #52]	@ (8004358 <TIM_OC3_SetConfig+0x7c>)
 8004324:	42a8      	cmp	r0, r5
 8004326:	d0f4      	beq.n	8004312 <TIM_OC3_SetConfig+0x36>
 8004328:	4d0c      	ldr	r5, [pc, #48]	@ (800435c <TIM_OC3_SetConfig+0x80>)
 800432a:	42a8      	cmp	r0, r5
 800432c:	d0f1      	beq.n	8004312 <TIM_OC3_SetConfig+0x36>
  }

  /* Write to TIMx CR2 */
  TIMx->CR2 = tmpcr2;
 800432e:	6042      	str	r2, [r0, #4]

  /* Write to TIMx CCMR2 */
  TIMx->CCMR2 = tmpccmrx;

  /* Set the Capture Compare Register value */
  TIMx->CCR3 = OC_Config->Pulse;
 8004330:	684a      	ldr	r2, [r1, #4]
  TIMx->CCMR2 = tmpccmrx;
 8004332:	61c4      	str	r4, [r0, #28]
  TIMx->CCR3 = OC_Config->Pulse;
 8004334:	63c2      	str	r2, [r0, #60]	@ 0x3c

  /* Write to TIMx CCER */
  TIMx->CCER = tmpccer;
 8004336:	6203      	str	r3, [r0, #32]
}
 8004338:	bd70      	pop	{r4, r5, r6, pc}
 800433a:	46c0      	nop			@ (mov r8, r8)
 800433c:	fffffeff 	.word	0xfffffeff
 8004340:	fffeff8c 	.word	0xfffeff8c
 8004344:	fffffdff 	.word	0xfffffdff
 8004348:	40012c00 	.word	0x40012c00
 800434c:	fffff7ff 	.word	0xfffff7ff
 8004350:	fffffbff 	.word	0xfffffbff
 8004354:	ffffcfff 	.word	0xffffcfff
 8004358:	40014400 	.word	0x40014400
 800435c:	40014800 	.word	0x40014800

08004360 <TIM_OC4_SetConfig>:
  * @param  TIMx to select the TIM peripheral
  * @param  OC_Config The output configuration structure
  * @retval None
  */
static void TIM_OC4_SetConfig(TIM_TypeDef *TIMx, const TIM_OC_InitTypeDef *OC_Config)
{
 8004360:	b530      	push	{r4, r5, lr}

  /* Get the TIMx CCER register value */
  tmpccer = TIMx->CCER;

  /* Disable the Channel 4: Reset the CC4E Bit */
  TIMx->CCER &= ~TIM_CCER_CC4E;
 8004362:	4a12      	ldr	r2, [pc, #72]	@ (80043ac <TIM_OC4_SetConfig+0x4c>)
  tmpccer = TIMx->CCER;
 8004364:	6a04      	ldr	r4, [r0, #32]
  TIMx->CCER &= ~TIM_CCER_CC4E;
 8004366:	6a03      	ldr	r3, [r0, #32]
  /* Get the TIMx CCMR2 register value */
  tmpccmrx = TIMx->CCMR2;

  /* Reset the Output Compare mode and Capture/Compare selection Bits */
  tmpccmrx &= ~TIM_CCMR2_OC4M;
  tmpccmrx &= ~TIM_CCMR2_CC4S;
 8004368:	4d11      	ldr	r5, [pc, #68]	@ (80043b0 <TIM_OC4_SetConfig+0x50>)
  TIMx->CCER &= ~TIM_CCER_CC4E;
 800436a:	4013      	ands	r3, r2
 800436c:	6203      	str	r3, [r0, #32]
  tmpcr2 =  TIMx->CR2;
 800436e:	6843      	ldr	r3, [r0, #4]
  tmpccmrx = TIMx->CCMR2;
 8004370:	69c2      	ldr	r2, [r0, #28]
  tmpccmrx &= ~TIM_CCMR2_CC4S;
 8004372:	402a      	ands	r2, r5

  /* Select the Output Compare Mode */
  tmpccmrx |= (OC_Config->OCMode << 8U);
 8004374:	680d      	ldr	r5, [r1, #0]
 8004376:	022d      	lsls	r5, r5, #8
 8004378:	4315      	orrs	r5, r2

  /* Reset the Output Polarity level */
  tmpccer &= ~TIM_CCER_CC4P;
 800437a:	4a0e      	ldr	r2, [pc, #56]	@ (80043b4 <TIM_OC4_SetConfig+0x54>)
 800437c:	4014      	ands	r4, r2
  /* Set the Output Compare Polarity */
  tmpccer |= (OC_Config->OCPolarity << 12U);
 800437e:	688a      	ldr	r2, [r1, #8]
 8004380:	0312      	lsls	r2, r2, #12
 8004382:	4322      	orrs	r2, r4

  if (IS_TIM_BREAK_INSTANCE(TIMx))
 8004384:	4c0c      	ldr	r4, [pc, #48]	@ (80043b8 <TIM_OC4_SetConfig+0x58>)
 8004386:	42a0      	cmp	r0, r4
 8004388:	d005      	beq.n	8004396 <TIM_OC4_SetConfig+0x36>
 800438a:	4c0c      	ldr	r4, [pc, #48]	@ (80043bc <TIM_OC4_SetConfig+0x5c>)
 800438c:	42a0      	cmp	r0, r4
 800438e:	d002      	beq.n	8004396 <TIM_OC4_SetConfig+0x36>
 8004390:	4c0b      	ldr	r4, [pc, #44]	@ (80043c0 <TIM_OC4_SetConfig+0x60>)
 8004392:	42a0      	cmp	r0, r4
 8004394:	d104      	bne.n	80043a0 <TIM_OC4_SetConfig+0x40>
  {
    /* Check parameters */
    assert_param(IS_TIM_OCIDLE_STATE(OC_Config->OCIdleState));

    /* Reset the Output Compare IDLE State */
    tmpcr2 &= ~TIM_CR2_OIS4;
 8004396:	4c0b      	ldr	r4, [pc, #44]	@ (80043c4 <TIM_OC4_SetConfig+0x64>)
 8004398:	401c      	ands	r4, r3

    /* Set the Output Idle state */
    tmpcr2 |= (OC_Config->OCIdleState << 6U);
 800439a:	694b      	ldr	r3, [r1, #20]
 800439c:	019b      	lsls	r3, r3, #6
 800439e:	4323      	orrs	r3, r4
  }

  /* Write to TIMx CR2 */
  TIMx->CR2 = tmpcr2;
 80043a0:	6043      	str	r3, [r0, #4]

  /* Write to TIMx CCMR2 */
  TIMx->CCMR2 = tmpccmrx;

  /* Set the Capture Compare Register value */
  TIMx->CCR4 = OC_Config->Pulse;
 80043a2:	684b      	ldr	r3, [r1, #4]
  TIMx->CCMR2 = tmpccmrx;
 80043a4:	61c5      	str	r5, [r0, #28]
  TIMx->CCR4 = OC_Config->Pulse;
 80043a6:	6403      	str	r3, [r0, #64]	@ 0x40

  /* Write to TIMx CCER */
  TIMx->CCER = tmpccer;
 80043a8:	6202      	str	r2, [r0, #32]
}
 80043aa:	bd30      	pop	{r4, r5, pc}
 80043ac:	ffffefff 	.word	0xffffefff
 80043b0:	feff8cff 	.word	0xfeff8cff
 80043b4:	ffffdfff 	.word	0xffffdfff
 80043b8:	40012c00 	.word	0x40012c00
 80043bc:	40014400 	.word	0x40014400
 80043c0:	40014800 	.word	0x40014800
 80043c4:	ffffbfff 	.word	0xffffbfff

080043c8 <TIM_OC5_SetConfig>:
  * @param  OC_Config The output configuration structure
  * @retval None
  */
static void TIM_OC5_SetConfig(TIM_TypeDef *TIMx,
                              const TIM_OC_InitTypeDef *OC_Config)
{
 80043c8:	b570      	push	{r4, r5, r6, lr}
  uint32_t tmpccmrx;
  uint32_t tmpccer;
  uint32_t tmpcr2;

  /* Get the TIMx CCER register value */
  tmpccer = TIMx->CCER;
 80043ca:	6a06      	ldr	r6, [r0, #32]

  /* Disable the output: Reset the CCxE Bit */
  TIMx->CCER &= ~TIM_CCER_CC5E;
 80043cc:	4c10      	ldr	r4, [pc, #64]	@ (8004410 <TIM_OC5_SetConfig+0x48>)
 80043ce:	6a03      	ldr	r3, [r0, #32]
  tmpcr2 =  TIMx->CR2;
  /* Get the TIMx CCMR1 register value */
  tmpccmrx = TIMx->CCMR3;

  /* Reset the Output Compare Mode Bits */
  tmpccmrx &= ~(TIM_CCMR3_OC5M);
 80043d0:	4a10      	ldr	r2, [pc, #64]	@ (8004414 <TIM_OC5_SetConfig+0x4c>)
  TIMx->CCER &= ~TIM_CCER_CC5E;
 80043d2:	4023      	ands	r3, r4
 80043d4:	6203      	str	r3, [r0, #32]
  tmpcr2 =  TIMx->CR2;
 80043d6:	6843      	ldr	r3, [r0, #4]
  tmpccmrx = TIMx->CCMR3;
 80043d8:	6d45      	ldr	r5, [r0, #84]	@ 0x54
  tmpccmrx &= ~(TIM_CCMR3_OC5M);
 80043da:	4015      	ands	r5, r2
  /* Select the Output Compare Mode */
  tmpccmrx |= OC_Config->OCMode;
 80043dc:	680a      	ldr	r2, [r1, #0]
 80043de:	4315      	orrs	r5, r2

  /* Reset the Output Polarity level */
  tmpccer &= ~TIM_CCER_CC5P;
 80043e0:	4a0d      	ldr	r2, [pc, #52]	@ (8004418 <TIM_OC5_SetConfig+0x50>)
 80043e2:	4016      	ands	r6, r2
  /* Set the Output Compare Polarity */
  tmpccer |= (OC_Config->OCPolarity << 16U);
 80043e4:	688a      	ldr	r2, [r1, #8]
 80043e6:	0412      	lsls	r2, r2, #16
 80043e8:	4332      	orrs	r2, r6

  if (IS_TIM_BREAK_INSTANCE(TIMx))
 80043ea:	4e0c      	ldr	r6, [pc, #48]	@ (800441c <TIM_OC5_SetConfig+0x54>)
 80043ec:	42b0      	cmp	r0, r6
 80043ee:	d005      	beq.n	80043fc <TIM_OC5_SetConfig+0x34>
 80043f0:	4e0b      	ldr	r6, [pc, #44]	@ (8004420 <TIM_OC5_SetConfig+0x58>)
 80043f2:	42b0      	cmp	r0, r6
 80043f4:	d002      	beq.n	80043fc <TIM_OC5_SetConfig+0x34>
 80043f6:	4e0b      	ldr	r6, [pc, #44]	@ (8004424 <TIM_OC5_SetConfig+0x5c>)
 80043f8:	42b0      	cmp	r0, r6
 80043fa:	d103      	bne.n	8004404 <TIM_OC5_SetConfig+0x3c>
  {
    /* Reset the Output Compare IDLE State */
    tmpcr2 &= ~TIM_CR2_OIS5;
 80043fc:	401c      	ands	r4, r3
    /* Set the Output Idle state */
    tmpcr2 |= (OC_Config->OCIdleState << 8U);
 80043fe:	694b      	ldr	r3, [r1, #20]
 8004400:	021b      	lsls	r3, r3, #8
 8004402:	4323      	orrs	r3, r4
  }
  /* Write to TIMx CR2 */
  TIMx->CR2 = tmpcr2;
 8004404:	6043      	str	r3, [r0, #4]

  /* Write to TIMx CCMR3 */
  TIMx->CCMR3 = tmpccmrx;

  /* Set the Capture Compare Register value */
  TIMx->CCR5 = OC_Config->Pulse;
 8004406:	684b      	ldr	r3, [r1, #4]
  TIMx->CCMR3 = tmpccmrx;
 8004408:	6545      	str	r5, [r0, #84]	@ 0x54
  TIMx->CCR5 = OC_Config->Pulse;
 800440a:	6583      	str	r3, [r0, #88]	@ 0x58

  /* Write to TIMx CCER */
  TIMx->CCER = tmpccer;
 800440c:	6202      	str	r2, [r0, #32]
}
 800440e:	bd70      	pop	{r4, r5, r6, pc}
 8004410:	fffeffff 	.word	0xfffeffff
 8004414:	fffeff8f 	.word	0xfffeff8f
 8004418:	fffdffff 	.word	0xfffdffff
 800441c:	40012c00 	.word	0x40012c00
 8004420:	40014400 	.word	0x40014400
 8004424:	40014800 	.word	0x40014800

08004428 <TIM_OC6_SetConfig>:
  * @param  OC_Config The output configuration structure
  * @retval None
  */
static void TIM_OC6_SetConfig(TIM_TypeDef *TIMx,
                              const TIM_OC_InitTypeDef *OC_Config)
{
 8004428:	b530      	push	{r4, r5, lr}

  /* Get the TIMx CCER register value */
  tmpccer = TIMx->CCER;

  /* Disable the output: Reset the CCxE Bit */
  TIMx->CCER &= ~TIM_CCER_CC6E;
 800442a:	4a12      	ldr	r2, [pc, #72]	@ (8004474 <TIM_OC6_SetConfig+0x4c>)
  tmpccer = TIMx->CCER;
 800442c:	6a04      	ldr	r4, [r0, #32]
  TIMx->CCER &= ~TIM_CCER_CC6E;
 800442e:	6a03      	ldr	r3, [r0, #32]
  tmpcr2 =  TIMx->CR2;
  /* Get the TIMx CCMR1 register value */
  tmpccmrx = TIMx->CCMR3;

  /* Reset the Output Compare Mode Bits */
  tmpccmrx &= ~(TIM_CCMR3_OC6M);
 8004430:	4d11      	ldr	r5, [pc, #68]	@ (8004478 <TIM_OC6_SetConfig+0x50>)
  TIMx->CCER &= ~TIM_CCER_CC6E;
 8004432:	4013      	ands	r3, r2
 8004434:	6203      	str	r3, [r0, #32]
  tmpcr2 =  TIMx->CR2;
 8004436:	6843      	ldr	r3, [r0, #4]
  tmpccmrx = TIMx->CCMR3;
 8004438:	6d42      	ldr	r2, [r0, #84]	@ 0x54
  tmpccmrx &= ~(TIM_CCMR3_OC6M);
 800443a:	402a      	ands	r2, r5
  /* Select the Output Compare Mode */
  tmpccmrx |= (OC_Config->OCMode << 8U);
 800443c:	680d      	ldr	r5, [r1, #0]
 800443e:	022d      	lsls	r5, r5, #8
 8004440:	4315      	orrs	r5, r2

  /* Reset the Output Polarity level */
  tmpccer &= (uint32_t)~TIM_CCER_CC6P;
 8004442:	4a0e      	ldr	r2, [pc, #56]	@ (800447c <TIM_OC6_SetConfig+0x54>)
 8004444:	4014      	ands	r4, r2
  /* Set the Output Compare Polarity */
  tmpccer |= (OC_Config->OCPolarity << 20U);
 8004446:	688a      	ldr	r2, [r1, #8]
 8004448:	0512      	lsls	r2, r2, #20
 800444a:	4322      	orrs	r2, r4

  if (IS_TIM_BREAK_INSTANCE(TIMx))
 800444c:	4c0c      	ldr	r4, [pc, #48]	@ (8004480 <TIM_OC6_SetConfig+0x58>)
 800444e:	42a0      	cmp	r0, r4
 8004450:	d005      	beq.n	800445e <TIM_OC6_SetConfig+0x36>
 8004452:	4c0c      	ldr	r4, [pc, #48]	@ (8004484 <TIM_OC6_SetConfig+0x5c>)
 8004454:	42a0      	cmp	r0, r4
 8004456:	d002      	beq.n	800445e <TIM_OC6_SetConfig+0x36>
 8004458:	4c0b      	ldr	r4, [pc, #44]	@ (8004488 <TIM_OC6_SetConfig+0x60>)
 800445a:	42a0      	cmp	r0, r4
 800445c:	d104      	bne.n	8004468 <TIM_OC6_SetConfig+0x40>
  {
    /* Reset the Output Compare IDLE State */
    tmpcr2 &= ~TIM_CR2_OIS6;
 800445e:	4c0b      	ldr	r4, [pc, #44]	@ (800448c <TIM_OC6_SetConfig+0x64>)
 8004460:	401c      	ands	r4, r3
    /* Set the Output Idle state */
    tmpcr2 |= (OC_Config->OCIdleState << 10U);
 8004462:	694b      	ldr	r3, [r1, #20]
 8004464:	029b      	lsls	r3, r3, #10
 8004466:	4323      	orrs	r3, r4
  }

  /* Write to TIMx CR2 */
  TIMx->CR2 = tmpcr2;
 8004468:	6043      	str	r3, [r0, #4]

  /* Write to TIMx CCMR3 */
  TIMx->CCMR3 = tmpccmrx;

  /* Set the Capture Compare Register value */
  TIMx->CCR6 = OC_Config->Pulse;
 800446a:	684b      	ldr	r3, [r1, #4]
  TIMx->CCMR3 = tmpccmrx;
 800446c:	6545      	str	r5, [r0, #84]	@ 0x54
  TIMx->CCR6 = OC_Config->Pulse;
 800446e:	65c3      	str	r3, [r0, #92]	@ 0x5c

  /* Write to TIMx CCER */
  TIMx->CCER = tmpccer;
 8004470:	6202      	str	r2, [r0, #32]
}
 8004472:	bd30      	pop	{r4, r5, pc}
 8004474:	ffefffff 	.word	0xffefffff
 8004478:	feff8fff 	.word	0xfeff8fff
 800447c:	ffdfffff 	.word	0xffdfffff
 8004480:	40012c00 	.word	0x40012c00
 8004484:	40014400 	.word	0x40014400
 8004488:	40014800 	.word	0x40014800
 800448c:	fffbffff 	.word	0xfffbffff

08004490 <TIM_Base_SetConfig>:
{
 8004490:	b510      	push	{r4, lr}
  if (IS_TIM_COUNTER_MODE_SELECT_INSTANCE(TIMx))
 8004492:	4c1c      	ldr	r4, [pc, #112]	@ (8004504 <TIM_Base_SetConfig+0x74>)
  tmpcr1 = TIMx->CR1;
 8004494:	6803      	ldr	r3, [r0, #0]
  if (IS_TIM_COUNTER_MODE_SELECT_INSTANCE(TIMx))
 8004496:	42a0      	cmp	r0, r4
 8004498:	d006      	beq.n	80044a8 <TIM_Base_SetConfig+0x18>
 800449a:	2280      	movs	r2, #128	@ 0x80
 800449c:	05d2      	lsls	r2, r2, #23
 800449e:	4290      	cmp	r0, r2
 80044a0:	d002      	beq.n	80044a8 <TIM_Base_SetConfig+0x18>
 80044a2:	4a19      	ldr	r2, [pc, #100]	@ (8004508 <TIM_Base_SetConfig+0x78>)
 80044a4:	4290      	cmp	r0, r2
 80044a6:	d108      	bne.n	80044ba <TIM_Base_SetConfig+0x2a>
    tmpcr1 &= ~(TIM_CR1_DIR | TIM_CR1_CMS);
 80044a8:	2270      	movs	r2, #112	@ 0x70
 80044aa:	4393      	bics	r3, r2
    tmpcr1 |= Structure->CounterMode;
 80044ac:	684a      	ldr	r2, [r1, #4]
 80044ae:	4313      	orrs	r3, r2
    tmpcr1 &= ~TIM_CR1_CKD;
 80044b0:	4a16      	ldr	r2, [pc, #88]	@ (800450c <TIM_Base_SetConfig+0x7c>)
 80044b2:	401a      	ands	r2, r3
    tmpcr1 |= (uint32_t)Structure->ClockDivision;
 80044b4:	68cb      	ldr	r3, [r1, #12]
 80044b6:	4313      	orrs	r3, r2
 80044b8:	e008      	b.n	80044cc <TIM_Base_SetConfig+0x3c>
  if (IS_TIM_CLOCK_DIVISION_INSTANCE(TIMx))
 80044ba:	4a15      	ldr	r2, [pc, #84]	@ (8004510 <TIM_Base_SetConfig+0x80>)
 80044bc:	4290      	cmp	r0, r2
 80044be:	d0f7      	beq.n	80044b0 <TIM_Base_SetConfig+0x20>
 80044c0:	4a14      	ldr	r2, [pc, #80]	@ (8004514 <TIM_Base_SetConfig+0x84>)
 80044c2:	4290      	cmp	r0, r2
 80044c4:	d0f4      	beq.n	80044b0 <TIM_Base_SetConfig+0x20>
 80044c6:	4a14      	ldr	r2, [pc, #80]	@ (8004518 <TIM_Base_SetConfig+0x88>)
 80044c8:	4290      	cmp	r0, r2
 80044ca:	d0f1      	beq.n	80044b0 <TIM_Base_SetConfig+0x20>
  MODIFY_REG(tmpcr1, TIM_CR1_ARPE, Structure->AutoReloadPreload);
 80044cc:	2280      	movs	r2, #128	@ 0x80
 80044ce:	4393      	bics	r3, r2
 80044d0:	694a      	ldr	r2, [r1, #20]
 80044d2:	4313      	orrs	r3, r2
  TIMx->CR1 = tmpcr1;
 80044d4:	6003      	str	r3, [r0, #0]
  TIMx->ARR = (uint32_t)Structure->Period ;
 80044d6:	688b      	ldr	r3, [r1, #8]
 80044d8:	62c3      	str	r3, [r0, #44]	@ 0x2c
  TIMx->PSC = Structure->Prescaler;
 80044da:	680b      	ldr	r3, [r1, #0]
 80044dc:	6283      	str	r3, [r0, #40]	@ 0x28
  if (IS_TIM_REPETITION_COUNTER_INSTANCE(TIMx))
 80044de:	42a0      	cmp	r0, r4
 80044e0:	d005      	beq.n	80044ee <TIM_Base_SetConfig+0x5e>
 80044e2:	4b0c      	ldr	r3, [pc, #48]	@ (8004514 <TIM_Base_SetConfig+0x84>)
 80044e4:	4298      	cmp	r0, r3
 80044e6:	d002      	beq.n	80044ee <TIM_Base_SetConfig+0x5e>
 80044e8:	4b0b      	ldr	r3, [pc, #44]	@ (8004518 <TIM_Base_SetConfig+0x88>)
 80044ea:	4298      	cmp	r0, r3
 80044ec:	d101      	bne.n	80044f2 <TIM_Base_SetConfig+0x62>
    TIMx->RCR = Structure->RepetitionCounter;
 80044ee:	690b      	ldr	r3, [r1, #16]
 80044f0:	6303      	str	r3, [r0, #48]	@ 0x30
  TIMx->EGR = TIM_EGR_UG;
 80044f2:	2201      	movs	r2, #1
 80044f4:	6142      	str	r2, [r0, #20]
  if (HAL_IS_BIT_SET(TIMx->SR, TIM_FLAG_UPDATE))
 80044f6:	6903      	ldr	r3, [r0, #16]
 80044f8:	4213      	tst	r3, r2
 80044fa:	d002      	beq.n	8004502 <TIM_Base_SetConfig+0x72>
    CLEAR_BIT(TIMx->SR, TIM_FLAG_UPDATE);
 80044fc:	6903      	ldr	r3, [r0, #16]
 80044fe:	4393      	bics	r3, r2
 8004500:	6103      	str	r3, [r0, #16]
}
 8004502:	bd10      	pop	{r4, pc}
 8004504:	40012c00 	.word	0x40012c00
 8004508:	40000400 	.word	0x40000400
 800450c:	fffffcff 	.word	0xfffffcff
 8004510:	40002000 	.word	0x40002000
 8004514:	40014400 	.word	0x40014400
 8004518:	40014800 	.word	0x40014800

0800451c <HAL_TIM_Base_Init>:
{
 800451c:	b570      	push	{r4, r5, r6, lr}
 800451e:	0004      	movs	r4, r0
    return HAL_ERROR;
 8004520:	2001      	movs	r0, #1
  if (htim == NULL)
 8004522:	2c00      	cmp	r4, #0
 8004524:	d023      	beq.n	800456e <HAL_TIM_Base_Init+0x52>
  if (htim->State == HAL_TIM_STATE_RESET)
 8004526:	0025      	movs	r5, r4
 8004528:	353d      	adds	r5, #61	@ 0x3d
 800452a:	782b      	ldrb	r3, [r5, #0]
 800452c:	b2da      	uxtb	r2, r3
 800452e:	2b00      	cmp	r3, #0
 8004530:	d105      	bne.n	800453e <HAL_TIM_Base_Init+0x22>
    htim->Lock = HAL_UNLOCKED;
 8004532:	0023      	movs	r3, r4
 8004534:	333c      	adds	r3, #60	@ 0x3c
    HAL_TIM_Base_MspInit(htim);
 8004536:	0020      	movs	r0, r4
    htim->Lock = HAL_UNLOCKED;
 8004538:	701a      	strb	r2, [r3, #0]
    HAL_TIM_Base_MspInit(htim);
 800453a:	f7fe f94b 	bl	80027d4 <HAL_TIM_Base_MspInit>
  htim->State = HAL_TIM_STATE_BUSY;
 800453e:	2302      	movs	r3, #2
 8004540:	702b      	strb	r3, [r5, #0]
  TIM_Base_SetConfig(htim->Instance, &htim->Init);
 8004542:	6820      	ldr	r0, [r4, #0]
 8004544:	1d21      	adds	r1, r4, #4
 8004546:	f7ff ffa3 	bl	8004490 <TIM_Base_SetConfig>
  htim->DMABurstState = HAL_DMA_BURST_STATE_READY;
 800454a:	0022      	movs	r2, r4
 800454c:	2301      	movs	r3, #1
  return HAL_OK;
 800454e:	2000      	movs	r0, #0
  htim->DMABurstState = HAL_DMA_BURST_STATE_READY;
 8004550:	3248      	adds	r2, #72	@ 0x48
 8004552:	7013      	strb	r3, [r2, #0]
  TIM_CHANNEL_N_STATE_SET_ALL(htim, HAL_TIM_CHANNEL_STATE_READY);
 8004554:	3447      	adds	r4, #71	@ 0x47
  TIM_CHANNEL_STATE_SET_ALL(htim, HAL_TIM_CHANNEL_STATE_READY);
 8004556:	3a0a      	subs	r2, #10
 8004558:	7013      	strb	r3, [r2, #0]
 800455a:	7053      	strb	r3, [r2, #1]
 800455c:	7093      	strb	r3, [r2, #2]
 800455e:	70d3      	strb	r3, [r2, #3]
 8004560:	7113      	strb	r3, [r2, #4]
 8004562:	7153      	strb	r3, [r2, #5]
  TIM_CHANNEL_N_STATE_SET_ALL(htim, HAL_TIM_CHANNEL_STATE_READY);
 8004564:	7193      	strb	r3, [r2, #6]
 8004566:	71d3      	strb	r3, [r2, #7]
 8004568:	7213      	strb	r3, [r2, #8]
 800456a:	7023      	strb	r3, [r4, #0]
  htim->State = HAL_TIM_STATE_READY;
 800456c:	702b      	strb	r3, [r5, #0]
}
 800456e:	bd70      	pop	{r4, r5, r6, pc}

08004570 <HAL_TIM_PWM_Init>:
{
 8004570:	b570      	push	{r4, r5, r6, lr}
 8004572:	0004      	movs	r4, r0
    return HAL_ERROR;
 8004574:	2001      	movs	r0, #1
  if (htim == NULL)
 8004576:	2c00      	cmp	r4, #0
 8004578:	d023      	beq.n	80045c2 <HAL_TIM_PWM_Init+0x52>
  if (htim->State == HAL_TIM_STATE_RESET)
 800457a:	0025      	movs	r5, r4
 800457c:	353d      	adds	r5, #61	@ 0x3d
 800457e:	782b      	ldrb	r3, [r5, #0]
 8004580:	b2da      	uxtb	r2, r3
 8004582:	2b00      	cmp	r3, #0
 8004584:	d105      	bne.n	8004592 <HAL_TIM_PWM_Init+0x22>
    htim->Lock = HAL_UNLOCKED;
 8004586:	0023      	movs	r3, r4
 8004588:	333c      	adds	r3, #60	@ 0x3c
    HAL_TIM_PWM_MspInit(htim);
 800458a:	0020      	movs	r0, r4
    htim->Lock = HAL_UNLOCKED;
 800458c:	701a      	strb	r2, [r3, #0]
    HAL_TIM_PWM_MspInit(htim);
 800458e:	f7fe f947 	bl	8002820 <HAL_TIM_PWM_MspInit>
  htim->State = HAL_TIM_STATE_BUSY;
 8004592:	2302      	movs	r3, #2
 8004594:	702b      	strb	r3, [r5, #0]
  TIM_Base_SetConfig(htim->Instance, &htim->Init);
 8004596:	6820      	ldr	r0, [r4, #0]
 8004598:	1d21      	adds	r1, r4, #4
 800459a:	f7ff ff79 	bl	8004490 <TIM_Base_SetConfig>
  htim->DMABurstState = HAL_DMA_BURST_STATE_READY;
 800459e:	0022      	movs	r2, r4
 80045a0:	2301      	movs	r3, #1
  return HAL_OK;
 80045a2:	2000      	movs	r0, #0
  htim->DMABurstState = HAL_DMA_BURST_STATE_READY;
 80045a4:	3248      	adds	r2, #72	@ 0x48
 80045a6:	7013      	strb	r3, [r2, #0]
  TIM_CHANNEL_N_STATE_SET_ALL(htim, HAL_TIM_CHANNEL_STATE_READY);
 80045a8:	3447      	adds	r4, #71	@ 0x47
  TIM_CHANNEL_STATE_SET_ALL(htim, HAL_TIM_CHANNEL_STATE_READY);
 80045aa:	3a0a      	subs	r2, #10
 80045ac:	7013      	strb	r3, [r2, #0]
 80045ae:	7053      	strb	r3, [r2, #1]
 80045b0:	7093      	strb	r3, [r2, #2]
 80045b2:	70d3      	strb	r3, [r2, #3]
 80045b4:	7113      	strb	r3, [r2, #4]
 80045b6:	7153      	strb	r3, [r2, #5]
  TIM_CHANNEL_N_STATE_SET_ALL(htim, HAL_TIM_CHANNEL_STATE_READY);
 80045b8:	7193      	strb	r3, [r2, #6]
 80045ba:	71d3      	strb	r3, [r2, #7]
 80045bc:	7213      	strb	r3, [r2, #8]
 80045be:	7023      	strb	r3, [r4, #0]
  htim->State = HAL_TIM_STATE_READY;
 80045c0:	702b      	strb	r3, [r5, #0]
}
 80045c2:	bd70      	pop	{r4, r5, r6, pc}

080045c4 <TIM_OC2_SetConfig>:
  TIMx->CCER &= ~TIM_CCER_CC2E;
 80045c4:	2210      	movs	r2, #16
{
 80045c6:	b570      	push	{r4, r5, r6, lr}
  tmpccer = TIMx->CCER;
 80045c8:	6a05      	ldr	r5, [r0, #32]
  TIMx->CCER &= ~TIM_CCER_CC2E;
 80045ca:	6a03      	ldr	r3, [r0, #32]
  tmpccmrx &= ~TIM_CCMR1_CC2S;
 80045cc:	4c16      	ldr	r4, [pc, #88]	@ (8004628 <TIM_OC2_SetConfig+0x64>)
  TIMx->CCER &= ~TIM_CCER_CC2E;
 80045ce:	4393      	bics	r3, r2
 80045d0:	6203      	str	r3, [r0, #32]
  tmpcr2 =  TIMx->CR2;
 80045d2:	6842      	ldr	r2, [r0, #4]
  tmpccmrx = TIMx->CCMR1;
 80045d4:	6983      	ldr	r3, [r0, #24]
  tmpccmrx &= ~TIM_CCMR1_CC2S;
 80045d6:	4023      	ands	r3, r4
  tmpccmrx |= (OC_Config->OCMode << 8U);
 80045d8:	680c      	ldr	r4, [r1, #0]
 80045da:	0224      	lsls	r4, r4, #8
 80045dc:	431c      	orrs	r4, r3
  tmpccer &= ~TIM_CCER_CC2P;
 80045de:	2320      	movs	r3, #32
 80045e0:	439d      	bics	r5, r3
  tmpccer |= (OC_Config->OCPolarity << 4U);
 80045e2:	688b      	ldr	r3, [r1, #8]
 80045e4:	011b      	lsls	r3, r3, #4
 80045e6:	432b      	orrs	r3, r5
  if (IS_TIM_CCXN_INSTANCE(TIMx, TIM_CHANNEL_2))
 80045e8:	4d10      	ldr	r5, [pc, #64]	@ (800462c <TIM_OC2_SetConfig+0x68>)
 80045ea:	42a8      	cmp	r0, r5
 80045ec:	d10f      	bne.n	800460e <TIM_OC2_SetConfig+0x4a>
    tmpccer &= ~TIM_CCER_CC2NP;
 80045ee:	2580      	movs	r5, #128	@ 0x80
 80045f0:	43ab      	bics	r3, r5
 80045f2:	001e      	movs	r6, r3
    tmpccer |= (OC_Config->OCNPolarity << 4U);
 80045f4:	68cb      	ldr	r3, [r1, #12]
    tmpccer &= ~TIM_CCER_CC2NE;
 80045f6:	3d40      	subs	r5, #64	@ 0x40
    tmpccer |= (OC_Config->OCNPolarity << 4U);
 80045f8:	011b      	lsls	r3, r3, #4
 80045fa:	4333      	orrs	r3, r6
    tmpccer &= ~TIM_CCER_CC2NE;
 80045fc:	43ab      	bics	r3, r5
    tmpcr2 &= ~TIM_CR2_OIS2N;
 80045fe:	4d0c      	ldr	r5, [pc, #48]	@ (8004630 <TIM_OC2_SetConfig+0x6c>)
    tmpcr2 |= (OC_Config->OCNIdleState << 2U);
 8004600:	698e      	ldr	r6, [r1, #24]
    tmpcr2 &= ~TIM_CR2_OIS2N;
 8004602:	4015      	ands	r5, r2
    tmpcr2 |= (OC_Config->OCNIdleState << 2U);
 8004604:	694a      	ldr	r2, [r1, #20]
 8004606:	4332      	orrs	r2, r6
 8004608:	0092      	lsls	r2, r2, #2
 800460a:	432a      	orrs	r2, r5
 800460c:	e005      	b.n	800461a <TIM_OC2_SetConfig+0x56>
  if (IS_TIM_BREAK_INSTANCE(TIMx))
 800460e:	4d09      	ldr	r5, [pc, #36]	@ (8004634 <TIM_OC2_SetConfig+0x70>)
 8004610:	42a8      	cmp	r0, r5
 8004612:	d0f4      	beq.n	80045fe <TIM_OC2_SetConfig+0x3a>
 8004614:	4d08      	ldr	r5, [pc, #32]	@ (8004638 <TIM_OC2_SetConfig+0x74>)
 8004616:	42a8      	cmp	r0, r5
 8004618:	d0f1      	beq.n	80045fe <TIM_OC2_SetConfig+0x3a>
  TIMx->CR2 = tmpcr2;
 800461a:	6042      	str	r2, [r0, #4]
  TIMx->CCR2 = OC_Config->Pulse;
 800461c:	684a      	ldr	r2, [r1, #4]
  TIMx->CCMR1 = tmpccmrx;
 800461e:	6184      	str	r4, [r0, #24]
  TIMx->CCR2 = OC_Config->Pulse;
 8004620:	6382      	str	r2, [r0, #56]	@ 0x38
  TIMx->CCER = tmpccer;
 8004622:	6203      	str	r3, [r0, #32]
}
 8004624:	bd70      	pop	{r4, r5, r6, pc}
 8004626:	46c0      	nop			@ (mov r8, r8)
 8004628:	feff8cff 	.word	0xfeff8cff
 800462c:	40012c00 	.word	0x40012c00
 8004630:	fffff3ff 	.word	0xfffff3ff
 8004634:	40014400 	.word	0x40014400
 8004638:	40014800 	.word	0x40014800

0800463c <HAL_TIM_PWM_ConfigChannel>:
{
 800463c:	b5f8      	push	{r3, r4, r5, r6, r7, lr}
  __HAL_LOCK(htim);
 800463e:	0007      	movs	r7, r0
 8004640:	373c      	adds	r7, #60	@ 0x3c
{
 8004642:	0015      	movs	r5, r2
  __HAL_LOCK(htim);
 8004644:	783a      	ldrb	r2, [r7, #0]
{
 8004646:	0003      	movs	r3, r0
 8004648:	000c      	movs	r4, r1
  __HAL_LOCK(htim);
 800464a:	2002      	movs	r0, #2
 800464c:	2a01      	cmp	r2, #1
 800464e:	d00c      	beq.n	800466a <HAL_TIM_PWM_ConfigChannel+0x2e>
 8004650:	3801      	subs	r0, #1
 8004652:	7038      	strb	r0, [r7, #0]
  switch (Channel)
 8004654:	2d0c      	cmp	r5, #12
 8004656:	d051      	beq.n	80046fc <HAL_TIM_PWM_ConfigChannel+0xc0>
 8004658:	d808      	bhi.n	800466c <HAL_TIM_PWM_ConfigChannel+0x30>
 800465a:	2d04      	cmp	r5, #4
 800465c:	d02d      	beq.n	80046ba <HAL_TIM_PWM_ConfigChannel+0x7e>
 800465e:	2d08      	cmp	r5, #8
 8004660:	d03c      	beq.n	80046dc <HAL_TIM_PWM_ConfigChannel+0xa0>
 8004662:	2d00      	cmp	r5, #0
 8004664:	d017      	beq.n	8004696 <HAL_TIM_PWM_ConfigChannel+0x5a>
  __HAL_UNLOCK(htim);
 8004666:	2300      	movs	r3, #0
 8004668:	703b      	strb	r3, [r7, #0]
}
 800466a:	bdf8      	pop	{r3, r4, r5, r6, r7, pc}
  switch (Channel)
 800466c:	2d10      	cmp	r5, #16
 800466e:	d058      	beq.n	8004722 <HAL_TIM_PWM_ConfigChannel+0xe6>
 8004670:	2d14      	cmp	r5, #20
 8004672:	d1f8      	bne.n	8004666 <HAL_TIM_PWM_ConfigChannel+0x2a>
      TIM_OC6_SetConfig(htim->Instance, sConfig);
 8004674:	681d      	ldr	r5, [r3, #0]
 8004676:	0028      	movs	r0, r5
 8004678:	f7ff fed6 	bl	8004428 <TIM_OC6_SetConfig>
      htim->Instance->CCMR3 |= TIM_CCMR3_OC6PE;
 800467c:	2380      	movs	r3, #128	@ 0x80
 800467e:	6d6a      	ldr	r2, [r5, #84]	@ 0x54
 8004680:	011b      	lsls	r3, r3, #4
 8004682:	4313      	orrs	r3, r2
 8004684:	656b      	str	r3, [r5, #84]	@ 0x54
      htim->Instance->CCMR3 &= ~TIM_CCMR3_OC6FE;
 8004686:	6d6b      	ldr	r3, [r5, #84]	@ 0x54
 8004688:	4a2e      	ldr	r2, [pc, #184]	@ (8004744 <HAL_TIM_PWM_ConfigChannel+0x108>)
 800468a:	4013      	ands	r3, r2
 800468c:	656b      	str	r3, [r5, #84]	@ 0x54
      htim->Instance->CCMR3 |= sConfig->OCFastMode << 8U;
 800468e:	6923      	ldr	r3, [r4, #16]
 8004690:	6d6a      	ldr	r2, [r5, #84]	@ 0x54
 8004692:	021b      	lsls	r3, r3, #8
 8004694:	e053      	b.n	800473e <HAL_TIM_PWM_ConfigChannel+0x102>
      TIM_OC1_SetConfig(htim->Instance, sConfig);
 8004696:	681d      	ldr	r5, [r3, #0]
 8004698:	0028      	movs	r0, r5
 800469a:	f7ff fde9 	bl	8004270 <TIM_OC1_SetConfig>
      htim->Instance->CCMR1 |= TIM_CCMR1_OC1PE;
 800469e:	2308      	movs	r3, #8
 80046a0:	69aa      	ldr	r2, [r5, #24]
 80046a2:	4313      	orrs	r3, r2
      htim->Instance->CCMR1 &= ~TIM_CCMR1_OC1FE;
 80046a4:	2204      	movs	r2, #4
      htim->Instance->CCMR1 |= TIM_CCMR1_OC1PE;
 80046a6:	61ab      	str	r3, [r5, #24]
      htim->Instance->CCMR1 &= ~TIM_CCMR1_OC1FE;
 80046a8:	69ab      	ldr	r3, [r5, #24]
 80046aa:	4393      	bics	r3, r2
 80046ac:	61ab      	str	r3, [r5, #24]
      htim->Instance->CCMR1 |= sConfig->OCFastMode;
 80046ae:	69ab      	ldr	r3, [r5, #24]
 80046b0:	6922      	ldr	r2, [r4, #16]
      htim->Instance->CCMR1 |= sConfig->OCFastMode << 8U;
 80046b2:	4313      	orrs	r3, r2
 80046b4:	61ab      	str	r3, [r5, #24]
  HAL_StatusTypeDef status = HAL_OK;
 80046b6:	2000      	movs	r0, #0
 80046b8:	e7d5      	b.n	8004666 <HAL_TIM_PWM_ConfigChannel+0x2a>
      TIM_OC2_SetConfig(htim->Instance, sConfig);
 80046ba:	681d      	ldr	r5, [r3, #0]
 80046bc:	0028      	movs	r0, r5
 80046be:	f7ff ff81 	bl	80045c4 <TIM_OC2_SetConfig>
      htim->Instance->CCMR1 |= TIM_CCMR1_OC2PE;
 80046c2:	2380      	movs	r3, #128	@ 0x80
 80046c4:	69aa      	ldr	r2, [r5, #24]
 80046c6:	011b      	lsls	r3, r3, #4
 80046c8:	4313      	orrs	r3, r2
 80046ca:	61ab      	str	r3, [r5, #24]
      htim->Instance->CCMR1 &= ~TIM_CCMR1_OC2FE;
 80046cc:	69ab      	ldr	r3, [r5, #24]
 80046ce:	4a1d      	ldr	r2, [pc, #116]	@ (8004744 <HAL_TIM_PWM_ConfigChannel+0x108>)
 80046d0:	4013      	ands	r3, r2
 80046d2:	61ab      	str	r3, [r5, #24]
      htim->Instance->CCMR1 |= sConfig->OCFastMode << 8U;
 80046d4:	6923      	ldr	r3, [r4, #16]
 80046d6:	69aa      	ldr	r2, [r5, #24]
 80046d8:	021b      	lsls	r3, r3, #8
 80046da:	e7ea      	b.n	80046b2 <HAL_TIM_PWM_ConfigChannel+0x76>
      TIM_OC3_SetConfig(htim->Instance, sConfig);
 80046dc:	681e      	ldr	r6, [r3, #0]
 80046de:	0030      	movs	r0, r6
 80046e0:	f7ff fdfc 	bl	80042dc <TIM_OC3_SetConfig>
      htim->Instance->CCMR2 &= ~TIM_CCMR2_OC3FE;
 80046e4:	2204      	movs	r2, #4
      htim->Instance->CCMR2 |= TIM_CCMR2_OC3PE;
 80046e6:	69f3      	ldr	r3, [r6, #28]
 80046e8:	431d      	orrs	r5, r3
 80046ea:	61f5      	str	r5, [r6, #28]
      htim->Instance->CCMR2 &= ~TIM_CCMR2_OC3FE;
 80046ec:	69f3      	ldr	r3, [r6, #28]
 80046ee:	4393      	bics	r3, r2
 80046f0:	61f3      	str	r3, [r6, #28]
      htim->Instance->CCMR2 |= sConfig->OCFastMode;
 80046f2:	69f3      	ldr	r3, [r6, #28]
 80046f4:	6922      	ldr	r2, [r4, #16]
 80046f6:	4313      	orrs	r3, r2
 80046f8:	61f3      	str	r3, [r6, #28]
      break;
 80046fa:	e7dc      	b.n	80046b6 <HAL_TIM_PWM_ConfigChannel+0x7a>
      TIM_OC4_SetConfig(htim->Instance, sConfig);
 80046fc:	681d      	ldr	r5, [r3, #0]
 80046fe:	0028      	movs	r0, r5
 8004700:	f7ff fe2e 	bl	8004360 <TIM_OC4_SetConfig>
      htim->Instance->CCMR2 |= TIM_CCMR2_OC4PE;
 8004704:	2380      	movs	r3, #128	@ 0x80
 8004706:	69ea      	ldr	r2, [r5, #28]
 8004708:	011b      	lsls	r3, r3, #4
 800470a:	4313      	orrs	r3, r2
 800470c:	61eb      	str	r3, [r5, #28]
      htim->Instance->CCMR2 &= ~TIM_CCMR2_OC4FE;
 800470e:	69eb      	ldr	r3, [r5, #28]
 8004710:	4a0c      	ldr	r2, [pc, #48]	@ (8004744 <HAL_TIM_PWM_ConfigChannel+0x108>)
 8004712:	4013      	ands	r3, r2
 8004714:	61eb      	str	r3, [r5, #28]
      htim->Instance->CCMR2 |= sConfig->OCFastMode << 8U;
 8004716:	6923      	ldr	r3, [r4, #16]
 8004718:	69ea      	ldr	r2, [r5, #28]
 800471a:	021b      	lsls	r3, r3, #8
 800471c:	4313      	orrs	r3, r2
 800471e:	61eb      	str	r3, [r5, #28]
      break;
 8004720:	e7c9      	b.n	80046b6 <HAL_TIM_PWM_ConfigChannel+0x7a>
      TIM_OC5_SetConfig(htim->Instance, sConfig);
 8004722:	681d      	ldr	r5, [r3, #0]
 8004724:	0028      	movs	r0, r5
 8004726:	f7ff fe4f 	bl	80043c8 <TIM_OC5_SetConfig>
      htim->Instance->CCMR3 |= TIM_CCMR3_OC5PE;
 800472a:	2308      	movs	r3, #8
 800472c:	6d6a      	ldr	r2, [r5, #84]	@ 0x54
 800472e:	4313      	orrs	r3, r2
      htim->Instance->CCMR3 &= ~TIM_CCMR3_OC5FE;
 8004730:	2204      	movs	r2, #4
      htim->Instance->CCMR3 |= TIM_CCMR3_OC5PE;
 8004732:	656b      	str	r3, [r5, #84]	@ 0x54
      htim->Instance->CCMR3 &= ~TIM_CCMR3_OC5FE;
 8004734:	6d6b      	ldr	r3, [r5, #84]	@ 0x54
 8004736:	4393      	bics	r3, r2
 8004738:	656b      	str	r3, [r5, #84]	@ 0x54
      htim->Instance->CCMR3 |= sConfig->OCFastMode;
 800473a:	6d6b      	ldr	r3, [r5, #84]	@ 0x54
 800473c:	6922      	ldr	r2, [r4, #16]
      htim->Instance->CCMR3 |= sConfig->OCFastMode << 8U;
 800473e:	4313      	orrs	r3, r2
 8004740:	656b      	str	r3, [r5, #84]	@ 0x54
      break;
 8004742:	e7b8      	b.n	80046b6 <HAL_TIM_PWM_ConfigChannel+0x7a>
 8004744:	fffffbff 	.word	0xfffffbff

08004748 <TIM_ETR_SetConfig>:
  *          This parameter must be a value between 0x00 and 0x0F
  * @retval None
  */
void TIM_ETR_SetConfig(TIM_TypeDef *TIMx, uint32_t TIM_ExtTRGPrescaler,
                       uint32_t TIM_ExtTRGPolarity, uint32_t ExtTRGFilter)
{
 8004748:	b530      	push	{r4, r5, lr}
  uint32_t tmpsmcr;

  tmpsmcr = TIMx->SMCR;
 800474a:	6884      	ldr	r4, [r0, #8]

  /* Reset the ETR Bits */
  tmpsmcr &= ~(TIM_SMCR_ETF | TIM_SMCR_ETPS | TIM_SMCR_ECE | TIM_SMCR_ETP);
 800474c:	4d03      	ldr	r5, [pc, #12]	@ (800475c <TIM_ETR_SetConfig+0x14>)

  /* Set the Prescaler, the Filter value and the Polarity */
  tmpsmcr |= (uint32_t)(TIM_ExtTRGPrescaler | (TIM_ExtTRGPolarity | (ExtTRGFilter << 8U)));
 800474e:	430a      	orrs	r2, r1
 8004750:	021b      	lsls	r3, r3, #8
  tmpsmcr &= ~(TIM_SMCR_ETF | TIM_SMCR_ETPS | TIM_SMCR_ECE | TIM_SMCR_ETP);
 8004752:	402c      	ands	r4, r5
  tmpsmcr |= (uint32_t)(TIM_ExtTRGPrescaler | (TIM_ExtTRGPolarity | (ExtTRGFilter << 8U)));
 8004754:	4313      	orrs	r3, r2
 8004756:	4323      	orrs	r3, r4

  /* Write to TIMx SMCR */
  TIMx->SMCR = tmpsmcr;
 8004758:	6083      	str	r3, [r0, #8]
}
 800475a:	bd30      	pop	{r4, r5, pc}
 800475c:	ffff00ff 	.word	0xffff00ff

08004760 <HAL_TIM_ConfigClockSource>:
{
 8004760:	b5f8      	push	{r3, r4, r5, r6, r7, lr}
  __HAL_LOCK(htim);
 8004762:	0005      	movs	r5, r0
 8004764:	2202      	movs	r2, #2
 8004766:	353c      	adds	r5, #60	@ 0x3c
 8004768:	782c      	ldrb	r4, [r5, #0]
{
 800476a:	0003      	movs	r3, r0
  __HAL_LOCK(htim);
 800476c:	0010      	movs	r0, r2
 800476e:	2c01      	cmp	r4, #1
 8004770:	d01b      	beq.n	80047aa <HAL_TIM_ConfigClockSource+0x4a>
  htim->State = HAL_TIM_STATE_BUSY;
 8004772:	001e      	movs	r6, r3
  __HAL_LOCK(htim);
 8004774:	3801      	subs	r0, #1
  htim->State = HAL_TIM_STATE_BUSY;
 8004776:	363d      	adds	r6, #61	@ 0x3d
  __HAL_LOCK(htim);
 8004778:	7028      	strb	r0, [r5, #0]
  htim->State = HAL_TIM_STATE_BUSY;
 800477a:	7032      	strb	r2, [r6, #0]
  tmpsmcr = htim->Instance->SMCR;
 800477c:	681c      	ldr	r4, [r3, #0]
  tmpsmcr &= ~(TIM_SMCR_ETF | TIM_SMCR_ETPS | TIM_SMCR_ECE | TIM_SMCR_ETP);
 800477e:	4a41      	ldr	r2, [pc, #260]	@ (8004884 <HAL_TIM_ConfigClockSource+0x124>)
  tmpsmcr = htim->Instance->SMCR;
 8004780:	68a3      	ldr	r3, [r4, #8]
  tmpsmcr &= ~(TIM_SMCR_ETF | TIM_SMCR_ETPS | TIM_SMCR_ECE | TIM_SMCR_ETP);
 8004782:	4013      	ands	r3, r2
  htim->Instance->SMCR = tmpsmcr;
 8004784:	60a3      	str	r3, [r4, #8]
  switch (sClockSourceConfig->ClockSource)
 8004786:	680b      	ldr	r3, [r1, #0]
 8004788:	2b60      	cmp	r3, #96	@ 0x60
 800478a:	d04e      	beq.n	800482a <HAL_TIM_ConfigClockSource+0xca>
 800478c:	d82d      	bhi.n	80047ea <HAL_TIM_ConfigClockSource+0x8a>
 800478e:	2b40      	cmp	r3, #64	@ 0x40
 8004790:	d062      	beq.n	8004858 <HAL_TIM_ConfigClockSource+0xf8>
 8004792:	d813      	bhi.n	80047bc <HAL_TIM_ConfigClockSource+0x5c>
 8004794:	2b20      	cmp	r3, #32
 8004796:	d00b      	beq.n	80047b0 <HAL_TIM_ConfigClockSource+0x50>
 8004798:	d808      	bhi.n	80047ac <HAL_TIM_ConfigClockSource+0x4c>
 800479a:	2210      	movs	r2, #16
 800479c:	0019      	movs	r1, r3
 800479e:	4391      	bics	r1, r2
 80047a0:	d006      	beq.n	80047b0 <HAL_TIM_ConfigClockSource+0x50>
  htim->State = HAL_TIM_STATE_READY;
 80047a2:	2301      	movs	r3, #1
 80047a4:	7033      	strb	r3, [r6, #0]
  __HAL_UNLOCK(htim);
 80047a6:	2300      	movs	r3, #0
 80047a8:	702b      	strb	r3, [r5, #0]
}
 80047aa:	bdf8      	pop	{r3, r4, r5, r6, r7, pc}
  switch (sClockSourceConfig->ClockSource)
 80047ac:	2b30      	cmp	r3, #48	@ 0x30
 80047ae:	d1f8      	bne.n	80047a2 <HAL_TIM_ConfigClockSource+0x42>
  tmpsmcr = TIMx->SMCR;
 80047b0:	68a2      	ldr	r2, [r4, #8]
  tmpsmcr &= ~TIM_SMCR_TS;
 80047b2:	4935      	ldr	r1, [pc, #212]	@ (8004888 <HAL_TIM_ConfigClockSource+0x128>)
 80047b4:	400a      	ands	r2, r1
  tmpsmcr |= (InputTriggerSource | TIM_SLAVEMODE_EXTERNAL1);
 80047b6:	4313      	orrs	r3, r2
 80047b8:	2207      	movs	r2, #7
 80047ba:	e028      	b.n	800480e <HAL_TIM_ConfigClockSource+0xae>
  switch (sClockSourceConfig->ClockSource)
 80047bc:	2b50      	cmp	r3, #80	@ 0x50
 80047be:	d1f0      	bne.n	80047a2 <HAL_TIM_ConfigClockSource+0x42>
                               sClockSourceConfig->ClockPolarity,
 80047c0:	684a      	ldr	r2, [r1, #4]
                               sClockSourceConfig->ClockFilter);
 80047c2:	68cb      	ldr	r3, [r1, #12]
  tmpccer = TIMx->CCER;
 80047c4:	6a21      	ldr	r1, [r4, #32]
  TIMx->CCER &= ~TIM_CCER_CC1E;
 80047c6:	6a27      	ldr	r7, [r4, #32]
  tmpccmr1 |= (TIM_ICFilter << 4U);
 80047c8:	011b      	lsls	r3, r3, #4
  TIMx->CCER &= ~TIM_CCER_CC1E;
 80047ca:	4387      	bics	r7, r0
 80047cc:	6227      	str	r7, [r4, #32]
  tmpccmr1 &= ~TIM_CCMR1_IC1F;
 80047ce:	27f0      	movs	r7, #240	@ 0xf0
  tmpccmr1 = TIMx->CCMR1;
 80047d0:	69a0      	ldr	r0, [r4, #24]
  tmpccmr1 &= ~TIM_CCMR1_IC1F;
 80047d2:	43b8      	bics	r0, r7
  tmpccmr1 |= (TIM_ICFilter << 4U);
 80047d4:	4303      	orrs	r3, r0
  tmpccer &= ~(TIM_CCER_CC1P | TIM_CCER_CC1NP);
 80047d6:	200a      	movs	r0, #10
 80047d8:	4381      	bics	r1, r0
  tmpccer |= TIM_ICPolarity;
 80047da:	430a      	orrs	r2, r1
  TIMx->CCMR1 = tmpccmr1;
 80047dc:	61a3      	str	r3, [r4, #24]
  TIMx->CCER = tmpccer;
 80047de:	6222      	str	r2, [r4, #32]
  tmpsmcr &= ~TIM_SMCR_TS;
 80047e0:	4b29      	ldr	r3, [pc, #164]	@ (8004888 <HAL_TIM_ConfigClockSource+0x128>)
  tmpsmcr = TIMx->SMCR;
 80047e2:	68a2      	ldr	r2, [r4, #8]
  tmpsmcr &= ~TIM_SMCR_TS;
 80047e4:	401a      	ands	r2, r3
  tmpsmcr |= (InputTriggerSource | TIM_SLAVEMODE_EXTERNAL1);
 80047e6:	2357      	movs	r3, #87	@ 0x57
 80047e8:	e011      	b.n	800480e <HAL_TIM_ConfigClockSource+0xae>
  switch (sClockSourceConfig->ClockSource)
 80047ea:	2280      	movs	r2, #128	@ 0x80
 80047ec:	0152      	lsls	r2, r2, #5
 80047ee:	4293      	cmp	r3, r2
 80047f0:	d00f      	beq.n	8004812 <HAL_TIM_ConfigClockSource+0xb2>
 80047f2:	2280      	movs	r2, #128	@ 0x80
 80047f4:	0192      	lsls	r2, r2, #6
 80047f6:	4293      	cmp	r3, r2
 80047f8:	d00d      	beq.n	8004816 <HAL_TIM_ConfigClockSource+0xb6>
 80047fa:	2b70      	cmp	r3, #112	@ 0x70
 80047fc:	d1d1      	bne.n	80047a2 <HAL_TIM_ConfigClockSource+0x42>
      TIM_ETR_SetConfig(htim->Instance,
 80047fe:	68cb      	ldr	r3, [r1, #12]
 8004800:	684a      	ldr	r2, [r1, #4]
 8004802:	0020      	movs	r0, r4
 8004804:	6889      	ldr	r1, [r1, #8]
 8004806:	f7ff ff9f 	bl	8004748 <TIM_ETR_SetConfig>
      tmpsmcr |= (TIM_SLAVEMODE_EXTERNAL1 | TIM_CLOCKSOURCE_ETRMODE1);
 800480a:	2377      	movs	r3, #119	@ 0x77
      tmpsmcr = htim->Instance->SMCR;
 800480c:	68a2      	ldr	r2, [r4, #8]
      tmpsmcr |= (TIM_SLAVEMODE_EXTERNAL1 | TIM_CLOCKSOURCE_ETRMODE1);
 800480e:	4313      	orrs	r3, r2
      htim->Instance->SMCR = tmpsmcr;
 8004810:	60a3      	str	r3, [r4, #8]
  HAL_StatusTypeDef status = HAL_OK;
 8004812:	2000      	movs	r0, #0
 8004814:	e7c5      	b.n	80047a2 <HAL_TIM_ConfigClockSource+0x42>
      TIM_ETR_SetConfig(htim->Instance,
 8004816:	68cb      	ldr	r3, [r1, #12]
 8004818:	684a      	ldr	r2, [r1, #4]
 800481a:	0020      	movs	r0, r4
 800481c:	6889      	ldr	r1, [r1, #8]
 800481e:	f7ff ff93 	bl	8004748 <TIM_ETR_SetConfig>
      htim->Instance->SMCR |= TIM_SMCR_ECE;
 8004822:	2380      	movs	r3, #128	@ 0x80
 8004824:	68a2      	ldr	r2, [r4, #8]
 8004826:	01db      	lsls	r3, r3, #7
 8004828:	e7f1      	b.n	800480e <HAL_TIM_ConfigClockSource+0xae>
  TIMx->CCER &= ~TIM_CCER_CC2E;
 800482a:	2710      	movs	r7, #16
                               sClockSourceConfig->ClockPolarity,
 800482c:	684b      	ldr	r3, [r1, #4]
                               sClockSourceConfig->ClockFilter);
 800482e:	68ca      	ldr	r2, [r1, #12]
  tmpccer = TIMx->CCER;
 8004830:	6a21      	ldr	r1, [r4, #32]
  TIMx->CCER &= ~TIM_CCER_CC2E;
 8004832:	6a20      	ldr	r0, [r4, #32]
  tmpccmr1 |= (TIM_ICFilter << 12U);
 8004834:	0312      	lsls	r2, r2, #12
  TIMx->CCER &= ~TIM_CCER_CC2E;
 8004836:	43b8      	bics	r0, r7
 8004838:	6220      	str	r0, [r4, #32]
  tmpccmr1 = TIMx->CCMR1;
 800483a:	69a0      	ldr	r0, [r4, #24]
  tmpccmr1 &= ~TIM_CCMR1_IC2F;
 800483c:	4f13      	ldr	r7, [pc, #76]	@ (800488c <HAL_TIM_ConfigClockSource+0x12c>)
  tmpccer |= (TIM_ICPolarity << 4U);
 800483e:	011b      	lsls	r3, r3, #4
  tmpccmr1 &= ~TIM_CCMR1_IC2F;
 8004840:	4038      	ands	r0, r7
  tmpccmr1 |= (TIM_ICFilter << 12U);
 8004842:	4302      	orrs	r2, r0
  tmpccer &= ~(TIM_CCER_CC2P | TIM_CCER_CC2NP);
 8004844:	20a0      	movs	r0, #160	@ 0xa0
 8004846:	4381      	bics	r1, r0
  tmpccer |= (TIM_ICPolarity << 4U);
 8004848:	430b      	orrs	r3, r1
  TIMx->CCMR1 = tmpccmr1 ;
 800484a:	61a2      	str	r2, [r4, #24]
  TIMx->CCER = tmpccer;
 800484c:	6223      	str	r3, [r4, #32]
  tmpsmcr = TIMx->SMCR;
 800484e:	68a2      	ldr	r2, [r4, #8]
  tmpsmcr &= ~TIM_SMCR_TS;
 8004850:	4b0d      	ldr	r3, [pc, #52]	@ (8004888 <HAL_TIM_ConfigClockSource+0x128>)
 8004852:	401a      	ands	r2, r3
  tmpsmcr |= (InputTriggerSource | TIM_SLAVEMODE_EXTERNAL1);
 8004854:	2367      	movs	r3, #103	@ 0x67
 8004856:	e7da      	b.n	800480e <HAL_TIM_ConfigClockSource+0xae>
                               sClockSourceConfig->ClockPolarity,
 8004858:	684a      	ldr	r2, [r1, #4]
                               sClockSourceConfig->ClockFilter);
 800485a:	68cb      	ldr	r3, [r1, #12]
  tmpccer = TIMx->CCER;
 800485c:	6a21      	ldr	r1, [r4, #32]
  TIMx->CCER &= ~TIM_CCER_CC1E;
 800485e:	6a27      	ldr	r7, [r4, #32]
  tmpccmr1 |= (TIM_ICFilter << 4U);
 8004860:	011b      	lsls	r3, r3, #4
  TIMx->CCER &= ~TIM_CCER_CC1E;
 8004862:	4387      	bics	r7, r0
 8004864:	6227      	str	r7, [r4, #32]
  tmpccmr1 &= ~TIM_CCMR1_IC1F;
 8004866:	27f0      	movs	r7, #240	@ 0xf0
  tmpccmr1 = TIMx->CCMR1;
 8004868:	69a0      	ldr	r0, [r4, #24]
  tmpccmr1 &= ~TIM_CCMR1_IC1F;
 800486a:	43b8      	bics	r0, r7
  tmpccmr1 |= (TIM_ICFilter << 4U);
 800486c:	4303      	orrs	r3, r0
  tmpccer &= ~(TIM_CCER_CC1P | TIM_CCER_CC1NP);
 800486e:	200a      	movs	r0, #10
 8004870:	4381      	bics	r1, r0
  tmpccer |= TIM_ICPolarity;
 8004872:	430a      	orrs	r2, r1
  TIMx->CCMR1 = tmpccmr1;
 8004874:	61a3      	str	r3, [r4, #24]
  TIMx->CCER = tmpccer;
 8004876:	6222      	str	r2, [r4, #32]
  tmpsmcr &= ~TIM_SMCR_TS;
 8004878:	4b03      	ldr	r3, [pc, #12]	@ (8004888 <HAL_TIM_ConfigClockSource+0x128>)
  tmpsmcr = TIMx->SMCR;
 800487a:	68a2      	ldr	r2, [r4, #8]
  tmpsmcr &= ~TIM_SMCR_TS;
 800487c:	401a      	ands	r2, r3
  tmpsmcr |= (InputTriggerSource | TIM_SLAVEMODE_EXTERNAL1);
 800487e:	2347      	movs	r3, #71	@ 0x47
 8004880:	e7c5      	b.n	800480e <HAL_TIM_ConfigClockSource+0xae>
 8004882:	46c0      	nop			@ (mov r8, r8)
 8004884:	ffce0088 	.word	0xffce0088
 8004888:	ffcfff8f 	.word	0xffcfff8f
 800488c:	ffff0fff 	.word	0xffff0fff

08004890 <TIM_CCxChannelCmd>:

  /* Check the parameters */
  assert_param(IS_TIM_CC1_INSTANCE(TIMx));
  assert_param(IS_TIM_CHANNELS(Channel));

  tmp = TIM_CCER_CC1E << (Channel & 0x1FU); /* 0x1FU = 31 bits max shift */
 8004890:	231f      	movs	r3, #31
{
 8004892:	b510      	push	{r4, lr}
  tmp = TIM_CCER_CC1E << (Channel & 0x1FU); /* 0x1FU = 31 bits max shift */
 8004894:	2401      	movs	r4, #1
 8004896:	4019      	ands	r1, r3
 8004898:	408c      	lsls	r4, r1

  /* Reset the CCxE Bit */
  TIMx->CCER &= ~tmp;

  /* Set or reset the CCxE Bit */
  TIMx->CCER |= (uint32_t)(ChannelState << (Channel & 0x1FU)); /* 0x1FU = 31 bits max shift */
 800489a:	408a      	lsls	r2, r1
  TIMx->CCER &= ~tmp;
 800489c:	6a03      	ldr	r3, [r0, #32]
 800489e:	43a3      	bics	r3, r4
 80048a0:	6203      	str	r3, [r0, #32]
  TIMx->CCER |= (uint32_t)(ChannelState << (Channel & 0x1FU)); /* 0x1FU = 31 bits max shift */
 80048a2:	6a03      	ldr	r3, [r0, #32]
 80048a4:	431a      	orrs	r2, r3
 80048a6:	6202      	str	r2, [r0, #32]
}
 80048a8:	bd10      	pop	{r4, pc}
	...

080048ac <HAL_TIM_OC_Start>:
{
 80048ac:	0002      	movs	r2, r0
 80048ae:	b510      	push	{r4, lr}
 80048b0:	2908      	cmp	r1, #8
 80048b2:	d01c      	beq.n	80048ee <HAL_TIM_OC_Start+0x42>
 80048b4:	d806      	bhi.n	80048c4 <HAL_TIM_OC_Start+0x18>
 80048b6:	2900      	cmp	r1, #0
 80048b8:	d00b      	beq.n	80048d2 <HAL_TIM_OC_Start+0x26>
 80048ba:	2904      	cmp	r1, #4
 80048bc:	d014      	beq.n	80048e8 <HAL_TIM_OC_Start+0x3c>
  if (TIM_CHANNEL_STATE_GET(htim, Channel) != HAL_TIM_CHANNEL_STATE_READY)
 80048be:	0013      	movs	r3, r2
 80048c0:	3343      	adds	r3, #67	@ 0x43
 80048c2:	e008      	b.n	80048d6 <HAL_TIM_OC_Start+0x2a>
 80048c4:	290c      	cmp	r1, #12
 80048c6:	d015      	beq.n	80048f4 <HAL_TIM_OC_Start+0x48>
 80048c8:	2910      	cmp	r1, #16
 80048ca:	d1f8      	bne.n	80048be <HAL_TIM_OC_Start+0x12>
 80048cc:	0003      	movs	r3, r0
 80048ce:	3342      	adds	r3, #66	@ 0x42
 80048d0:	e001      	b.n	80048d6 <HAL_TIM_OC_Start+0x2a>
 80048d2:	0003      	movs	r3, r0
 80048d4:	333e      	adds	r3, #62	@ 0x3e
 80048d6:	781b      	ldrb	r3, [r3, #0]
 80048d8:	3b01      	subs	r3, #1
 80048da:	1e58      	subs	r0, r3, #1
 80048dc:	4183      	sbcs	r3, r0
 80048de:	b2db      	uxtb	r3, r3
    return HAL_ERROR;
 80048e0:	2001      	movs	r0, #1
  if (TIM_CHANNEL_STATE_GET(htim, Channel) != HAL_TIM_CHANNEL_STATE_READY)
 80048e2:	2b00      	cmp	r3, #0
 80048e4:	d009      	beq.n	80048fa <HAL_TIM_OC_Start+0x4e>
}
 80048e6:	bd10      	pop	{r4, pc}
  if (TIM_CHANNEL_STATE_GET(htim, Channel) != HAL_TIM_CHANNEL_STATE_READY)
 80048e8:	0003      	movs	r3, r0
 80048ea:	333f      	adds	r3, #63	@ 0x3f
 80048ec:	e7f3      	b.n	80048d6 <HAL_TIM_OC_Start+0x2a>
 80048ee:	0003      	movs	r3, r0
 80048f0:	3340      	adds	r3, #64	@ 0x40
 80048f2:	e7f0      	b.n	80048d6 <HAL_TIM_OC_Start+0x2a>
 80048f4:	0003      	movs	r3, r0
 80048f6:	3341      	adds	r3, #65	@ 0x41
 80048f8:	e7ed      	b.n	80048d6 <HAL_TIM_OC_Start+0x2a>
  TIM_CHANNEL_STATE_SET(htim, Channel, HAL_TIM_CHANNEL_STATE_BUSY);
 80048fa:	2302      	movs	r3, #2
 80048fc:	2908      	cmp	r1, #8
 80048fe:	d030      	beq.n	8004962 <HAL_TIM_OC_Start+0xb6>
 8004900:	d806      	bhi.n	8004910 <HAL_TIM_OC_Start+0x64>
 8004902:	2900      	cmp	r1, #0
 8004904:	d00b      	beq.n	800491e <HAL_TIM_OC_Start+0x72>
 8004906:	2904      	cmp	r1, #4
 8004908:	d028      	beq.n	800495c <HAL_TIM_OC_Start+0xb0>
 800490a:	0010      	movs	r0, r2
 800490c:	3043      	adds	r0, #67	@ 0x43
 800490e:	e008      	b.n	8004922 <HAL_TIM_OC_Start+0x76>
 8004910:	290c      	cmp	r1, #12
 8004912:	d029      	beq.n	8004968 <HAL_TIM_OC_Start+0xbc>
 8004914:	2910      	cmp	r1, #16
 8004916:	d1f8      	bne.n	800490a <HAL_TIM_OC_Start+0x5e>
 8004918:	0010      	movs	r0, r2
 800491a:	3042      	adds	r0, #66	@ 0x42
 800491c:	e001      	b.n	8004922 <HAL_TIM_OC_Start+0x76>
 800491e:	0010      	movs	r0, r2
 8004920:	303e      	adds	r0, #62	@ 0x3e
 8004922:	7003      	strb	r3, [r0, #0]
  TIM_CCxChannelCmd(htim->Instance, Channel, TIM_CCx_ENABLE);
 8004924:	6814      	ldr	r4, [r2, #0]
 8004926:	2201      	movs	r2, #1
 8004928:	0020      	movs	r0, r4
 800492a:	f7ff ffb1 	bl	8004890 <TIM_CCxChannelCmd>
  if (IS_TIM_BREAK_INSTANCE(htim->Instance) != RESET)
 800492e:	4a18      	ldr	r2, [pc, #96]	@ (8004990 <HAL_TIM_OC_Start+0xe4>)
 8004930:	4294      	cmp	r4, r2
 8004932:	d005      	beq.n	8004940 <HAL_TIM_OC_Start+0x94>
 8004934:	4b17      	ldr	r3, [pc, #92]	@ (8004994 <HAL_TIM_OC_Start+0xe8>)
 8004936:	429c      	cmp	r4, r3
 8004938:	d002      	beq.n	8004940 <HAL_TIM_OC_Start+0x94>
 800493a:	4b17      	ldr	r3, [pc, #92]	@ (8004998 <HAL_TIM_OC_Start+0xec>)
 800493c:	429c      	cmp	r4, r3
 800493e:	d116      	bne.n	800496e <HAL_TIM_OC_Start+0xc2>
    __HAL_TIM_MOE_ENABLE(htim);
 8004940:	2380      	movs	r3, #128	@ 0x80
 8004942:	6c61      	ldr	r1, [r4, #68]	@ 0x44
 8004944:	021b      	lsls	r3, r3, #8
 8004946:	430b      	orrs	r3, r1
 8004948:	6463      	str	r3, [r4, #68]	@ 0x44
  if (IS_TIM_SLAVE_INSTANCE(htim->Instance))
 800494a:	4294      	cmp	r4, r2
 800494c:	d116      	bne.n	800497c <HAL_TIM_OC_Start+0xd0>
    tmpsmcr = htim->Instance->SMCR & TIM_SMCR_SMS;
 800494e:	68a3      	ldr	r3, [r4, #8]
 8004950:	4a12      	ldr	r2, [pc, #72]	@ (800499c <HAL_TIM_OC_Start+0xf0>)
 8004952:	4013      	ands	r3, r2
    if (!IS_TIM_SLAVEMODE_TRIGGER_ENABLED(tmpsmcr))
 8004954:	2b06      	cmp	r3, #6
 8004956:	d116      	bne.n	8004986 <HAL_TIM_OC_Start+0xda>
  return HAL_OK;
 8004958:	2000      	movs	r0, #0
 800495a:	e7c4      	b.n	80048e6 <HAL_TIM_OC_Start+0x3a>
  TIM_CHANNEL_STATE_SET(htim, Channel, HAL_TIM_CHANNEL_STATE_BUSY);
 800495c:	0010      	movs	r0, r2
 800495e:	303f      	adds	r0, #63	@ 0x3f
 8004960:	e7df      	b.n	8004922 <HAL_TIM_OC_Start+0x76>
 8004962:	0010      	movs	r0, r2
 8004964:	3040      	adds	r0, #64	@ 0x40
 8004966:	e7dc      	b.n	8004922 <HAL_TIM_OC_Start+0x76>
 8004968:	0010      	movs	r0, r2
 800496a:	3041      	adds	r0, #65	@ 0x41
 800496c:	e7d9      	b.n	8004922 <HAL_TIM_OC_Start+0x76>
  if (IS_TIM_SLAVE_INSTANCE(htim->Instance))
 800496e:	2380      	movs	r3, #128	@ 0x80
 8004970:	05db      	lsls	r3, r3, #23
 8004972:	429c      	cmp	r4, r3
 8004974:	d0eb      	beq.n	800494e <HAL_TIM_OC_Start+0xa2>
 8004976:	4b0a      	ldr	r3, [pc, #40]	@ (80049a0 <HAL_TIM_OC_Start+0xf4>)
 8004978:	429c      	cmp	r4, r3
 800497a:	d0e8      	beq.n	800494e <HAL_TIM_OC_Start+0xa2>
      __HAL_TIM_ENABLE(htim);
 800497c:	2301      	movs	r3, #1
 800497e:	6822      	ldr	r2, [r4, #0]
 8004980:	4313      	orrs	r3, r2
 8004982:	6023      	str	r3, [r4, #0]
 8004984:	e7e8      	b.n	8004958 <HAL_TIM_OC_Start+0xac>
    if (!IS_TIM_SLAVEMODE_TRIGGER_ENABLED(tmpsmcr))
 8004986:	2280      	movs	r2, #128	@ 0x80
 8004988:	0252      	lsls	r2, r2, #9
 800498a:	4293      	cmp	r3, r2
 800498c:	d1f6      	bne.n	800497c <HAL_TIM_OC_Start+0xd0>
 800498e:	e7e3      	b.n	8004958 <HAL_TIM_OC_Start+0xac>
 8004990:	40012c00 	.word	0x40012c00
 8004994:	40014400 	.word	0x40014400
 8004998:	40014800 	.word	0x40014800
 800499c:	00010007 	.word	0x00010007
 80049a0:	40000400 	.word	0x40000400

080049a4 <HAL_TIM_PWM_Start>:
HAL_StatusTypeDef HAL_TIM_PWM_Start(TIM_HandleTypeDef *htim, uint32_t Channel)
 80049a4:	b510      	push	{r4, lr}
 80049a6:	f7ff ff81 	bl	80048ac <HAL_TIM_OC_Start>
 80049aa:	bd10      	pop	{r4, pc}

080049ac <HAL_TIMEx_MasterConfigSynchronization>:
  *         mode.
  * @retval HAL status
  */
HAL_StatusTypeDef HAL_TIMEx_MasterConfigSynchronization(TIM_HandleTypeDef *htim,
                                                        const TIM_MasterConfigTypeDef *sMasterConfig)
{
 80049ac:	b5f0      	push	{r4, r5, r6, r7, lr}
  assert_param(IS_TIM_MASTER_INSTANCE(htim->Instance));
  assert_param(IS_TIM_TRGO_SOURCE(sMasterConfig->MasterOutputTrigger));
  assert_param(IS_TIM_MSM_STATE(sMasterConfig->MasterSlaveMode));

  /* Check input state */
  __HAL_LOCK(htim);
 80049ae:	0004      	movs	r4, r0
 80049b0:	2202      	movs	r2, #2
 80049b2:	343c      	adds	r4, #60	@ 0x3c
 80049b4:	7825      	ldrb	r5, [r4, #0]
{
 80049b6:	0003      	movs	r3, r0
  __HAL_LOCK(htim);
 80049b8:	0010      	movs	r0, r2
 80049ba:	2d01      	cmp	r5, #1
 80049bc:	d023      	beq.n	8004a06 <HAL_TIMEx_MasterConfigSynchronization+0x5a>

  /* Change the handler state */
  htim->State = HAL_TIM_STATE_BUSY;
 80049be:	001d      	movs	r5, r3
 80049c0:	353d      	adds	r5, #61	@ 0x3d
 80049c2:	702a      	strb	r2, [r5, #0]

  /* Get the TIMx CR2 register value */
  tmpcr2 = htim->Instance->CR2;
 80049c4:	681a      	ldr	r2, [r3, #0]

  /* Get the TIMx SMCR register value */
  tmpsmcr = htim->Instance->SMCR;

  /* If the timer supports ADC synchronization through TRGO2, set the master mode selection 2 */
  if (IS_TIM_TRGO2_INSTANCE(htim->Instance))
 80049c6:	4e10      	ldr	r6, [pc, #64]	@ (8004a08 <HAL_TIMEx_MasterConfigSynchronization+0x5c>)
  tmpcr2 = htim->Instance->CR2;
 80049c8:	6853      	ldr	r3, [r2, #4]
  tmpsmcr = htim->Instance->SMCR;
 80049ca:	6890      	ldr	r0, [r2, #8]
  if (IS_TIM_TRGO2_INSTANCE(htim->Instance))
 80049cc:	42b2      	cmp	r2, r6
 80049ce:	d103      	bne.n	80049d8 <HAL_TIMEx_MasterConfigSynchronization+0x2c>
  {
    /* Check the parameters */
    assert_param(IS_TIM_TRGO2_SOURCE(sMasterConfig->MasterOutputTrigger2));

    /* Clear the MMS2 bits */
    tmpcr2 &= ~TIM_CR2_MMS2;
 80049d0:	4f0e      	ldr	r7, [pc, #56]	@ (8004a0c <HAL_TIMEx_MasterConfigSynchronization+0x60>)
 80049d2:	403b      	ands	r3, r7
    /* Select the TRGO2 source*/
    tmpcr2 |= sMasterConfig->MasterOutputTrigger2;
 80049d4:	684f      	ldr	r7, [r1, #4]
 80049d6:	433b      	orrs	r3, r7
  }

  /* Reset the MMS Bits */
  tmpcr2 &= ~TIM_CR2_MMS;
 80049d8:	2770      	movs	r7, #112	@ 0x70
 80049da:	43bb      	bics	r3, r7
  /* Select the TRGO source */
  tmpcr2 |=  sMasterConfig->MasterOutputTrigger;
 80049dc:	680f      	ldr	r7, [r1, #0]
 80049de:	433b      	orrs	r3, r7

  /* Update TIMx CR2 */
  htim->Instance->CR2 = tmpcr2;
 80049e0:	6053      	str	r3, [r2, #4]

  if (IS_TIM_SLAVE_INSTANCE(htim->Instance))
 80049e2:	42b2      	cmp	r2, r6
 80049e4:	d006      	beq.n	80049f4 <HAL_TIMEx_MasterConfigSynchronization+0x48>
 80049e6:	2380      	movs	r3, #128	@ 0x80
 80049e8:	05db      	lsls	r3, r3, #23
 80049ea:	429a      	cmp	r2, r3
 80049ec:	d002      	beq.n	80049f4 <HAL_TIMEx_MasterConfigSynchronization+0x48>
 80049ee:	4b08      	ldr	r3, [pc, #32]	@ (8004a10 <HAL_TIMEx_MasterConfigSynchronization+0x64>)
 80049f0:	429a      	cmp	r2, r3
 80049f2:	d104      	bne.n	80049fe <HAL_TIMEx_MasterConfigSynchronization+0x52>
  {
    /* Reset the MSM Bit */
    tmpsmcr &= ~TIM_SMCR_MSM;
 80049f4:	2380      	movs	r3, #128	@ 0x80
 80049f6:	4398      	bics	r0, r3
    /* Set master mode */
    tmpsmcr |= sMasterConfig->MasterSlaveMode;
 80049f8:	688b      	ldr	r3, [r1, #8]
 80049fa:	4318      	orrs	r0, r3

    /* Update TIMx SMCR */
    htim->Instance->SMCR = tmpsmcr;
 80049fc:	6090      	str	r0, [r2, #8]
  }

  /* Change the htim state */
  htim->State = HAL_TIM_STATE_READY;
 80049fe:	2301      	movs	r3, #1

  __HAL_UNLOCK(htim);
 8004a00:	2000      	movs	r0, #0
  htim->State = HAL_TIM_STATE_READY;
 8004a02:	702b      	strb	r3, [r5, #0]
  __HAL_UNLOCK(htim);
 8004a04:	7020      	strb	r0, [r4, #0]

  return HAL_OK;
}
 8004a06:	bdf0      	pop	{r4, r5, r6, r7, pc}
 8004a08:	40012c00 	.word	0x40012c00
 8004a0c:	ff0fffff 	.word	0xff0fffff
 8004a10:	40000400 	.word	0x40000400

08004a14 <HAL_TIMEx_ConfigBreakDeadTime>:
  *         interrupt can be enabled by calling the @ref __HAL_TIM_ENABLE_IT macro.
  * @retval HAL status
  */
HAL_StatusTypeDef HAL_TIMEx_ConfigBreakDeadTime(TIM_HandleTypeDef *htim,
                                                const TIM_BreakDeadTimeConfigTypeDef *sBreakDeadTimeConfig)
{
 8004a14:	b510      	push	{r4, lr}
  assert_param(IS_TIM_BREAK_FILTER(sBreakDeadTimeConfig->BreakFilter));
  assert_param(IS_TIM_AUTOMATIC_OUTPUT_STATE(sBreakDeadTimeConfig->AutomaticOutput));
  assert_param(IS_TIM_BREAK_AFMODE(sBreakDeadTimeConfig->BreakAFMode));

  /* Check input state */
  __HAL_LOCK(htim);
 8004a16:	0004      	movs	r4, r0
 8004a18:	343c      	adds	r4, #60	@ 0x3c
 8004a1a:	7823      	ldrb	r3, [r4, #0]
{
 8004a1c:	0002      	movs	r2, r0
  __HAL_LOCK(htim);
 8004a1e:	2002      	movs	r0, #2
 8004a20:	2b01      	cmp	r3, #1
 8004a22:	d039      	beq.n	8004a98 <HAL_TIMEx_ConfigBreakDeadTime+0x84>
  /* Set the Lock level, the Break enable Bit and the Polarity, the OSSR State,
     the OSSI State, the dead time value and the Automatic Output Enable Bit */

  /* Set the BDTR bits */
  MODIFY_REG(tmpbdtr, TIM_BDTR_DTG, sBreakDeadTimeConfig->DeadTime);
  MODIFY_REG(tmpbdtr, TIM_BDTR_LOCK, sBreakDeadTimeConfig->LockLevel);
 8004a24:	481d      	ldr	r0, [pc, #116]	@ (8004a9c <HAL_TIMEx_ConfigBreakDeadTime+0x88>)
 8004a26:	68cb      	ldr	r3, [r1, #12]
 8004a28:	4003      	ands	r3, r0
 8004a2a:	6888      	ldr	r0, [r1, #8]
 8004a2c:	4303      	orrs	r3, r0
  MODIFY_REG(tmpbdtr, TIM_BDTR_OSSI, sBreakDeadTimeConfig->OffStateIDLEMode);
 8004a2e:	481c      	ldr	r0, [pc, #112]	@ (8004aa0 <HAL_TIMEx_ConfigBreakDeadTime+0x8c>)
 8004a30:	4003      	ands	r3, r0
 8004a32:	6848      	ldr	r0, [r1, #4]
 8004a34:	4303      	orrs	r3, r0
  MODIFY_REG(tmpbdtr, TIM_BDTR_OSSR, sBreakDeadTimeConfig->OffStateRunMode);
 8004a36:	481b      	ldr	r0, [pc, #108]	@ (8004aa4 <HAL_TIMEx_ConfigBreakDeadTime+0x90>)
 8004a38:	4003      	ands	r3, r0
 8004a3a:	6808      	ldr	r0, [r1, #0]
 8004a3c:	4303      	orrs	r3, r0
  MODIFY_REG(tmpbdtr, TIM_BDTR_BKE, sBreakDeadTimeConfig->BreakState);
 8004a3e:	481a      	ldr	r0, [pc, #104]	@ (8004aa8 <HAL_TIMEx_ConfigBreakDeadTime+0x94>)
 8004a40:	4003      	ands	r3, r0
 8004a42:	6908      	ldr	r0, [r1, #16]
 8004a44:	4303      	orrs	r3, r0
  MODIFY_REG(tmpbdtr, TIM_BDTR_BKP, sBreakDeadTimeConfig->BreakPolarity);
 8004a46:	4819      	ldr	r0, [pc, #100]	@ (8004aac <HAL_TIMEx_ConfigBreakDeadTime+0x98>)
 8004a48:	4003      	ands	r3, r0
 8004a4a:	6948      	ldr	r0, [r1, #20]
 8004a4c:	4303      	orrs	r3, r0
  MODIFY_REG(tmpbdtr, TIM_BDTR_AOE, sBreakDeadTimeConfig->AutomaticOutput);
 8004a4e:	4818      	ldr	r0, [pc, #96]	@ (8004ab0 <HAL_TIMEx_ConfigBreakDeadTime+0x9c>)
 8004a50:	4003      	ands	r3, r0
 8004a52:	6b08      	ldr	r0, [r1, #48]	@ 0x30
 8004a54:	4303      	orrs	r3, r0
  MODIFY_REG(tmpbdtr, TIM_BDTR_BKF, (sBreakDeadTimeConfig->BreakFilter << TIM_BDTR_BKF_Pos));
 8004a56:	4817      	ldr	r0, [pc, #92]	@ (8004ab4 <HAL_TIMEx_ConfigBreakDeadTime+0xa0>)
 8004a58:	4003      	ands	r3, r0
 8004a5a:	6988      	ldr	r0, [r1, #24]
 8004a5c:	0400      	lsls	r0, r0, #16
 8004a5e:	4303      	orrs	r3, r0
  MODIFY_REG(tmpbdtr, TIM_BDTR_BKBID, sBreakDeadTimeConfig->BreakAFMode);
 8004a60:	4815      	ldr	r0, [pc, #84]	@ (8004ab8 <HAL_TIMEx_ConfigBreakDeadTime+0xa4>)
 8004a62:	4003      	ands	r3, r0
 8004a64:	69c8      	ldr	r0, [r1, #28]
 8004a66:	4303      	orrs	r3, r0

  if (IS_TIM_BKIN2_INSTANCE(htim->Instance))
 8004a68:	6810      	ldr	r0, [r2, #0]
 8004a6a:	4a14      	ldr	r2, [pc, #80]	@ (8004abc <HAL_TIMEx_ConfigBreakDeadTime+0xa8>)
 8004a6c:	4290      	cmp	r0, r2
 8004a6e:	d110      	bne.n	8004a92 <HAL_TIMEx_ConfigBreakDeadTime+0x7e>
    assert_param(IS_TIM_BREAK2_POLARITY(sBreakDeadTimeConfig->Break2Polarity));
    assert_param(IS_TIM_BREAK_FILTER(sBreakDeadTimeConfig->Break2Filter));
    assert_param(IS_TIM_BREAK2_AFMODE(sBreakDeadTimeConfig->Break2AFMode));

    /* Set the BREAK2 input related BDTR bits */
    MODIFY_REG(tmpbdtr, TIM_BDTR_BK2F, (sBreakDeadTimeConfig->Break2Filter << TIM_BDTR_BK2F_Pos));
 8004a70:	4a13      	ldr	r2, [pc, #76]	@ (8004ac0 <HAL_TIMEx_ConfigBreakDeadTime+0xac>)
 8004a72:	4013      	ands	r3, r2
 8004a74:	6a8a      	ldr	r2, [r1, #40]	@ 0x28
 8004a76:	0512      	lsls	r2, r2, #20
 8004a78:	431a      	orrs	r2, r3
    MODIFY_REG(tmpbdtr, TIM_BDTR_BK2E, sBreakDeadTimeConfig->Break2State);
 8004a7a:	4b12      	ldr	r3, [pc, #72]	@ (8004ac4 <HAL_TIMEx_ConfigBreakDeadTime+0xb0>)
 8004a7c:	401a      	ands	r2, r3
 8004a7e:	6a0b      	ldr	r3, [r1, #32]
 8004a80:	431a      	orrs	r2, r3
    MODIFY_REG(tmpbdtr, TIM_BDTR_BK2P, sBreakDeadTimeConfig->Break2Polarity);
 8004a82:	4b11      	ldr	r3, [pc, #68]	@ (8004ac8 <HAL_TIMEx_ConfigBreakDeadTime+0xb4>)
 8004a84:	401a      	ands	r2, r3
 8004a86:	6a4b      	ldr	r3, [r1, #36]	@ 0x24
 8004a88:	431a      	orrs	r2, r3
    MODIFY_REG(tmpbdtr, TIM_BDTR_BK2BID, sBreakDeadTimeConfig->Break2AFMode);
 8004a8a:	4b10      	ldr	r3, [pc, #64]	@ (8004acc <HAL_TIMEx_ConfigBreakDeadTime+0xb8>)
 8004a8c:	401a      	ands	r2, r3
 8004a8e:	6acb      	ldr	r3, [r1, #44]	@ 0x2c
 8004a90:	4313      	orrs	r3, r2
  }

  /* Set TIMx_BDTR */
  htim->Instance->BDTR = tmpbdtr;
 8004a92:	6443      	str	r3, [r0, #68]	@ 0x44

  __HAL_UNLOCK(htim);
 8004a94:	2000      	movs	r0, #0
 8004a96:	7020      	strb	r0, [r4, #0]

  return HAL_OK;
}
 8004a98:	bd10      	pop	{r4, pc}
 8004a9a:	46c0      	nop			@ (mov r8, r8)
 8004a9c:	fffffcff 	.word	0xfffffcff
 8004aa0:	fffffbff 	.word	0xfffffbff
 8004aa4:	fffff7ff 	.word	0xfffff7ff
 8004aa8:	ffffefff 	.word	0xffffefff
 8004aac:	ffffdfff 	.word	0xffffdfff
 8004ab0:	ffffbfff 	.word	0xffffbfff
 8004ab4:	fff0ffff 	.word	0xfff0ffff
 8004ab8:	efffffff 	.word	0xefffffff
 8004abc:	40012c00 	.word	0x40012c00
 8004ac0:	ff0fffff 	.word	0xff0fffff
 8004ac4:	feffffff 	.word	0xfeffffff
 8004ac8:	fdffffff 	.word	0xfdffffff
 8004acc:	dfffffff 	.word	0xdfffffff

08004ad0 <UART_EndRxTransfer>:
  * @brief  End ongoing Rx transfer on UART peripheral (following error detection or Reception completion).
  * @param  huart UART handle.
  * @retval None
  */
static void UART_EndRxTransfer(UART_HandleTypeDef *huart)
{
 8004ad0:	b530      	push	{r4, r5, lr}
  __ASM volatile ("MRS %0, primask" : "=r" (result) :: "memory");
 8004ad2:	f3ef 8410 	mrs	r4, PRIMASK
  __ASM volatile ("MSR primask, %0" : : "r" (priMask) : "memory");
 8004ad6:	2201      	movs	r2, #1
 8004ad8:	f382 8810 	msr	PRIMASK, r2
  /* Disable RXNE, PE and ERR (Frame error, noise error, overrun error) interrupts */
  ATOMIC_CLEAR_BIT(huart->Instance->CR1, (USART_CR1_RXNEIE_RXFNEIE | USART_CR1_PEIE));
 8004adc:	6801      	ldr	r1, [r0, #0]
 8004ade:	4d13      	ldr	r5, [pc, #76]	@ (8004b2c <UART_EndRxTransfer+0x5c>)
 8004ae0:	680b      	ldr	r3, [r1, #0]
 8004ae2:	402b      	ands	r3, r5
 8004ae4:	600b      	str	r3, [r1, #0]
 8004ae6:	f384 8810 	msr	PRIMASK, r4
  __ASM volatile ("MRS %0, primask" : "=r" (result) :: "memory");
 8004aea:	f3ef 8110 	mrs	r1, PRIMASK
  __ASM volatile ("MSR primask, %0" : : "r" (priMask) : "memory");
 8004aee:	f382 8810 	msr	PRIMASK, r2
  ATOMIC_CLEAR_BIT(huart->Instance->CR3, (USART_CR3_EIE | USART_CR3_RXFTIE));
 8004af2:	6802      	ldr	r2, [r0, #0]
 8004af4:	4c0e      	ldr	r4, [pc, #56]	@ (8004b30 <UART_EndRxTransfer+0x60>)
 8004af6:	6893      	ldr	r3, [r2, #8]
 8004af8:	4023      	ands	r3, r4
 8004afa:	6093      	str	r3, [r2, #8]
 8004afc:	f381 8810 	msr	PRIMASK, r1

  /* In case of reception waiting for IDLE event, disable also the IDLE IE interrupt source */
  if (huart->ReceptionType == HAL_UART_RECEPTION_TOIDLE)
 8004b00:	6ec3      	ldr	r3, [r0, #108]	@ 0x6c
 8004b02:	2b01      	cmp	r3, #1
 8004b04:	d10a      	bne.n	8004b1c <UART_EndRxTransfer+0x4c>
  __ASM volatile ("MRS %0, primask" : "=r" (result) :: "memory");
 8004b06:	f3ef 8110 	mrs	r1, PRIMASK
  __ASM volatile ("MSR primask, %0" : : "r" (priMask) : "memory");
 8004b0a:	f383 8810 	msr	PRIMASK, r3
  {
    ATOMIC_CLEAR_BIT(huart->Instance->CR1, USART_CR1_IDLEIE);
 8004b0e:	2410      	movs	r4, #16
 8004b10:	6802      	ldr	r2, [r0, #0]
 8004b12:	6813      	ldr	r3, [r2, #0]
 8004b14:	43a3      	bics	r3, r4
 8004b16:	6013      	str	r3, [r2, #0]
 8004b18:	f381 8810 	msr	PRIMASK, r1
  }

  /* At end of Rx process, restore huart->RxState to Ready */
  huart->RxState = HAL_UART_STATE_READY;
 8004b1c:	0003      	movs	r3, r0
 8004b1e:	2220      	movs	r2, #32
 8004b20:	338c      	adds	r3, #140	@ 0x8c
 8004b22:	601a      	str	r2, [r3, #0]
  huart->ReceptionType = HAL_UART_RECEPTION_STANDARD;
 8004b24:	2300      	movs	r3, #0
 8004b26:	66c3      	str	r3, [r0, #108]	@ 0x6c

  /* Reset RxIsr function pointer */
  huart->RxISR = NULL;
 8004b28:	6743      	str	r3, [r0, #116]	@ 0x74
}
 8004b2a:	bd30      	pop	{r4, r5, pc}
 8004b2c:	fffffedf 	.word	0xfffffedf
 8004b30:	effffffe 	.word	0xeffffffe

08004b34 <HAL_UART_TxCpltCallback>:
__weak void HAL_UART_TxCpltCallback(UART_HandleTypeDef *huart)
 8004b34:	4770      	bx	lr

08004b36 <HAL_UART_ErrorCallback>:
__weak void HAL_UART_ErrorCallback(UART_HandleTypeDef *huart)
 8004b36:	4770      	bx	lr

08004b38 <UART_DMAAbortOnError>:
  * @param  hdma DMA handle.
  * @retval None
  */
static void UART_DMAAbortOnError(DMA_HandleTypeDef *hdma)
{
  UART_HandleTypeDef *huart = (UART_HandleTypeDef *)(hdma->Parent);
 8004b38:	6a80      	ldr	r0, [r0, #40]	@ 0x28
  huart->RxXferCount = 0U;
 8004b3a:	2300      	movs	r3, #0
 8004b3c:	0002      	movs	r2, r0
{
 8004b3e:	b510      	push	{r4, lr}
  huart->RxXferCount = 0U;
 8004b40:	325e      	adds	r2, #94	@ 0x5e
 8004b42:	8013      	strh	r3, [r2, #0]
  huart->TxXferCount = 0U;
 8004b44:	3a08      	subs	r2, #8
 8004b46:	8013      	strh	r3, [r2, #0]
#if (USE_HAL_UART_REGISTER_CALLBACKS == 1)
  /*Call registered error callback*/
  huart->ErrorCallback(huart);
#else
  /*Call legacy weak error callback*/
  HAL_UART_ErrorCallback(huart);
 8004b48:	f7ff fff5 	bl	8004b36 <HAL_UART_ErrorCallback>
#endif /* USE_HAL_UART_REGISTER_CALLBACKS */
}
 8004b4c:	bd10      	pop	{r4, pc}

08004b4e <HAL_UARTEx_RxEventCallback>:
}
 8004b4e:	4770      	bx	lr

08004b50 <HAL_UART_IRQHandler>:
{
 8004b50:	b5f7      	push	{r0, r1, r2, r4, r5, r6, r7, lr}
  uint32_t isrflags   = READ_REG(huart->Instance->ISR);
 8004b52:	6801      	ldr	r1, [r0, #0]
  errorflags = (isrflags & (uint32_t)(USART_ISR_PE | USART_ISR_FE | USART_ISR_ORE | USART_ISR_NE | USART_ISR_RTOF));
 8004b54:	4dc1      	ldr	r5, [pc, #772]	@ (8004e5c <HAL_UART_IRQHandler+0x30c>)
  uint32_t isrflags   = READ_REG(huart->Instance->ISR);
 8004b56:	69cb      	ldr	r3, [r1, #28]
{
 8004b58:	0004      	movs	r4, r0
  uint32_t cr1its     = READ_REG(huart->Instance->CR1);
 8004b5a:	680a      	ldr	r2, [r1, #0]
  uint32_t cr3its     = READ_REG(huart->Instance->CR3);
 8004b5c:	6888      	ldr	r0, [r1, #8]
  if (errorflags == 0U)
 8004b5e:	422b      	tst	r3, r5
 8004b60:	d110      	bne.n	8004b84 <HAL_UART_IRQHandler+0x34>
    if (((isrflags & USART_ISR_RXNE_RXFNE) != 0U)
 8004b62:	2520      	movs	r5, #32
 8004b64:	422b      	tst	r3, r5
 8004b66:	d100      	bne.n	8004b6a <HAL_UART_IRQHandler+0x1a>
 8004b68:	e09b      	b.n	8004ca2 <HAL_UART_IRQHandler+0x152>
            || ((cr3its & USART_CR3_RXFTIE) != 0U)))
 8004b6a:	2680      	movs	r6, #128	@ 0x80
 8004b6c:	0576      	lsls	r6, r6, #21
        && (((cr1its & USART_CR1_RXNEIE_RXFNEIE) != 0U)
 8004b6e:	4015      	ands	r5, r2
            || ((cr3its & USART_CR3_RXFTIE) != 0U)))
 8004b70:	4006      	ands	r6, r0
 8004b72:	4335      	orrs	r5, r6
 8004b74:	d100      	bne.n	8004b78 <HAL_UART_IRQHandler+0x28>
 8004b76:	e094      	b.n	8004ca2 <HAL_UART_IRQHandler+0x152>
      if (huart->RxISR != NULL)
 8004b78:	6f63      	ldr	r3, [r4, #116]	@ 0x74
      huart->TxISR(huart);
 8004b7a:	0020      	movs	r0, r4
    if (huart->TxISR != NULL)
 8004b7c:	2b00      	cmp	r3, #0
 8004b7e:	d000      	beq.n	8004b82 <HAL_UART_IRQHandler+0x32>
 8004b80:	e085      	b.n	8004c8e <HAL_UART_IRQHandler+0x13e>
 8004b82:	e085      	b.n	8004c90 <HAL_UART_IRQHandler+0x140>
      && ((((cr3its & (USART_CR3_RXFTIE | USART_CR3_EIE)) != 0U)
 8004b84:	4db6      	ldr	r5, [pc, #728]	@ (8004e60 <HAL_UART_IRQHandler+0x310>)
 8004b86:	4005      	ands	r5, r0
 8004b88:	9500      	str	r5, [sp, #0]
           || ((cr1its & (USART_CR1_RXNEIE_RXFNEIE | USART_CR1_PEIE | USART_CR1_RTOIE)) != 0U))))
 8004b8a:	4db6      	ldr	r5, [pc, #728]	@ (8004e64 <HAL_UART_IRQHandler+0x314>)
 8004b8c:	9e00      	ldr	r6, [sp, #0]
 8004b8e:	4015      	ands	r5, r2
 8004b90:	4335      	orrs	r5, r6
 8004b92:	d100      	bne.n	8004b96 <HAL_UART_IRQHandler+0x46>
 8004b94:	e085      	b.n	8004ca2 <HAL_UART_IRQHandler+0x152>
    if (((isrflags & USART_ISR_PE) != 0U) && ((cr1its & USART_CR1_PEIE) != 0U))
 8004b96:	0025      	movs	r5, r4
 8004b98:	2601      	movs	r6, #1
 8004b9a:	3590      	adds	r5, #144	@ 0x90
 8004b9c:	4233      	tst	r3, r6
 8004b9e:	d005      	beq.n	8004bac <HAL_UART_IRQHandler+0x5c>
 8004ba0:	05d7      	lsls	r7, r2, #23
 8004ba2:	d503      	bpl.n	8004bac <HAL_UART_IRQHandler+0x5c>
      __HAL_UART_CLEAR_FLAG(huart, UART_CLEAR_PEF);
 8004ba4:	620e      	str	r6, [r1, #32]
      huart->ErrorCode |= HAL_UART_ERROR_PE;
 8004ba6:	682f      	ldr	r7, [r5, #0]
 8004ba8:	433e      	orrs	r6, r7
 8004baa:	602e      	str	r6, [r5, #0]
    if (((isrflags & USART_ISR_FE) != 0U) && ((cr3its & USART_CR3_EIE) != 0U))
 8004bac:	2602      	movs	r6, #2
 8004bae:	4233      	tst	r3, r6
 8004bb0:	d00c      	beq.n	8004bcc <HAL_UART_IRQHandler+0x7c>
 8004bb2:	07c7      	lsls	r7, r0, #31
 8004bb4:	d50a      	bpl.n	8004bcc <HAL_UART_IRQHandler+0x7c>
      huart->ErrorCode |= HAL_UART_ERROR_FE;
 8004bb6:	0027      	movs	r7, r4
      __HAL_UART_CLEAR_FLAG(huart, UART_CLEAR_FEF);
 8004bb8:	620e      	str	r6, [r1, #32]
      huart->ErrorCode |= HAL_UART_ERROR_FE;
 8004bba:	3790      	adds	r7, #144	@ 0x90
 8004bbc:	683e      	ldr	r6, [r7, #0]
 8004bbe:	9701      	str	r7, [sp, #4]
 8004bc0:	46b4      	mov	ip, r6
 8004bc2:	2604      	movs	r6, #4
 8004bc4:	4667      	mov	r7, ip
 8004bc6:	433e      	orrs	r6, r7
 8004bc8:	9f01      	ldr	r7, [sp, #4]
 8004bca:	603e      	str	r6, [r7, #0]
    if (((isrflags & USART_ISR_NE) != 0U) && ((cr3its & USART_CR3_EIE) != 0U))
 8004bcc:	2604      	movs	r6, #4
 8004bce:	4233      	tst	r3, r6
 8004bd0:	d00c      	beq.n	8004bec <HAL_UART_IRQHandler+0x9c>
 8004bd2:	07c7      	lsls	r7, r0, #31
 8004bd4:	d50a      	bpl.n	8004bec <HAL_UART_IRQHandler+0x9c>
      huart->ErrorCode |= HAL_UART_ERROR_NE;
 8004bd6:	0027      	movs	r7, r4
      __HAL_UART_CLEAR_FLAG(huart, UART_CLEAR_NEF);
 8004bd8:	620e      	str	r6, [r1, #32]
      huart->ErrorCode |= HAL_UART_ERROR_NE;
 8004bda:	3790      	adds	r7, #144	@ 0x90
 8004bdc:	683e      	ldr	r6, [r7, #0]
 8004bde:	9701      	str	r7, [sp, #4]
 8004be0:	46b4      	mov	ip, r6
 8004be2:	2602      	movs	r6, #2
 8004be4:	4667      	mov	r7, ip
 8004be6:	433e      	orrs	r6, r7
 8004be8:	9f01      	ldr	r7, [sp, #4]
 8004bea:	603e      	str	r6, [r7, #0]
    if (((isrflags & USART_ISR_ORE) != 0U)
 8004bec:	2608      	movs	r6, #8
 8004bee:	46b4      	mov	ip, r6
 8004bf0:	4233      	tst	r3, r6
 8004bf2:	d009      	beq.n	8004c08 <HAL_UART_IRQHandler+0xb8>
        && (((cr1its & USART_CR1_RXNEIE_RXFNEIE) != 0U) ||
 8004bf4:	2720      	movs	r7, #32
 8004bf6:	9e00      	ldr	r6, [sp, #0]
 8004bf8:	4017      	ands	r7, r2
 8004bfa:	4337      	orrs	r7, r6
 8004bfc:	d004      	beq.n	8004c08 <HAL_UART_IRQHandler+0xb8>
      __HAL_UART_CLEAR_FLAG(huart, UART_CLEAR_OREF);
 8004bfe:	4666      	mov	r6, ip
 8004c00:	620e      	str	r6, [r1, #32]
      huart->ErrorCode |= HAL_UART_ERROR_ORE;
 8004c02:	682f      	ldr	r7, [r5, #0]
 8004c04:	433e      	orrs	r6, r7
 8004c06:	602e      	str	r6, [r5, #0]
    if (((isrflags & USART_ISR_RTOF) != 0U) && ((cr1its & USART_CR1_RTOIE) != 0U))
 8004c08:	2680      	movs	r6, #128	@ 0x80
 8004c0a:	0136      	lsls	r6, r6, #4
 8004c0c:	4233      	tst	r3, r6
 8004c0e:	d006      	beq.n	8004c1e <HAL_UART_IRQHandler+0xce>
 8004c10:	0157      	lsls	r7, r2, #5
 8004c12:	d504      	bpl.n	8004c1e <HAL_UART_IRQHandler+0xce>
      __HAL_UART_CLEAR_FLAG(huart, UART_CLEAR_RTOF);
 8004c14:	620e      	str	r6, [r1, #32]
      huart->ErrorCode |= HAL_UART_ERROR_RTO;
 8004c16:	2120      	movs	r1, #32
 8004c18:	682e      	ldr	r6, [r5, #0]
 8004c1a:	4331      	orrs	r1, r6
 8004c1c:	6029      	str	r1, [r5, #0]
    if (huart->ErrorCode != HAL_UART_ERROR_NONE)
 8004c1e:	6829      	ldr	r1, [r5, #0]
 8004c20:	2900      	cmp	r1, #0
 8004c22:	d035      	beq.n	8004c90 <HAL_UART_IRQHandler+0x140>
      if (((isrflags & USART_ISR_RXNE_RXFNE) != 0U)
 8004c24:	2120      	movs	r1, #32
 8004c26:	420b      	tst	r3, r1
 8004c28:	d00a      	beq.n	8004c40 <HAL_UART_IRQHandler+0xf0>
              || ((cr3its & USART_CR3_RXFTIE) != 0U)))
 8004c2a:	2380      	movs	r3, #128	@ 0x80
 8004c2c:	055b      	lsls	r3, r3, #21
          && (((cr1its & USART_CR1_RXNEIE_RXFNEIE) != 0U)
 8004c2e:	4011      	ands	r1, r2
              || ((cr3its & USART_CR3_RXFTIE) != 0U)))
 8004c30:	4003      	ands	r3, r0
 8004c32:	4319      	orrs	r1, r3
 8004c34:	d004      	beq.n	8004c40 <HAL_UART_IRQHandler+0xf0>
        if (huart->RxISR != NULL)
 8004c36:	6f63      	ldr	r3, [r4, #116]	@ 0x74
 8004c38:	2b00      	cmp	r3, #0
 8004c3a:	d001      	beq.n	8004c40 <HAL_UART_IRQHandler+0xf0>
          huart->RxISR(huart);
 8004c3c:	0020      	movs	r0, r4
 8004c3e:	4798      	blx	r3
      if ((HAL_IS_BIT_SET(huart->Instance->CR3, USART_CR3_DMAR)) ||
 8004c40:	6822      	ldr	r2, [r4, #0]
      errorcode = huart->ErrorCode;
 8004c42:	682b      	ldr	r3, [r5, #0]
      if ((HAL_IS_BIT_SET(huart->Instance->CR3, USART_CR3_DMAR)) ||
 8004c44:	2740      	movs	r7, #64	@ 0x40
 8004c46:	6896      	ldr	r6, [r2, #8]
          ((errorcode & (HAL_UART_ERROR_RTO | HAL_UART_ERROR_ORE)) != 0U))
 8004c48:	2228      	movs	r2, #40	@ 0x28
      if ((HAL_IS_BIT_SET(huart->Instance->CR3, USART_CR3_DMAR)) ||
 8004c4a:	403e      	ands	r6, r7
          ((errorcode & (HAL_UART_ERROR_RTO | HAL_UART_ERROR_ORE)) != 0U))
 8004c4c:	4013      	ands	r3, r2
        UART_EndRxTransfer(huart);
 8004c4e:	0020      	movs	r0, r4
      if ((HAL_IS_BIT_SET(huart->Instance->CR3, USART_CR3_DMAR)) ||
 8004c50:	431e      	orrs	r6, r3
 8004c52:	d022      	beq.n	8004c9a <HAL_UART_IRQHandler+0x14a>
        UART_EndRxTransfer(huart);
 8004c54:	f7ff ff3c 	bl	8004ad0 <UART_EndRxTransfer>
        if (HAL_IS_BIT_SET(huart->Instance->CR3, USART_CR3_DMAR))
 8004c58:	6823      	ldr	r3, [r4, #0]
 8004c5a:	689b      	ldr	r3, [r3, #8]
 8004c5c:	423b      	tst	r3, r7
 8004c5e:	d018      	beq.n	8004c92 <HAL_UART_IRQHandler+0x142>
  __ASM volatile ("MRS %0, primask" : "=r" (result) :: "memory");
 8004c60:	f3ef 8110 	mrs	r1, PRIMASK
  __ASM volatile ("MSR primask, %0" : : "r" (priMask) : "memory");
 8004c64:	2301      	movs	r3, #1
 8004c66:	f383 8810 	msr	PRIMASK, r3
          ATOMIC_CLEAR_BIT(huart->Instance->CR3, USART_CR3_DMAR);
 8004c6a:	0025      	movs	r5, r4
 8004c6c:	cd04      	ldmia	r5!, {r2}
 8004c6e:	6893      	ldr	r3, [r2, #8]
 8004c70:	43bb      	bics	r3, r7
 8004c72:	6093      	str	r3, [r2, #8]
 8004c74:	f381 8810 	msr	PRIMASK, r1
          if (huart->hdmarx != NULL)
 8004c78:	6fe8      	ldr	r0, [r5, #124]	@ 0x7c
 8004c7a:	2800      	cmp	r0, #0
 8004c7c:	d009      	beq.n	8004c92 <HAL_UART_IRQHandler+0x142>
            huart->hdmarx->XferAbortCallback = UART_DMAAbortOnError;
 8004c7e:	4b7a      	ldr	r3, [pc, #488]	@ (8004e68 <HAL_UART_IRQHandler+0x318>)
 8004c80:	6383      	str	r3, [r0, #56]	@ 0x38
            if (HAL_DMA_Abort_IT(huart->hdmarx) != HAL_OK)
 8004c82:	f7fe fc39 	bl	80034f8 <HAL_DMA_Abort_IT>
 8004c86:	2800      	cmp	r0, #0
 8004c88:	d002      	beq.n	8004c90 <HAL_UART_IRQHandler+0x140>
              huart->hdmarx->XferAbortCallback(huart->hdmarx);
 8004c8a:	6fe8      	ldr	r0, [r5, #124]	@ 0x7c
 8004c8c:	6b83      	ldr	r3, [r0, #56]	@ 0x38
 8004c8e:	4798      	blx	r3
}
 8004c90:	bdf7      	pop	{r0, r1, r2, r4, r5, r6, r7, pc}
            HAL_UART_ErrorCallback(huart);
 8004c92:	0020      	movs	r0, r4
 8004c94:	f7ff ff4f 	bl	8004b36 <HAL_UART_ErrorCallback>
 8004c98:	e7fa      	b.n	8004c90 <HAL_UART_IRQHandler+0x140>
        HAL_UART_ErrorCallback(huart);
 8004c9a:	f7ff ff4c 	bl	8004b36 <HAL_UART_ErrorCallback>
        huart->ErrorCode = HAL_UART_ERROR_NONE;
 8004c9e:	602e      	str	r6, [r5, #0]
 8004ca0:	e7f6      	b.n	8004c90 <HAL_UART_IRQHandler+0x140>
  if ((huart->ReceptionType == HAL_UART_RECEPTION_TOIDLE)
 8004ca2:	6ee5      	ldr	r5, [r4, #108]	@ 0x6c
 8004ca4:	2d01      	cmp	r5, #1
 8004ca6:	d000      	beq.n	8004caa <HAL_UART_IRQHandler+0x15a>
 8004ca8:	e09f      	b.n	8004dea <HAL_UART_IRQHandler+0x29a>
      && ((isrflags & USART_ISR_IDLE) != 0U)
 8004caa:	2610      	movs	r6, #16
 8004cac:	4233      	tst	r3, r6
 8004cae:	d100      	bne.n	8004cb2 <HAL_UART_IRQHandler+0x162>
 8004cb0:	e09b      	b.n	8004dea <HAL_UART_IRQHandler+0x29a>
      && ((cr1its & USART_ISR_IDLE) != 0U))
 8004cb2:	4232      	tst	r2, r6
 8004cb4:	d100      	bne.n	8004cb8 <HAL_UART_IRQHandler+0x168>
 8004cb6:	e098      	b.n	8004dea <HAL_UART_IRQHandler+0x29a>
    __HAL_UART_CLEAR_FLAG(huart, UART_CLEAR_IDLEF);
 8004cb8:	620e      	str	r6, [r1, #32]
    if (HAL_IS_BIT_SET(huart->Instance->CR3, USART_CR3_DMAR))
 8004cba:	6889      	ldr	r1, [r1, #8]
 8004cbc:	2340      	movs	r3, #64	@ 0x40
 8004cbe:	000a      	movs	r2, r1
 8004cc0:	401a      	ands	r2, r3
 8004cc2:	4219      	tst	r1, r3
 8004cc4:	d057      	beq.n	8004d76 <HAL_UART_IRQHandler+0x226>
      uint16_t nb_remaining_rx_data = (uint16_t) __HAL_DMA_GET_COUNTER(huart->hdmarx);
 8004cc6:	1d21      	adds	r1, r4, #4
 8004cc8:	6fca      	ldr	r2, [r1, #124]	@ 0x7c
 8004cca:	6810      	ldr	r0, [r2, #0]
 8004ccc:	6842      	ldr	r2, [r0, #4]
 8004cce:	b292      	uxth	r2, r2
      if ((nb_remaining_rx_data > 0U)
 8004cd0:	2a00      	cmp	r2, #0
 8004cd2:	d0dd      	beq.n	8004c90 <HAL_UART_IRQHandler+0x140>
          && (nb_remaining_rx_data < huart->RxXferSize))
 8004cd4:	0027      	movs	r7, r4
 8004cd6:	375c      	adds	r7, #92	@ 0x5c
 8004cd8:	883f      	ldrh	r7, [r7, #0]
 8004cda:	4297      	cmp	r7, r2
 8004cdc:	d9d8      	bls.n	8004c90 <HAL_UART_IRQHandler+0x140>
        huart->RxXferCount = nb_remaining_rx_data;
 8004cde:	0027      	movs	r7, r4
 8004ce0:	375e      	adds	r7, #94	@ 0x5e
 8004ce2:	803a      	strh	r2, [r7, #0]
        if (HAL_IS_BIT_CLR(huart->hdmarx->Instance->CCR, DMA_CCR_CIRC))
 8004ce4:	6802      	ldr	r2, [r0, #0]
 8004ce6:	2020      	movs	r0, #32
 8004ce8:	4684      	mov	ip, r0
 8004cea:	4010      	ands	r0, r2
 8004cec:	9000      	str	r0, [sp, #0]
 8004cee:	4660      	mov	r0, ip
 8004cf0:	4202      	tst	r2, r0
 8004cf2:	d132      	bne.n	8004d5a <HAL_UART_IRQHandler+0x20a>
  __ASM volatile ("MRS %0, primask" : "=r" (result) :: "memory");
 8004cf4:	f3ef 8710 	mrs	r7, PRIMASK
  __ASM volatile ("MSR primask, %0" : : "r" (priMask) : "memory");
 8004cf8:	f385 8810 	msr	PRIMASK, r5
          ATOMIC_CLEAR_BIT(huart->Instance->CR1, USART_CR1_PEIE);
 8004cfc:	6820      	ldr	r0, [r4, #0]
 8004cfe:	4e5b      	ldr	r6, [pc, #364]	@ (8004e6c <HAL_UART_IRQHandler+0x31c>)
 8004d00:	6802      	ldr	r2, [r0, #0]
 8004d02:	4032      	ands	r2, r6
 8004d04:	6002      	str	r2, [r0, #0]
 8004d06:	f387 8810 	msr	PRIMASK, r7
  __ASM volatile ("MRS %0, primask" : "=r" (result) :: "memory");
 8004d0a:	f3ef 8710 	mrs	r7, PRIMASK
  __ASM volatile ("MSR primask, %0" : : "r" (priMask) : "memory");
 8004d0e:	f385 8810 	msr	PRIMASK, r5
          ATOMIC_CLEAR_BIT(huart->Instance->CR3, USART_CR3_EIE);
 8004d12:	6820      	ldr	r0, [r4, #0]
 8004d14:	6882      	ldr	r2, [r0, #8]
 8004d16:	43aa      	bics	r2, r5
 8004d18:	6082      	str	r2, [r0, #8]
 8004d1a:	f387 8810 	msr	PRIMASK, r7
  __ASM volatile ("MRS %0, primask" : "=r" (result) :: "memory");
 8004d1e:	f3ef 8710 	mrs	r7, PRIMASK
  __ASM volatile ("MSR primask, %0" : : "r" (priMask) : "memory");
 8004d22:	f385 8810 	msr	PRIMASK, r5
          ATOMIC_CLEAR_BIT(huart->Instance->CR3, USART_CR3_DMAR);
 8004d26:	6820      	ldr	r0, [r4, #0]
 8004d28:	6882      	ldr	r2, [r0, #8]
 8004d2a:	439a      	bics	r2, r3
 8004d2c:	6082      	str	r2, [r0, #8]
 8004d2e:	f387 8810 	msr	PRIMASK, r7
          huart->RxState = HAL_UART_STATE_READY;
 8004d32:	0023      	movs	r3, r4
 8004d34:	4662      	mov	r2, ip
 8004d36:	338c      	adds	r3, #140	@ 0x8c
 8004d38:	601a      	str	r2, [r3, #0]
          huart->ReceptionType = HAL_UART_RECEPTION_STANDARD;
 8004d3a:	9b00      	ldr	r3, [sp, #0]
 8004d3c:	66e3      	str	r3, [r4, #108]	@ 0x6c
  __ASM volatile ("MRS %0, primask" : "=r" (result) :: "memory");
 8004d3e:	f3ef 8010 	mrs	r0, PRIMASK
  __ASM volatile ("MSR primask, %0" : : "r" (priMask) : "memory");
 8004d42:	f385 8810 	msr	PRIMASK, r5
          ATOMIC_CLEAR_BIT(huart->Instance->CR1, USART_CR1_IDLEIE);
 8004d46:	6822      	ldr	r2, [r4, #0]
 8004d48:	350f      	adds	r5, #15
 8004d4a:	6813      	ldr	r3, [r2, #0]
 8004d4c:	43ab      	bics	r3, r5
 8004d4e:	6013      	str	r3, [r2, #0]
 8004d50:	f380 8810 	msr	PRIMASK, r0
          (void)HAL_DMA_Abort(huart->hdmarx);
 8004d54:	6fc8      	ldr	r0, [r1, #124]	@ 0x7c
 8004d56:	f7fe fb95 	bl	8003484 <HAL_DMA_Abort>
        huart->RxEventType = HAL_UART_RXEVENT_IDLE;
 8004d5a:	2302      	movs	r3, #2
        HAL_UARTEx_RxEventCallback(huart, (huart->RxXferSize - huart->RxXferCount));
 8004d5c:	0022      	movs	r2, r4
        huart->RxEventType = HAL_UART_RXEVENT_IDLE;
 8004d5e:	6723      	str	r3, [r4, #112]	@ 0x70
        HAL_UARTEx_RxEventCallback(huart, (huart->RxXferSize - huart->RxXferCount));
 8004d60:	0023      	movs	r3, r4
 8004d62:	325c      	adds	r2, #92	@ 0x5c
 8004d64:	335e      	adds	r3, #94	@ 0x5e
 8004d66:	881b      	ldrh	r3, [r3, #0]
 8004d68:	8811      	ldrh	r1, [r2, #0]
 8004d6a:	1ac9      	subs	r1, r1, r3
 8004d6c:	b289      	uxth	r1, r1
        HAL_UARTEx_RxEventCallback(huart, nb_rx_data);
 8004d6e:	0020      	movs	r0, r4
 8004d70:	f7ff feed 	bl	8004b4e <HAL_UARTEx_RxEventCallback>
 8004d74:	e78c      	b.n	8004c90 <HAL_UART_IRQHandler+0x140>
      uint16_t nb_rx_data = huart->RxXferSize - huart->RxXferCount;
 8004d76:	0023      	movs	r3, r4
 8004d78:	0020      	movs	r0, r4
 8004d7a:	335c      	adds	r3, #92	@ 0x5c
 8004d7c:	305e      	adds	r0, #94	@ 0x5e
 8004d7e:	8819      	ldrh	r1, [r3, #0]
 8004d80:	8803      	ldrh	r3, [r0, #0]
      if ((huart->RxXferCount > 0U)
 8004d82:	8800      	ldrh	r0, [r0, #0]
      uint16_t nb_rx_data = huart->RxXferSize - huart->RxXferCount;
 8004d84:	b29b      	uxth	r3, r3
      if ((huart->RxXferCount > 0U)
 8004d86:	2800      	cmp	r0, #0
 8004d88:	d100      	bne.n	8004d8c <HAL_UART_IRQHandler+0x23c>
 8004d8a:	e781      	b.n	8004c90 <HAL_UART_IRQHandler+0x140>
      uint16_t nb_rx_data = huart->RxXferSize - huart->RxXferCount;
 8004d8c:	1ac9      	subs	r1, r1, r3
 8004d8e:	b289      	uxth	r1, r1
          && (nb_rx_data > 0U))
 8004d90:	2900      	cmp	r1, #0
 8004d92:	d100      	bne.n	8004d96 <HAL_UART_IRQHandler+0x246>
 8004d94:	e77c      	b.n	8004c90 <HAL_UART_IRQHandler+0x140>
  __ASM volatile ("MRS %0, primask" : "=r" (result) :: "memory");
 8004d96:	f3ef 8710 	mrs	r7, PRIMASK
  __ASM volatile ("MSR primask, %0" : : "r" (priMask) : "memory");
 8004d9a:	f385 8810 	msr	PRIMASK, r5
        ATOMIC_CLEAR_BIT(huart->Instance->CR1, (USART_CR1_RXNEIE_RXFNEIE | USART_CR1_PEIE));
 8004d9e:	6820      	ldr	r0, [r4, #0]
 8004da0:	4e33      	ldr	r6, [pc, #204]	@ (8004e70 <HAL_UART_IRQHandler+0x320>)
 8004da2:	6803      	ldr	r3, [r0, #0]
 8004da4:	4033      	ands	r3, r6
 8004da6:	6003      	str	r3, [r0, #0]
 8004da8:	f387 8810 	msr	PRIMASK, r7
  __ASM volatile ("MRS %0, primask" : "=r" (result) :: "memory");
 8004dac:	f3ef 8710 	mrs	r7, PRIMASK
  __ASM volatile ("MSR primask, %0" : : "r" (priMask) : "memory");
 8004db0:	f385 8810 	msr	PRIMASK, r5
        ATOMIC_CLEAR_BIT(huart->Instance->CR3, (USART_CR3_EIE | USART_CR3_RXFTIE));
 8004db4:	6820      	ldr	r0, [r4, #0]
 8004db6:	4e2f      	ldr	r6, [pc, #188]	@ (8004e74 <HAL_UART_IRQHandler+0x324>)
 8004db8:	6883      	ldr	r3, [r0, #8]
 8004dba:	4033      	ands	r3, r6
 8004dbc:	6083      	str	r3, [r0, #8]
 8004dbe:	f387 8810 	msr	PRIMASK, r7
        huart->RxState = HAL_UART_STATE_READY;
 8004dc2:	0023      	movs	r3, r4
 8004dc4:	2020      	movs	r0, #32
 8004dc6:	338c      	adds	r3, #140	@ 0x8c
 8004dc8:	6018      	str	r0, [r3, #0]
        huart->ReceptionType = HAL_UART_RECEPTION_STANDARD;
 8004dca:	66e2      	str	r2, [r4, #108]	@ 0x6c
        huart->RxISR = NULL;
 8004dcc:	6762      	str	r2, [r4, #116]	@ 0x74
  __ASM volatile ("MRS %0, primask" : "=r" (result) :: "memory");
 8004dce:	f3ef 8010 	mrs	r0, PRIMASK
  __ASM volatile ("MSR primask, %0" : : "r" (priMask) : "memory");
 8004dd2:	f385 8810 	msr	PRIMASK, r5
        ATOMIC_CLEAR_BIT(huart->Instance->CR1, USART_CR1_IDLEIE);
 8004dd6:	2510      	movs	r5, #16
 8004dd8:	6822      	ldr	r2, [r4, #0]
 8004dda:	6813      	ldr	r3, [r2, #0]
 8004ddc:	43ab      	bics	r3, r5
 8004dde:	6013      	str	r3, [r2, #0]
 8004de0:	f380 8810 	msr	PRIMASK, r0
        huart->RxEventType = HAL_UART_RXEVENT_IDLE;
 8004de4:	2302      	movs	r3, #2
 8004de6:	6723      	str	r3, [r4, #112]	@ 0x70
 8004de8:	e7c1      	b.n	8004d6e <HAL_UART_IRQHandler+0x21e>
  if (((isrflags & USART_ISR_WUF) != 0U) && ((cr3its & USART_CR3_WUFIE) != 0U))
 8004dea:	2580      	movs	r5, #128	@ 0x80
 8004dec:	036d      	lsls	r5, r5, #13
 8004dee:	422b      	tst	r3, r5
 8004df0:	d006      	beq.n	8004e00 <HAL_UART_IRQHandler+0x2b0>
 8004df2:	0246      	lsls	r6, r0, #9
 8004df4:	d504      	bpl.n	8004e00 <HAL_UART_IRQHandler+0x2b0>
    HAL_UARTEx_WakeupCallback(huart);
 8004df6:	0020      	movs	r0, r4
    __HAL_UART_CLEAR_FLAG(huart, UART_CLEAR_WUF);
 8004df8:	620d      	str	r5, [r1, #32]
    HAL_UARTEx_WakeupCallback(huart);
 8004dfa:	f000 fe99 	bl	8005b30 <HAL_UARTEx_WakeupCallback>
    return;
 8004dfe:	e747      	b.n	8004c90 <HAL_UART_IRQHandler+0x140>
  if (((isrflags & USART_ISR_TXE_TXFNF) != 0U)
 8004e00:	2180      	movs	r1, #128	@ 0x80
 8004e02:	420b      	tst	r3, r1
 8004e04:	d007      	beq.n	8004e16 <HAL_UART_IRQHandler+0x2c6>
          || ((cr3its & USART_CR3_TXFTIE) != 0U)))
 8004e06:	2580      	movs	r5, #128	@ 0x80
 8004e08:	042d      	lsls	r5, r5, #16
      && (((cr1its & USART_CR1_TXEIE_TXFNFIE) != 0U)
 8004e0a:	4011      	ands	r1, r2
          || ((cr3its & USART_CR3_TXFTIE) != 0U)))
 8004e0c:	4028      	ands	r0, r5
 8004e0e:	4301      	orrs	r1, r0
 8004e10:	d001      	beq.n	8004e16 <HAL_UART_IRQHandler+0x2c6>
    if (huart->TxISR != NULL)
 8004e12:	6fa3      	ldr	r3, [r4, #120]	@ 0x78
 8004e14:	e6b1      	b.n	8004b7a <HAL_UART_IRQHandler+0x2a>
  if (((isrflags & USART_ISR_TC) != 0U) && ((cr1its & USART_CR1_TCIE) != 0U))
 8004e16:	2140      	movs	r1, #64	@ 0x40
 8004e18:	420b      	tst	r3, r1
 8004e1a:	d016      	beq.n	8004e4a <HAL_UART_IRQHandler+0x2fa>
 8004e1c:	420a      	tst	r2, r1
 8004e1e:	d014      	beq.n	8004e4a <HAL_UART_IRQHandler+0x2fa>
  __ASM volatile ("MRS %0, primask" : "=r" (result) :: "memory");
 8004e20:	f3ef 8010 	mrs	r0, PRIMASK
  __ASM volatile ("MSR primask, %0" : : "r" (priMask) : "memory");
 8004e24:	2301      	movs	r3, #1
 8004e26:	f383 8810 	msr	PRIMASK, r3
  * @retval None
  */
static void UART_EndTransmit_IT(UART_HandleTypeDef *huart)
{
  /* Disable the UART Transmit Complete Interrupt */
  ATOMIC_CLEAR_BIT(huart->Instance->CR1, USART_CR1_TCIE);
 8004e2a:	6822      	ldr	r2, [r4, #0]
 8004e2c:	6813      	ldr	r3, [r2, #0]
 8004e2e:	438b      	bics	r3, r1
 8004e30:	6013      	str	r3, [r2, #0]
 8004e32:	f380 8810 	msr	PRIMASK, r0

  /* Tx process is ended, restore huart->gState to Ready */
  huart->gState = HAL_UART_STATE_READY;
 8004e36:	0023      	movs	r3, r4
 8004e38:	2220      	movs	r2, #32
 8004e3a:	3388      	adds	r3, #136	@ 0x88
 8004e3c:	601a      	str	r2, [r3, #0]

  /* Cleat TxISR function pointer */
  huart->TxISR = NULL;
 8004e3e:	2300      	movs	r3, #0
#if (USE_HAL_UART_REGISTER_CALLBACKS == 1)
  /*Call registered Tx complete callback*/
  huart->TxCpltCallback(huart);
#else
  /*Call legacy weak Tx complete callback*/
  HAL_UART_TxCpltCallback(huart);
 8004e40:	0020      	movs	r0, r4
  huart->TxISR = NULL;
 8004e42:	67a3      	str	r3, [r4, #120]	@ 0x78
  HAL_UART_TxCpltCallback(huart);
 8004e44:	f7ff fe76 	bl	8004b34 <HAL_UART_TxCpltCallback>
#endif /* USE_HAL_UART_REGISTER_CALLBACKS */
}
 8004e48:	e722      	b.n	8004c90 <HAL_UART_IRQHandler+0x140>
  if (((isrflags & USART_ISR_TXFE) != 0U) && ((cr1its & USART_CR1_TXFEIE) != 0U))
 8004e4a:	0219      	lsls	r1, r3, #8
 8004e4c:	d514      	bpl.n	8004e78 <HAL_UART_IRQHandler+0x328>
 8004e4e:	0051      	lsls	r1, r2, #1
 8004e50:	d512      	bpl.n	8004e78 <HAL_UART_IRQHandler+0x328>
    HAL_UARTEx_TxFifoEmptyCallback(huart);
 8004e52:	0020      	movs	r0, r4
 8004e54:	f000 fe6e 	bl	8005b34 <HAL_UARTEx_TxFifoEmptyCallback>
    return;
 8004e58:	e71a      	b.n	8004c90 <HAL_UART_IRQHandler+0x140>
 8004e5a:	46c0      	nop			@ (mov r8, r8)
 8004e5c:	0000080f 	.word	0x0000080f
 8004e60:	10000001 	.word	0x10000001
 8004e64:	04000120 	.word	0x04000120
 8004e68:	08004b39 	.word	0x08004b39
 8004e6c:	fffffeff 	.word	0xfffffeff
 8004e70:	fffffedf 	.word	0xfffffedf
 8004e74:	effffffe 	.word	0xeffffffe
  if (((isrflags & USART_ISR_RXFF) != 0U) && ((cr1its & USART_CR1_RXFFIE) != 0U))
 8004e78:	01db      	lsls	r3, r3, #7
 8004e7a:	d400      	bmi.n	8004e7e <HAL_UART_IRQHandler+0x32e>
 8004e7c:	e708      	b.n	8004c90 <HAL_UART_IRQHandler+0x140>
 8004e7e:	2a00      	cmp	r2, #0
 8004e80:	db00      	blt.n	8004e84 <HAL_UART_IRQHandler+0x334>
 8004e82:	e705      	b.n	8004c90 <HAL_UART_IRQHandler+0x140>
    HAL_UARTEx_RxFifoFullCallback(huart);
 8004e84:	0020      	movs	r0, r4
 8004e86:	f000 fe54 	bl	8005b32 <HAL_UARTEx_RxFifoFullCallback>
    return;
 8004e8a:	e701      	b.n	8004c90 <HAL_UART_IRQHandler+0x140>

08004e8c <UART_RxISR_8BIT>:
{
  uint16_t uhMask = huart->Mask;
  uint16_t  uhdata;

  /* Check that a Rx process is ongoing */
  if (huart->RxState == HAL_UART_STATE_BUSY_RX)
 8004e8c:	0001      	movs	r1, r0
{
 8004e8e:	b5f8      	push	{r3, r4, r5, r6, r7, lr}
  uint16_t uhMask = huart->Mask;
 8004e90:	0003      	movs	r3, r0
  if (huart->RxState == HAL_UART_STATE_BUSY_RX)
 8004e92:	318c      	adds	r1, #140	@ 0x8c
 8004e94:	680c      	ldr	r4, [r1, #0]
  uint16_t uhMask = huart->Mask;
 8004e96:	3360      	adds	r3, #96	@ 0x60
 8004e98:	881a      	ldrh	r2, [r3, #0]
  {
    uhdata = (uint16_t) READ_REG(huart->Instance->RDR);
 8004e9a:	6803      	ldr	r3, [r0, #0]
  if (huart->RxState == HAL_UART_STATE_BUSY_RX)
 8004e9c:	2c22      	cmp	r4, #34	@ 0x22
 8004e9e:	d15a      	bne.n	8004f56 <UART_RxISR_8BIT+0xca>
    uhdata = (uint16_t) READ_REG(huart->Instance->RDR);
 8004ea0:	6a5b      	ldr	r3, [r3, #36]	@ 0x24
    *huart->pRxBuffPtr = (uint8_t)(uhdata & (uint8_t)uhMask);
 8004ea2:	6d84      	ldr	r4, [r0, #88]	@ 0x58
 8004ea4:	4013      	ands	r3, r2
    huart->pRxBuffPtr++;
    huart->RxXferCount--;
 8004ea6:	0002      	movs	r2, r0
    *huart->pRxBuffPtr = (uint8_t)(uhdata & (uint8_t)uhMask);
 8004ea8:	7023      	strb	r3, [r4, #0]
    huart->pRxBuffPtr++;
 8004eaa:	6d83      	ldr	r3, [r0, #88]	@ 0x58
    huart->RxXferCount--;
 8004eac:	325e      	adds	r2, #94	@ 0x5e
    huart->pRxBuffPtr++;
 8004eae:	3301      	adds	r3, #1
 8004eb0:	6583      	str	r3, [r0, #88]	@ 0x58
    huart->RxXferCount--;
 8004eb2:	8813      	ldrh	r3, [r2, #0]
 8004eb4:	3b01      	subs	r3, #1
 8004eb6:	b29b      	uxth	r3, r3
 8004eb8:	8013      	strh	r3, [r2, #0]

    if (huart->RxXferCount == 0U)
 8004eba:	8813      	ldrh	r3, [r2, #0]
 8004ebc:	b29c      	uxth	r4, r3
 8004ebe:	2b00      	cmp	r3, #0
 8004ec0:	d145      	bne.n	8004f4e <UART_RxISR_8BIT+0xc2>
  __ASM volatile ("MRS %0, primask" : "=r" (result) :: "memory");
 8004ec2:	f3ef 8610 	mrs	r6, PRIMASK
  __ASM volatile ("MSR primask, %0" : : "r" (priMask) : "memory");
 8004ec6:	3301      	adds	r3, #1
 8004ec8:	f383 8810 	msr	PRIMASK, r3
    {
      /* Disable the UART Parity Error Interrupt and RXNE interrupts */
      ATOMIC_CLEAR_BIT(huart->Instance->CR1, (USART_CR1_RXNEIE_RXFNEIE | USART_CR1_PEIE));
 8004ecc:	6805      	ldr	r5, [r0, #0]
 8004ece:	4f24      	ldr	r7, [pc, #144]	@ (8004f60 <UART_RxISR_8BIT+0xd4>)
 8004ed0:	682a      	ldr	r2, [r5, #0]
 8004ed2:	403a      	ands	r2, r7
 8004ed4:	602a      	str	r2, [r5, #0]
 8004ed6:	f386 8810 	msr	PRIMASK, r6
  __ASM volatile ("MRS %0, primask" : "=r" (result) :: "memory");
 8004eda:	f3ef 8610 	mrs	r6, PRIMASK
  __ASM volatile ("MSR primask, %0" : : "r" (priMask) : "memory");
 8004ede:	f383 8810 	msr	PRIMASK, r3

      /* Disable the UART Error Interrupt: (Frame error, noise error, overrun error) */
      ATOMIC_CLEAR_BIT(huart->Instance->CR3, USART_CR3_EIE);
 8004ee2:	6805      	ldr	r5, [r0, #0]
 8004ee4:	68aa      	ldr	r2, [r5, #8]
 8004ee6:	439a      	bics	r2, r3
 8004ee8:	60aa      	str	r2, [r5, #8]
 8004eea:	f386 8810 	msr	PRIMASK, r6

      /* Rx process is completed, restore huart->RxState to Ready */
      huart->RxState = HAL_UART_STATE_READY;
 8004eee:	2220      	movs	r2, #32
 8004ef0:	600a      	str	r2, [r1, #0]
      huart->RxISR = NULL;

      /* Initialize type of RxEvent to Transfer Complete */
      huart->RxEventType = HAL_UART_RXEVENT_TC;

      if (!(IS_LPUART_INSTANCE(huart->Instance)))
 8004ef2:	6802      	ldr	r2, [r0, #0]
 8004ef4:	491b      	ldr	r1, [pc, #108]	@ (8004f64 <UART_RxISR_8BIT+0xd8>)
      huart->RxISR = NULL;
 8004ef6:	6744      	str	r4, [r0, #116]	@ 0x74
      huart->RxEventType = HAL_UART_RXEVENT_TC;
 8004ef8:	6704      	str	r4, [r0, #112]	@ 0x70
      if (!(IS_LPUART_INSTANCE(huart->Instance)))
 8004efa:	428a      	cmp	r2, r1
 8004efc:	d00d      	beq.n	8004f1a <UART_RxISR_8BIT+0x8e>
      {
        /* Check that USART RTOEN bit is set */
        if (READ_BIT(huart->Instance->CR2, USART_CR2_RTOEN) != 0U)
 8004efe:	6852      	ldr	r2, [r2, #4]
 8004f00:	0212      	lsls	r2, r2, #8
 8004f02:	d50a      	bpl.n	8004f1a <UART_RxISR_8BIT+0x8e>
  __ASM volatile ("MRS %0, primask" : "=r" (result) :: "memory");
 8004f04:	f3ef 8110 	mrs	r1, PRIMASK
  __ASM volatile ("MSR primask, %0" : : "r" (priMask) : "memory");
 8004f08:	f383 8810 	msr	PRIMASK, r3
        {
          /* Enable the UART Receiver Timeout Interrupt */
          ATOMIC_CLEAR_BIT(huart->Instance->CR1, USART_CR1_RTOIE);
 8004f0c:	6802      	ldr	r2, [r0, #0]
 8004f0e:	4c16      	ldr	r4, [pc, #88]	@ (8004f68 <UART_RxISR_8BIT+0xdc>)
 8004f10:	6813      	ldr	r3, [r2, #0]
 8004f12:	4023      	ands	r3, r4
 8004f14:	6013      	str	r3, [r2, #0]
 8004f16:	f381 8810 	msr	PRIMASK, r1
        }
      }

      /* Check current reception Mode :
         If Reception till IDLE event has been selected : */
      if (huart->ReceptionType == HAL_UART_RECEPTION_TOIDLE)
 8004f1a:	6ec3      	ldr	r3, [r0, #108]	@ 0x6c
 8004f1c:	2b01      	cmp	r3, #1
 8004f1e:	d117      	bne.n	8004f50 <UART_RxISR_8BIT+0xc4>
      {
        /* Set reception type to Standard */
        huart->ReceptionType = HAL_UART_RECEPTION_STANDARD;
 8004f20:	2200      	movs	r2, #0
 8004f22:	66c2      	str	r2, [r0, #108]	@ 0x6c
  __ASM volatile ("MRS %0, primask" : "=r" (result) :: "memory");
 8004f24:	f3ef 8410 	mrs	r4, PRIMASK
  __ASM volatile ("MSR primask, %0" : : "r" (priMask) : "memory");
 8004f28:	f383 8810 	msr	PRIMASK, r3

        /* Disable IDLE interrupt */
        ATOMIC_CLEAR_BIT(huart->Instance->CR1, USART_CR1_IDLEIE);
 8004f2c:	6801      	ldr	r1, [r0, #0]
 8004f2e:	330f      	adds	r3, #15
 8004f30:	680a      	ldr	r2, [r1, #0]
 8004f32:	439a      	bics	r2, r3
 8004f34:	600a      	str	r2, [r1, #0]
 8004f36:	f384 8810 	msr	PRIMASK, r4

        if (__HAL_UART_GET_FLAG(huart, UART_FLAG_IDLE) == SET)
 8004f3a:	6802      	ldr	r2, [r0, #0]
 8004f3c:	69d1      	ldr	r1, [r2, #28]
 8004f3e:	4219      	tst	r1, r3
 8004f40:	d000      	beq.n	8004f44 <UART_RxISR_8BIT+0xb8>
        {
          /* Clear IDLE Flag */
          __HAL_UART_CLEAR_FLAG(huart, UART_CLEAR_IDLEF);
 8004f42:	6213      	str	r3, [r2, #32]
#if (USE_HAL_UART_REGISTER_CALLBACKS == 1)
        /*Call registered Rx Event callback*/
        huart->RxEventCallback(huart, huart->RxXferSize);
#else
        /*Call legacy weak Rx Event callback*/
        HAL_UARTEx_RxEventCallback(huart, huart->RxXferSize);
 8004f44:	0003      	movs	r3, r0
 8004f46:	335c      	adds	r3, #92	@ 0x5c
 8004f48:	8819      	ldrh	r1, [r3, #0]
 8004f4a:	f7ff fe00 	bl	8004b4e <HAL_UARTEx_RxEventCallback>
  else
  {
    /* Clear RXNE interrupt flag */
    __HAL_UART_SEND_REQ(huart, UART_RXDATA_FLUSH_REQUEST);
  }
}
 8004f4e:	bdf8      	pop	{r3, r4, r5, r6, r7, pc}
        HAL_UART_RxCpltCallback(huart);
 8004f50:	f7fc fc36 	bl	80017c0 <HAL_UART_RxCpltCallback>
 8004f54:	e7fb      	b.n	8004f4e <UART_RxISR_8BIT+0xc2>
    __HAL_UART_SEND_REQ(huart, UART_RXDATA_FLUSH_REQUEST);
 8004f56:	2208      	movs	r2, #8
 8004f58:	6999      	ldr	r1, [r3, #24]
 8004f5a:	430a      	orrs	r2, r1
 8004f5c:	619a      	str	r2, [r3, #24]
}
 8004f5e:	e7f6      	b.n	8004f4e <UART_RxISR_8BIT+0xc2>
 8004f60:	fffffedf 	.word	0xfffffedf
 8004f64:	40008000 	.word	0x40008000
 8004f68:	fbffffff 	.word	0xfbffffff

08004f6c <UART_RxISR_16BIT>:
  uint16_t *tmp;
  uint16_t uhMask = huart->Mask;
  uint16_t  uhdata;

  /* Check that a Rx process is ongoing */
  if (huart->RxState == HAL_UART_STATE_BUSY_RX)
 8004f6c:	0002      	movs	r2, r0
{
 8004f6e:	b5f8      	push	{r3, r4, r5, r6, r7, lr}
  uint16_t uhMask = huart->Mask;
 8004f70:	0003      	movs	r3, r0
  if (huart->RxState == HAL_UART_STATE_BUSY_RX)
 8004f72:	328c      	adds	r2, #140	@ 0x8c
 8004f74:	6811      	ldr	r1, [r2, #0]
  uint16_t uhMask = huart->Mask;
 8004f76:	3360      	adds	r3, #96	@ 0x60
 8004f78:	881c      	ldrh	r4, [r3, #0]
  {
    uhdata = (uint16_t) READ_REG(huart->Instance->RDR);
 8004f7a:	6803      	ldr	r3, [r0, #0]
  if (huart->RxState == HAL_UART_STATE_BUSY_RX)
 8004f7c:	2922      	cmp	r1, #34	@ 0x22
 8004f7e:	d159      	bne.n	8005034 <UART_RxISR_16BIT+0xc8>
    uhdata = (uint16_t) READ_REG(huart->Instance->RDR);
 8004f80:	6a59      	ldr	r1, [r3, #36]	@ 0x24
    tmp = (uint16_t *) huart->pRxBuffPtr ;
 8004f82:	6d83      	ldr	r3, [r0, #88]	@ 0x58
    *tmp = (uint16_t)(uhdata & uhMask);
 8004f84:	4021      	ands	r1, r4
 8004f86:	8019      	strh	r1, [r3, #0]
    huart->pRxBuffPtr += 2U;
    huart->RxXferCount--;
 8004f88:	0001      	movs	r1, r0
    huart->pRxBuffPtr += 2U;
 8004f8a:	3302      	adds	r3, #2
 8004f8c:	6583      	str	r3, [r0, #88]	@ 0x58
    huart->RxXferCount--;
 8004f8e:	315e      	adds	r1, #94	@ 0x5e
 8004f90:	880b      	ldrh	r3, [r1, #0]
 8004f92:	3b01      	subs	r3, #1
 8004f94:	b29b      	uxth	r3, r3
 8004f96:	800b      	strh	r3, [r1, #0]

    if (huart->RxXferCount == 0U)
 8004f98:	880b      	ldrh	r3, [r1, #0]
 8004f9a:	b29c      	uxth	r4, r3
 8004f9c:	2b00      	cmp	r3, #0
 8004f9e:	d145      	bne.n	800502c <UART_RxISR_16BIT+0xc0>
  __ASM volatile ("MRS %0, primask" : "=r" (result) :: "memory");
 8004fa0:	f3ef 8610 	mrs	r6, PRIMASK
  __ASM volatile ("MSR primask, %0" : : "r" (priMask) : "memory");
 8004fa4:	3301      	adds	r3, #1
 8004fa6:	f383 8810 	msr	PRIMASK, r3
    {
      /* Disable the UART Parity Error Interrupt and RXNE interrupt*/
      ATOMIC_CLEAR_BIT(huart->Instance->CR1, (USART_CR1_RXNEIE_RXFNEIE | USART_CR1_PEIE));
 8004faa:	6805      	ldr	r5, [r0, #0]
 8004fac:	4f24      	ldr	r7, [pc, #144]	@ (8005040 <UART_RxISR_16BIT+0xd4>)
 8004fae:	6829      	ldr	r1, [r5, #0]
 8004fb0:	4039      	ands	r1, r7
 8004fb2:	6029      	str	r1, [r5, #0]
 8004fb4:	f386 8810 	msr	PRIMASK, r6
  __ASM volatile ("MRS %0, primask" : "=r" (result) :: "memory");
 8004fb8:	f3ef 8610 	mrs	r6, PRIMASK
  __ASM volatile ("MSR primask, %0" : : "r" (priMask) : "memory");
 8004fbc:	f383 8810 	msr	PRIMASK, r3

      /* Disable the UART Error Interrupt: (Frame error, noise error, overrun error) */
      ATOMIC_CLEAR_BIT(huart->Instance->CR3, USART_CR3_EIE);
 8004fc0:	6805      	ldr	r5, [r0, #0]
 8004fc2:	68a9      	ldr	r1, [r5, #8]
 8004fc4:	4399      	bics	r1, r3
 8004fc6:	60a9      	str	r1, [r5, #8]
 8004fc8:	f386 8810 	msr	PRIMASK, r6

      /* Rx process is completed, restore huart->RxState to Ready */
      huart->RxState = HAL_UART_STATE_READY;
 8004fcc:	2120      	movs	r1, #32
 8004fce:	6011      	str	r1, [r2, #0]
      huart->RxISR = NULL;

      /* Initialize type of RxEvent to Transfer Complete */
      huart->RxEventType = HAL_UART_RXEVENT_TC;

      if (!(IS_LPUART_INSTANCE(huart->Instance)))
 8004fd0:	6802      	ldr	r2, [r0, #0]
 8004fd2:	491c      	ldr	r1, [pc, #112]	@ (8005044 <UART_RxISR_16BIT+0xd8>)
      huart->RxISR = NULL;
 8004fd4:	6744      	str	r4, [r0, #116]	@ 0x74
      huart->RxEventType = HAL_UART_RXEVENT_TC;
 8004fd6:	6704      	str	r4, [r0, #112]	@ 0x70
      if (!(IS_LPUART_INSTANCE(huart->Instance)))
 8004fd8:	428a      	cmp	r2, r1
 8004fda:	d00d      	beq.n	8004ff8 <UART_RxISR_16BIT+0x8c>
      {
        /* Check that USART RTOEN bit is set */
        if (READ_BIT(huart->Instance->CR2, USART_CR2_RTOEN) != 0U)
 8004fdc:	6852      	ldr	r2, [r2, #4]
 8004fde:	0212      	lsls	r2, r2, #8
 8004fe0:	d50a      	bpl.n	8004ff8 <UART_RxISR_16BIT+0x8c>
  __ASM volatile ("MRS %0, primask" : "=r" (result) :: "memory");
 8004fe2:	f3ef 8110 	mrs	r1, PRIMASK
  __ASM volatile ("MSR primask, %0" : : "r" (priMask) : "memory");
 8004fe6:	f383 8810 	msr	PRIMASK, r3
        {
          /* Enable the UART Receiver Timeout Interrupt */
          ATOMIC_CLEAR_BIT(huart->Instance->CR1, USART_CR1_RTOIE);
 8004fea:	6802      	ldr	r2, [r0, #0]
 8004fec:	4c16      	ldr	r4, [pc, #88]	@ (8005048 <UART_RxISR_16BIT+0xdc>)
 8004fee:	6813      	ldr	r3, [r2, #0]
 8004ff0:	4023      	ands	r3, r4
 8004ff2:	6013      	str	r3, [r2, #0]
 8004ff4:	f381 8810 	msr	PRIMASK, r1
        }
      }

      /* Check current reception Mode :
         If Reception till IDLE event has been selected : */
      if (huart->ReceptionType == HAL_UART_RECEPTION_TOIDLE)
 8004ff8:	6ec3      	ldr	r3, [r0, #108]	@ 0x6c
 8004ffa:	2b01      	cmp	r3, #1
 8004ffc:	d117      	bne.n	800502e <UART_RxISR_16BIT+0xc2>
      {
        /* Set reception type to Standard */
        huart->ReceptionType = HAL_UART_RECEPTION_STANDARD;
 8004ffe:	2200      	movs	r2, #0
 8005000:	66c2      	str	r2, [r0, #108]	@ 0x6c
  __ASM volatile ("MRS %0, primask" : "=r" (result) :: "memory");
 8005002:	f3ef 8410 	mrs	r4, PRIMASK
  __ASM volatile ("MSR primask, %0" : : "r" (priMask) : "memory");
 8005006:	f383 8810 	msr	PRIMASK, r3

        /* Disable IDLE interrupt */
        ATOMIC_CLEAR_BIT(huart->Instance->CR1, USART_CR1_IDLEIE);
 800500a:	6801      	ldr	r1, [r0, #0]
 800500c:	330f      	adds	r3, #15
 800500e:	680a      	ldr	r2, [r1, #0]
 8005010:	439a      	bics	r2, r3
 8005012:	600a      	str	r2, [r1, #0]
 8005014:	f384 8810 	msr	PRIMASK, r4

        if (__HAL_UART_GET_FLAG(huart, UART_FLAG_IDLE) == SET)
 8005018:	6802      	ldr	r2, [r0, #0]
 800501a:	69d1      	ldr	r1, [r2, #28]
 800501c:	4219      	tst	r1, r3
 800501e:	d000      	beq.n	8005022 <UART_RxISR_16BIT+0xb6>
        {
          /* Clear IDLE Flag */
          __HAL_UART_CLEAR_FLAG(huart, UART_CLEAR_IDLEF);
 8005020:	6213      	str	r3, [r2, #32]
#if (USE_HAL_UART_REGISTER_CALLBACKS == 1)
        /*Call registered Rx Event callback*/
        huart->RxEventCallback(huart, huart->RxXferSize);
#else
        /*Call legacy weak Rx Event callback*/
        HAL_UARTEx_RxEventCallback(huart, huart->RxXferSize);
 8005022:	0003      	movs	r3, r0
 8005024:	335c      	adds	r3, #92	@ 0x5c
 8005026:	8819      	ldrh	r1, [r3, #0]
 8005028:	f7ff fd91 	bl	8004b4e <HAL_UARTEx_RxEventCallback>
  else
  {
    /* Clear RXNE interrupt flag */
    __HAL_UART_SEND_REQ(huart, UART_RXDATA_FLUSH_REQUEST);
  }
}
 800502c:	bdf8      	pop	{r3, r4, r5, r6, r7, pc}
        HAL_UART_RxCpltCallback(huart);
 800502e:	f7fc fbc7 	bl	80017c0 <HAL_UART_RxCpltCallback>
 8005032:	e7fb      	b.n	800502c <UART_RxISR_16BIT+0xc0>
    __HAL_UART_SEND_REQ(huart, UART_RXDATA_FLUSH_REQUEST);
 8005034:	2208      	movs	r2, #8
 8005036:	6999      	ldr	r1, [r3, #24]
 8005038:	430a      	orrs	r2, r1
 800503a:	619a      	str	r2, [r3, #24]
}
 800503c:	e7f6      	b.n	800502c <UART_RxISR_16BIT+0xc0>
 800503e:	46c0      	nop			@ (mov r8, r8)
 8005040:	fffffedf 	.word	0xfffffedf
 8005044:	40008000 	.word	0x40008000
 8005048:	fbffffff 	.word	0xfbffffff

0800504c <UART_RxISR_8BIT_FIFOEN>:
  * @param huart UART handle.
  * @retval None
  */
static void UART_RxISR_8BIT_FIFOEN(UART_HandleTypeDef *huart)
{
  uint16_t  uhMask = huart->Mask;
 800504c:	0003      	movs	r3, r0
{
 800504e:	b5f0      	push	{r4, r5, r6, r7, lr}
  uint16_t  uhMask = huart->Mask;
 8005050:	3360      	adds	r3, #96	@ 0x60
 8005052:	881b      	ldrh	r3, [r3, #0]
{
 8005054:	b085      	sub	sp, #20
  uint16_t  uhMask = huart->Mask;
 8005056:	9302      	str	r3, [sp, #8]
  uint16_t  uhdata;
  uint16_t  nb_rx_data;
  uint16_t  rxdatacount;
  uint32_t  isrflags = READ_REG(huart->Instance->ISR);
 8005058:	6803      	ldr	r3, [r0, #0]
{
 800505a:	0004      	movs	r4, r0
  uint32_t  isrflags = READ_REG(huart->Instance->ISR);
 800505c:	69dd      	ldr	r5, [r3, #28]
  uint32_t  cr1its   = READ_REG(huart->Instance->CR1);
 800505e:	681a      	ldr	r2, [r3, #0]
 8005060:	9203      	str	r2, [sp, #12]
  uint32_t  cr3its   = READ_REG(huart->Instance->CR3);
 8005062:	689a      	ldr	r2, [r3, #8]
 8005064:	9201      	str	r2, [sp, #4]

  /* Check that a Rx process is ongoing */
  if (huart->RxState == HAL_UART_STATE_BUSY_RX)
 8005066:	0002      	movs	r2, r0
 8005068:	328c      	adds	r2, #140	@ 0x8c
 800506a:	6812      	ldr	r2, [r2, #0]
 800506c:	2a22      	cmp	r2, #34	@ 0x22
 800506e:	d000      	beq.n	8005072 <UART_RxISR_8BIT_FIFOEN+0x26>
 8005070:	e0c7      	b.n	8005202 <UART_RxISR_8BIT_FIFOEN+0x1b6>
  {
    nb_rx_data = huart->NbRxDataToProcess;
 8005072:	0003      	movs	r3, r0
 8005074:	3368      	adds	r3, #104	@ 0x68
    while ((nb_rx_data > 0U) && ((isrflags & USART_ISR_RXNE_RXFNE) != 0U))
 8005076:	881b      	ldrh	r3, [r3, #0]
 8005078:	2b00      	cmp	r3, #0
 800507a:	d002      	beq.n	8005082 <UART_RxISR_8BIT_FIFOEN+0x36>
 800507c:	2320      	movs	r3, #32
 800507e:	421d      	tst	r5, r3
 8005080:	d108      	bne.n	8005094 <UART_RxISR_8BIT_FIFOEN+0x48>

    /* When remaining number of bytes to receive is less than the RX FIFO
    threshold, next incoming frames are processed as if FIFO mode was
    disabled (i.e. one interrupt per received frame).
    */
    rxdatacount = huart->RxXferCount;
 8005082:	0023      	movs	r3, r4
 8005084:	335e      	adds	r3, #94	@ 0x5e
 8005086:	881b      	ldrh	r3, [r3, #0]
 8005088:	b29a      	uxth	r2, r3
    if ((rxdatacount != 0U) && (rxdatacount < huart->NbRxDataToProcess))
 800508a:	2b00      	cmp	r3, #0
 800508c:	d000      	beq.n	8005090 <UART_RxISR_8BIT_FIFOEN+0x44>
 800508e:	e098      	b.n	80051c2 <UART_RxISR_8BIT_FIFOEN+0x176>
  else
  {
    /* Clear RXNE interrupt flag */
    __HAL_UART_SEND_REQ(huart, UART_RXDATA_FLUSH_REQUEST);
  }
}
 8005090:	b005      	add	sp, #20
 8005092:	bdf0      	pop	{r4, r5, r6, r7, pc}
      huart->RxXferCount--;
 8005094:	0026      	movs	r6, r4
      uhdata = (uint16_t) READ_REG(huart->Instance->RDR);
 8005096:	6823      	ldr	r3, [r4, #0]
      *huart->pRxBuffPtr = (uint8_t)(uhdata & (uint8_t)uhMask);
 8005098:	9902      	ldr	r1, [sp, #8]
      uhdata = (uint16_t) READ_REG(huart->Instance->RDR);
 800509a:	6a5b      	ldr	r3, [r3, #36]	@ 0x24
      *huart->pRxBuffPtr = (uint8_t)(uhdata & (uint8_t)uhMask);
 800509c:	6da2      	ldr	r2, [r4, #88]	@ 0x58
 800509e:	400b      	ands	r3, r1
 80050a0:	7013      	strb	r3, [r2, #0]
      huart->pRxBuffPtr++;
 80050a2:	6da3      	ldr	r3, [r4, #88]	@ 0x58
      huart->RxXferCount--;
 80050a4:	365e      	adds	r6, #94	@ 0x5e
      huart->pRxBuffPtr++;
 80050a6:	3301      	adds	r3, #1
 80050a8:	65a3      	str	r3, [r4, #88]	@ 0x58
      huart->RxXferCount--;
 80050aa:	8833      	ldrh	r3, [r6, #0]
      isrflags = READ_REG(huart->Instance->ISR);
 80050ac:	6822      	ldr	r2, [r4, #0]
      huart->RxXferCount--;
 80050ae:	3b01      	subs	r3, #1
 80050b0:	b29b      	uxth	r3, r3
 80050b2:	8033      	strh	r3, [r6, #0]
      if ((isrflags & (USART_ISR_PE | USART_ISR_FE | USART_ISR_NE)) != 0U)
 80050b4:	2307      	movs	r3, #7
      isrflags = READ_REG(huart->Instance->ISR);
 80050b6:	69d5      	ldr	r5, [r2, #28]
      if ((isrflags & (USART_ISR_PE | USART_ISR_FE | USART_ISR_NE)) != 0U)
 80050b8:	421d      	tst	r5, r3
 80050ba:	d02f      	beq.n	800511c <UART_RxISR_8BIT_FIFOEN+0xd0>
        if (((isrflags & USART_ISR_PE) != 0U) && ((cr1its & USART_CR1_PEIE) != 0U))
 80050bc:	3b06      	subs	r3, #6
 80050be:	421d      	tst	r5, r3
 80050c0:	d008      	beq.n	80050d4 <UART_RxISR_8BIT_FIFOEN+0x88>
 80050c2:	9903      	ldr	r1, [sp, #12]
 80050c4:	05c9      	lsls	r1, r1, #23
 80050c6:	d505      	bpl.n	80050d4 <UART_RxISR_8BIT_FIFOEN+0x88>
          huart->ErrorCode |= HAL_UART_ERROR_PE;
 80050c8:	0021      	movs	r1, r4
          __HAL_UART_CLEAR_FLAG(huart, UART_CLEAR_PEF);
 80050ca:	6213      	str	r3, [r2, #32]
          huart->ErrorCode |= HAL_UART_ERROR_PE;
 80050cc:	3190      	adds	r1, #144	@ 0x90
 80050ce:	6808      	ldr	r0, [r1, #0]
 80050d0:	4303      	orrs	r3, r0
 80050d2:	600b      	str	r3, [r1, #0]
        if (((isrflags & USART_ISR_FE) != 0U) && ((cr3its & USART_CR3_EIE) != 0U))
 80050d4:	2302      	movs	r3, #2
 80050d6:	421d      	tst	r5, r3
 80050d8:	d009      	beq.n	80050ee <UART_RxISR_8BIT_FIFOEN+0xa2>
 80050da:	9901      	ldr	r1, [sp, #4]
 80050dc:	07c9      	lsls	r1, r1, #31
 80050de:	d506      	bpl.n	80050ee <UART_RxISR_8BIT_FIFOEN+0xa2>
          huart->ErrorCode |= HAL_UART_ERROR_FE;
 80050e0:	0021      	movs	r1, r4
          __HAL_UART_CLEAR_FLAG(huart, UART_CLEAR_FEF);
 80050e2:	6213      	str	r3, [r2, #32]
          huart->ErrorCode |= HAL_UART_ERROR_FE;
 80050e4:	3190      	adds	r1, #144	@ 0x90
 80050e6:	6808      	ldr	r0, [r1, #0]
 80050e8:	18db      	adds	r3, r3, r3
 80050ea:	4303      	orrs	r3, r0
 80050ec:	600b      	str	r3, [r1, #0]
        if (((isrflags & USART_ISR_NE) != 0U) && ((cr3its & USART_CR3_EIE) != 0U))
 80050ee:	2304      	movs	r3, #4
 80050f0:	421d      	tst	r5, r3
 80050f2:	d009      	beq.n	8005108 <UART_RxISR_8BIT_FIFOEN+0xbc>
 80050f4:	9901      	ldr	r1, [sp, #4]
 80050f6:	07c9      	lsls	r1, r1, #31
 80050f8:	d506      	bpl.n	8005108 <UART_RxISR_8BIT_FIFOEN+0xbc>
          __HAL_UART_CLEAR_FLAG(huart, UART_CLEAR_NEF);
 80050fa:	6213      	str	r3, [r2, #32]
          huart->ErrorCode |= HAL_UART_ERROR_NE;
 80050fc:	0022      	movs	r2, r4
 80050fe:	3290      	adds	r2, #144	@ 0x90
 8005100:	6811      	ldr	r1, [r2, #0]
 8005102:	3b02      	subs	r3, #2
 8005104:	430b      	orrs	r3, r1
 8005106:	6013      	str	r3, [r2, #0]
        if (huart->ErrorCode != HAL_UART_ERROR_NONE)
 8005108:	0027      	movs	r7, r4
 800510a:	3790      	adds	r7, #144	@ 0x90
 800510c:	683b      	ldr	r3, [r7, #0]
 800510e:	2b00      	cmp	r3, #0
 8005110:	d004      	beq.n	800511c <UART_RxISR_8BIT_FIFOEN+0xd0>
          HAL_UART_ErrorCallback(huart);
 8005112:	0020      	movs	r0, r4
 8005114:	f7ff fd0f 	bl	8004b36 <HAL_UART_ErrorCallback>
          huart->ErrorCode = HAL_UART_ERROR_NONE;
 8005118:	2300      	movs	r3, #0
 800511a:	603b      	str	r3, [r7, #0]
      if (huart->RxXferCount == 0U)
 800511c:	8833      	ldrh	r3, [r6, #0]
 800511e:	b299      	uxth	r1, r3
 8005120:	2b00      	cmp	r3, #0
 8005122:	d1ab      	bne.n	800507c <UART_RxISR_8BIT_FIFOEN+0x30>
  __ASM volatile ("MRS %0, primask" : "=r" (result) :: "memory");
 8005124:	f3ef 8610 	mrs	r6, PRIMASK
  __ASM volatile ("MSR primask, %0" : : "r" (priMask) : "memory");
 8005128:	3301      	adds	r3, #1
 800512a:	f383 8810 	msr	PRIMASK, r3
        ATOMIC_CLEAR_BIT(huart->Instance->CR1, USART_CR1_PEIE);
 800512e:	6820      	ldr	r0, [r4, #0]
 8005130:	4f36      	ldr	r7, [pc, #216]	@ (800520c <UART_RxISR_8BIT_FIFOEN+0x1c0>)
 8005132:	6802      	ldr	r2, [r0, #0]
 8005134:	403a      	ands	r2, r7
 8005136:	6002      	str	r2, [r0, #0]
 8005138:	f386 8810 	msr	PRIMASK, r6
  __ASM volatile ("MRS %0, primask" : "=r" (result) :: "memory");
 800513c:	f3ef 8610 	mrs	r6, PRIMASK
  __ASM volatile ("MSR primask, %0" : : "r" (priMask) : "memory");
 8005140:	f383 8810 	msr	PRIMASK, r3
        ATOMIC_CLEAR_BIT(huart->Instance->CR3, (USART_CR3_EIE | USART_CR3_RXFTIE));
 8005144:	6820      	ldr	r0, [r4, #0]
 8005146:	4f32      	ldr	r7, [pc, #200]	@ (8005210 <UART_RxISR_8BIT_FIFOEN+0x1c4>)
 8005148:	6882      	ldr	r2, [r0, #8]
 800514a:	403a      	ands	r2, r7
 800514c:	6082      	str	r2, [r0, #8]
 800514e:	f386 8810 	msr	PRIMASK, r6
        huart->RxState = HAL_UART_STATE_READY;
 8005152:	0022      	movs	r2, r4
 8005154:	2020      	movs	r0, #32
 8005156:	328c      	adds	r2, #140	@ 0x8c
 8005158:	6010      	str	r0, [r2, #0]
        huart->RxISR = NULL;
 800515a:	6761      	str	r1, [r4, #116]	@ 0x74
        huart->RxEventType = HAL_UART_RXEVENT_TC;
 800515c:	6721      	str	r1, [r4, #112]	@ 0x70
        if (!(IS_LPUART_INSTANCE(huart->Instance)))
 800515e:	6822      	ldr	r2, [r4, #0]
 8005160:	492c      	ldr	r1, [pc, #176]	@ (8005214 <UART_RxISR_8BIT_FIFOEN+0x1c8>)
 8005162:	428a      	cmp	r2, r1
 8005164:	d00d      	beq.n	8005182 <UART_RxISR_8BIT_FIFOEN+0x136>
          if (READ_BIT(huart->Instance->CR2, USART_CR2_RTOEN) != 0U)
 8005166:	6852      	ldr	r2, [r2, #4]
 8005168:	0212      	lsls	r2, r2, #8
 800516a:	d50a      	bpl.n	8005182 <UART_RxISR_8BIT_FIFOEN+0x136>
  __ASM volatile ("MRS %0, primask" : "=r" (result) :: "memory");
 800516c:	f3ef 8110 	mrs	r1, PRIMASK
  __ASM volatile ("MSR primask, %0" : : "r" (priMask) : "memory");
 8005170:	f383 8810 	msr	PRIMASK, r3
            ATOMIC_CLEAR_BIT(huart->Instance->CR1, USART_CR1_RTOIE);
 8005174:	6822      	ldr	r2, [r4, #0]
 8005176:	4828      	ldr	r0, [pc, #160]	@ (8005218 <UART_RxISR_8BIT_FIFOEN+0x1cc>)
 8005178:	6813      	ldr	r3, [r2, #0]
 800517a:	4003      	ands	r3, r0
 800517c:	6013      	str	r3, [r2, #0]
 800517e:	f381 8810 	msr	PRIMASK, r1
        if (huart->ReceptionType == HAL_UART_RECEPTION_TOIDLE)
 8005182:	6ee3      	ldr	r3, [r4, #108]	@ 0x6c
 8005184:	2b01      	cmp	r3, #1
 8005186:	d118      	bne.n	80051ba <UART_RxISR_8BIT_FIFOEN+0x16e>
          huart->ReceptionType = HAL_UART_RECEPTION_STANDARD;
 8005188:	2200      	movs	r2, #0
 800518a:	66e2      	str	r2, [r4, #108]	@ 0x6c
  __ASM volatile ("MRS %0, primask" : "=r" (result) :: "memory");
 800518c:	f3ef 8010 	mrs	r0, PRIMASK
  __ASM volatile ("MSR primask, %0" : : "r" (priMask) : "memory");
 8005190:	f383 8810 	msr	PRIMASK, r3
          ATOMIC_CLEAR_BIT(huart->Instance->CR1, USART_CR1_IDLEIE);
 8005194:	6821      	ldr	r1, [r4, #0]
 8005196:	330f      	adds	r3, #15
 8005198:	680a      	ldr	r2, [r1, #0]
 800519a:	439a      	bics	r2, r3
 800519c:	600a      	str	r2, [r1, #0]
 800519e:	f380 8810 	msr	PRIMASK, r0
          if (__HAL_UART_GET_FLAG(huart, UART_FLAG_IDLE) == SET)
 80051a2:	6822      	ldr	r2, [r4, #0]
 80051a4:	69d1      	ldr	r1, [r2, #28]
 80051a6:	4219      	tst	r1, r3
 80051a8:	d000      	beq.n	80051ac <UART_RxISR_8BIT_FIFOEN+0x160>
            __HAL_UART_CLEAR_FLAG(huart, UART_CLEAR_IDLEF);
 80051aa:	6213      	str	r3, [r2, #32]
          HAL_UARTEx_RxEventCallback(huart, huart->RxXferSize);
 80051ac:	0023      	movs	r3, r4
 80051ae:	335c      	adds	r3, #92	@ 0x5c
 80051b0:	0020      	movs	r0, r4
 80051b2:	8819      	ldrh	r1, [r3, #0]
 80051b4:	f7ff fccb 	bl	8004b4e <HAL_UARTEx_RxEventCallback>
 80051b8:	e760      	b.n	800507c <UART_RxISR_8BIT_FIFOEN+0x30>
          HAL_UART_RxCpltCallback(huart);
 80051ba:	0020      	movs	r0, r4
 80051bc:	f7fc fb00 	bl	80017c0 <HAL_UART_RxCpltCallback>
    while ((nb_rx_data > 0U) && ((isrflags & USART_ISR_RXNE_RXFNE) != 0U))
 80051c0:	e75c      	b.n	800507c <UART_RxISR_8BIT_FIFOEN+0x30>
    if ((rxdatacount != 0U) && (rxdatacount < huart->NbRxDataToProcess))
 80051c2:	0023      	movs	r3, r4
 80051c4:	3368      	adds	r3, #104	@ 0x68
 80051c6:	881b      	ldrh	r3, [r3, #0]
 80051c8:	4293      	cmp	r3, r2
 80051ca:	d800      	bhi.n	80051ce <UART_RxISR_8BIT_FIFOEN+0x182>
 80051cc:	e760      	b.n	8005090 <UART_RxISR_8BIT_FIFOEN+0x44>
  __ASM volatile ("MRS %0, primask" : "=r" (result) :: "memory");
 80051ce:	f3ef 8010 	mrs	r0, PRIMASK
  __ASM volatile ("MSR primask, %0" : : "r" (priMask) : "memory");
 80051d2:	2201      	movs	r2, #1
 80051d4:	f382 8810 	msr	PRIMASK, r2
      ATOMIC_CLEAR_BIT(huart->Instance->CR3, USART_CR3_RXFTIE);
 80051d8:	6821      	ldr	r1, [r4, #0]
 80051da:	4d10      	ldr	r5, [pc, #64]	@ (800521c <UART_RxISR_8BIT_FIFOEN+0x1d0>)
 80051dc:	688b      	ldr	r3, [r1, #8]
 80051de:	402b      	ands	r3, r5
 80051e0:	608b      	str	r3, [r1, #8]
 80051e2:	f380 8810 	msr	PRIMASK, r0
      huart->RxISR = UART_RxISR_8BIT;
 80051e6:	4b0e      	ldr	r3, [pc, #56]	@ (8005220 <UART_RxISR_8BIT_FIFOEN+0x1d4>)
 80051e8:	6763      	str	r3, [r4, #116]	@ 0x74
  __ASM volatile ("MRS %0, primask" : "=r" (result) :: "memory");
 80051ea:	f3ef 8110 	mrs	r1, PRIMASK
  __ASM volatile ("MSR primask, %0" : : "r" (priMask) : "memory");
 80051ee:	f382 8810 	msr	PRIMASK, r2
      ATOMIC_SET_BIT(huart->Instance->CR1, USART_CR1_RXNEIE_RXFNEIE);
 80051f2:	2320      	movs	r3, #32
 80051f4:	6822      	ldr	r2, [r4, #0]
 80051f6:	6810      	ldr	r0, [r2, #0]
 80051f8:	4303      	orrs	r3, r0
 80051fa:	6013      	str	r3, [r2, #0]
 80051fc:	f381 8810 	msr	PRIMASK, r1
}
 8005200:	e746      	b.n	8005090 <UART_RxISR_8BIT_FIFOEN+0x44>
    __HAL_UART_SEND_REQ(huart, UART_RXDATA_FLUSH_REQUEST);
 8005202:	2208      	movs	r2, #8
 8005204:	6999      	ldr	r1, [r3, #24]
 8005206:	430a      	orrs	r2, r1
 8005208:	619a      	str	r2, [r3, #24]
}
 800520a:	e741      	b.n	8005090 <UART_RxISR_8BIT_FIFOEN+0x44>
 800520c:	fffffeff 	.word	0xfffffeff
 8005210:	effffffe 	.word	0xeffffffe
 8005214:	40008000 	.word	0x40008000
 8005218:	fbffffff 	.word	0xfbffffff
 800521c:	efffffff 	.word	0xefffffff
 8005220:	08004e8d 	.word	0x08004e8d

08005224 <UART_RxISR_16BIT_FIFOEN>:
  * @retval None
  */
static void UART_RxISR_16BIT_FIFOEN(UART_HandleTypeDef *huart)
{
  uint16_t *tmp;
  uint16_t  uhMask = huart->Mask;
 8005224:	0003      	movs	r3, r0
{
 8005226:	b5f0      	push	{r4, r5, r6, r7, lr}
  uint16_t  uhMask = huart->Mask;
 8005228:	3360      	adds	r3, #96	@ 0x60
 800522a:	881b      	ldrh	r3, [r3, #0]
{
 800522c:	b085      	sub	sp, #20
  uint16_t  uhMask = huart->Mask;
 800522e:	9302      	str	r3, [sp, #8]
  uint16_t  uhdata;
  uint16_t  nb_rx_data;
  uint16_t  rxdatacount;
  uint32_t  isrflags = READ_REG(huart->Instance->ISR);
 8005230:	6803      	ldr	r3, [r0, #0]
{
 8005232:	0004      	movs	r4, r0
  uint32_t  isrflags = READ_REG(huart->Instance->ISR);
 8005234:	69dd      	ldr	r5, [r3, #28]
  uint32_t  cr1its   = READ_REG(huart->Instance->CR1);
 8005236:	681a      	ldr	r2, [r3, #0]
 8005238:	9203      	str	r2, [sp, #12]
  uint32_t  cr3its   = READ_REG(huart->Instance->CR3);
 800523a:	689a      	ldr	r2, [r3, #8]
 800523c:	9201      	str	r2, [sp, #4]

  /* Check that a Rx process is ongoing */
  if (huart->RxState == HAL_UART_STATE_BUSY_RX)
 800523e:	0002      	movs	r2, r0
 8005240:	328c      	adds	r2, #140	@ 0x8c
 8005242:	6812      	ldr	r2, [r2, #0]
 8005244:	2a22      	cmp	r2, #34	@ 0x22
 8005246:	d000      	beq.n	800524a <UART_RxISR_16BIT_FIFOEN+0x26>
 8005248:	e0c5      	b.n	80053d6 <UART_RxISR_16BIT_FIFOEN+0x1b2>
  {
    nb_rx_data = huart->NbRxDataToProcess;
 800524a:	0003      	movs	r3, r0
 800524c:	3368      	adds	r3, #104	@ 0x68
    while ((nb_rx_data > 0U) && ((isrflags & USART_ISR_RXNE_RXFNE) != 0U))
 800524e:	881b      	ldrh	r3, [r3, #0]
 8005250:	2b00      	cmp	r3, #0
 8005252:	d002      	beq.n	800525a <UART_RxISR_16BIT_FIFOEN+0x36>
 8005254:	2320      	movs	r3, #32
 8005256:	421d      	tst	r5, r3
 8005258:	d108      	bne.n	800526c <UART_RxISR_16BIT_FIFOEN+0x48>

    /* When remaining number of bytes to receive is less than the RX FIFO
    threshold, next incoming frames are processed as if FIFO mode was
    disabled (i.e. one interrupt per received frame).
    */
    rxdatacount = huart->RxXferCount;
 800525a:	0023      	movs	r3, r4
 800525c:	335e      	adds	r3, #94	@ 0x5e
 800525e:	881b      	ldrh	r3, [r3, #0]
 8005260:	b29a      	uxth	r2, r3
    if ((rxdatacount != 0U) && (rxdatacount < huart->NbRxDataToProcess))
 8005262:	2b00      	cmp	r3, #0
 8005264:	d000      	beq.n	8005268 <UART_RxISR_16BIT_FIFOEN+0x44>
 8005266:	e096      	b.n	8005396 <UART_RxISR_16BIT_FIFOEN+0x172>
  else
  {
    /* Clear RXNE interrupt flag */
    __HAL_UART_SEND_REQ(huart, UART_RXDATA_FLUSH_REQUEST);
  }
}
 8005268:	b005      	add	sp, #20
 800526a:	bdf0      	pop	{r4, r5, r6, r7, pc}
      huart->RxXferCount--;
 800526c:	0026      	movs	r6, r4
      uhdata = (uint16_t) READ_REG(huart->Instance->RDR);
 800526e:	6823      	ldr	r3, [r4, #0]
      *tmp = (uint16_t)(uhdata & uhMask);
 8005270:	9802      	ldr	r0, [sp, #8]
      uhdata = (uint16_t) READ_REG(huart->Instance->RDR);
 8005272:	6a59      	ldr	r1, [r3, #36]	@ 0x24
      tmp = (uint16_t *) huart->pRxBuffPtr ;
 8005274:	6da2      	ldr	r2, [r4, #88]	@ 0x58
      *tmp = (uint16_t)(uhdata & uhMask);
 8005276:	4001      	ands	r1, r0
 8005278:	8011      	strh	r1, [r2, #0]
      huart->pRxBuffPtr += 2U;
 800527a:	3202      	adds	r2, #2
 800527c:	65a2      	str	r2, [r4, #88]	@ 0x58
      huart->RxXferCount--;
 800527e:	365e      	adds	r6, #94	@ 0x5e
 8005280:	8832      	ldrh	r2, [r6, #0]
 8005282:	3a01      	subs	r2, #1
 8005284:	b292      	uxth	r2, r2
 8005286:	8032      	strh	r2, [r6, #0]
      if ((isrflags & (USART_ISR_PE | USART_ISR_FE | USART_ISR_NE)) != 0U)
 8005288:	2207      	movs	r2, #7
      isrflags = READ_REG(huart->Instance->ISR);
 800528a:	69dd      	ldr	r5, [r3, #28]
      if ((isrflags & (USART_ISR_PE | USART_ISR_FE | USART_ISR_NE)) != 0U)
 800528c:	4215      	tst	r5, r2
 800528e:	d02f      	beq.n	80052f0 <UART_RxISR_16BIT_FIFOEN+0xcc>
        if (((isrflags & USART_ISR_PE) != 0U) && ((cr1its & USART_CR1_PEIE) != 0U))
 8005290:	3a06      	subs	r2, #6
 8005292:	4215      	tst	r5, r2
 8005294:	d008      	beq.n	80052a8 <UART_RxISR_16BIT_FIFOEN+0x84>
 8005296:	9903      	ldr	r1, [sp, #12]
 8005298:	05c9      	lsls	r1, r1, #23
 800529a:	d505      	bpl.n	80052a8 <UART_RxISR_16BIT_FIFOEN+0x84>
          huart->ErrorCode |= HAL_UART_ERROR_PE;
 800529c:	0021      	movs	r1, r4
          __HAL_UART_CLEAR_FLAG(huart, UART_CLEAR_PEF);
 800529e:	621a      	str	r2, [r3, #32]
          huart->ErrorCode |= HAL_UART_ERROR_PE;
 80052a0:	3190      	adds	r1, #144	@ 0x90
 80052a2:	6808      	ldr	r0, [r1, #0]
 80052a4:	4302      	orrs	r2, r0
 80052a6:	600a      	str	r2, [r1, #0]
        if (((isrflags & USART_ISR_FE) != 0U) && ((cr3its & USART_CR3_EIE) != 0U))
 80052a8:	2202      	movs	r2, #2
 80052aa:	4215      	tst	r5, r2
 80052ac:	d009      	beq.n	80052c2 <UART_RxISR_16BIT_FIFOEN+0x9e>
 80052ae:	9901      	ldr	r1, [sp, #4]
 80052b0:	07c9      	lsls	r1, r1, #31
 80052b2:	d506      	bpl.n	80052c2 <UART_RxISR_16BIT_FIFOEN+0x9e>
          huart->ErrorCode |= HAL_UART_ERROR_FE;
 80052b4:	0021      	movs	r1, r4
          __HAL_UART_CLEAR_FLAG(huart, UART_CLEAR_FEF);
 80052b6:	621a      	str	r2, [r3, #32]
          huart->ErrorCode |= HAL_UART_ERROR_FE;
 80052b8:	3190      	adds	r1, #144	@ 0x90
 80052ba:	6808      	ldr	r0, [r1, #0]
 80052bc:	1892      	adds	r2, r2, r2
 80052be:	4302      	orrs	r2, r0
 80052c0:	600a      	str	r2, [r1, #0]
        if (((isrflags & USART_ISR_NE) != 0U) && ((cr3its & USART_CR3_EIE) != 0U))
 80052c2:	2204      	movs	r2, #4
 80052c4:	4215      	tst	r5, r2
 80052c6:	d009      	beq.n	80052dc <UART_RxISR_16BIT_FIFOEN+0xb8>
 80052c8:	9901      	ldr	r1, [sp, #4]
 80052ca:	07c9      	lsls	r1, r1, #31
 80052cc:	d506      	bpl.n	80052dc <UART_RxISR_16BIT_FIFOEN+0xb8>
          __HAL_UART_CLEAR_FLAG(huart, UART_CLEAR_NEF);
 80052ce:	621a      	str	r2, [r3, #32]
          huart->ErrorCode |= HAL_UART_ERROR_NE;
 80052d0:	0022      	movs	r2, r4
 80052d2:	2302      	movs	r3, #2
 80052d4:	3290      	adds	r2, #144	@ 0x90
 80052d6:	6811      	ldr	r1, [r2, #0]
 80052d8:	430b      	orrs	r3, r1
 80052da:	6013      	str	r3, [r2, #0]
        if (huart->ErrorCode != HAL_UART_ERROR_NONE)
 80052dc:	0027      	movs	r7, r4
 80052de:	3790      	adds	r7, #144	@ 0x90
 80052e0:	683b      	ldr	r3, [r7, #0]
 80052e2:	2b00      	cmp	r3, #0
 80052e4:	d004      	beq.n	80052f0 <UART_RxISR_16BIT_FIFOEN+0xcc>
          HAL_UART_ErrorCallback(huart);
 80052e6:	0020      	movs	r0, r4
 80052e8:	f7ff fc25 	bl	8004b36 <HAL_UART_ErrorCallback>
          huart->ErrorCode = HAL_UART_ERROR_NONE;
 80052ec:	2300      	movs	r3, #0
 80052ee:	603b      	str	r3, [r7, #0]
      if (huart->RxXferCount == 0U)
 80052f0:	8833      	ldrh	r3, [r6, #0]
 80052f2:	b299      	uxth	r1, r3
 80052f4:	2b00      	cmp	r3, #0
 80052f6:	d1ad      	bne.n	8005254 <UART_RxISR_16BIT_FIFOEN+0x30>
  __ASM volatile ("MRS %0, primask" : "=r" (result) :: "memory");
 80052f8:	f3ef 8610 	mrs	r6, PRIMASK
  __ASM volatile ("MSR primask, %0" : : "r" (priMask) : "memory");
 80052fc:	3301      	adds	r3, #1
 80052fe:	f383 8810 	msr	PRIMASK, r3
        ATOMIC_CLEAR_BIT(huart->Instance->CR1, USART_CR1_PEIE);
 8005302:	6820      	ldr	r0, [r4, #0]
 8005304:	4f36      	ldr	r7, [pc, #216]	@ (80053e0 <UART_RxISR_16BIT_FIFOEN+0x1bc>)
 8005306:	6802      	ldr	r2, [r0, #0]
 8005308:	403a      	ands	r2, r7
 800530a:	6002      	str	r2, [r0, #0]
 800530c:	f386 8810 	msr	PRIMASK, r6
  __ASM volatile ("MRS %0, primask" : "=r" (result) :: "memory");
 8005310:	f3ef 8610 	mrs	r6, PRIMASK
  __ASM volatile ("MSR primask, %0" : : "r" (priMask) : "memory");
 8005314:	f383 8810 	msr	PRIMASK, r3
        ATOMIC_CLEAR_BIT(huart->Instance->CR3, (USART_CR3_EIE | USART_CR3_RXFTIE));
 8005318:	6820      	ldr	r0, [r4, #0]
 800531a:	4f32      	ldr	r7, [pc, #200]	@ (80053e4 <UART_RxISR_16BIT_FIFOEN+0x1c0>)
 800531c:	6882      	ldr	r2, [r0, #8]
 800531e:	403a      	ands	r2, r7
 8005320:	6082      	str	r2, [r0, #8]
 8005322:	f386 8810 	msr	PRIMASK, r6
        huart->RxState = HAL_UART_STATE_READY;
 8005326:	0022      	movs	r2, r4
 8005328:	2020      	movs	r0, #32
 800532a:	328c      	adds	r2, #140	@ 0x8c
 800532c:	6010      	str	r0, [r2, #0]
        huart->RxISR = NULL;
 800532e:	6761      	str	r1, [r4, #116]	@ 0x74
        huart->RxEventType = HAL_UART_RXEVENT_TC;
 8005330:	6721      	str	r1, [r4, #112]	@ 0x70
        if (!(IS_LPUART_INSTANCE(huart->Instance)))
 8005332:	6822      	ldr	r2, [r4, #0]
 8005334:	492c      	ldr	r1, [pc, #176]	@ (80053e8 <UART_RxISR_16BIT_FIFOEN+0x1c4>)
 8005336:	428a      	cmp	r2, r1
 8005338:	d00d      	beq.n	8005356 <UART_RxISR_16BIT_FIFOEN+0x132>
          if (READ_BIT(huart->Instance->CR2, USART_CR2_RTOEN) != 0U)
 800533a:	6852      	ldr	r2, [r2, #4]
 800533c:	0212      	lsls	r2, r2, #8
 800533e:	d50a      	bpl.n	8005356 <UART_RxISR_16BIT_FIFOEN+0x132>
  __ASM volatile ("MRS %0, primask" : "=r" (result) :: "memory");
 8005340:	f3ef 8110 	mrs	r1, PRIMASK
  __ASM volatile ("MSR primask, %0" : : "r" (priMask) : "memory");
 8005344:	f383 8810 	msr	PRIMASK, r3
            ATOMIC_CLEAR_BIT(huart->Instance->CR1, USART_CR1_RTOIE);
 8005348:	6822      	ldr	r2, [r4, #0]
 800534a:	4828      	ldr	r0, [pc, #160]	@ (80053ec <UART_RxISR_16BIT_FIFOEN+0x1c8>)
 800534c:	6813      	ldr	r3, [r2, #0]
 800534e:	4003      	ands	r3, r0
 8005350:	6013      	str	r3, [r2, #0]
 8005352:	f381 8810 	msr	PRIMASK, r1
        if (huart->ReceptionType == HAL_UART_RECEPTION_TOIDLE)
 8005356:	6ee3      	ldr	r3, [r4, #108]	@ 0x6c
 8005358:	2b01      	cmp	r3, #1
 800535a:	d118      	bne.n	800538e <UART_RxISR_16BIT_FIFOEN+0x16a>
          huart->ReceptionType = HAL_UART_RECEPTION_STANDARD;
 800535c:	2200      	movs	r2, #0
 800535e:	66e2      	str	r2, [r4, #108]	@ 0x6c
  __ASM volatile ("MRS %0, primask" : "=r" (result) :: "memory");
 8005360:	f3ef 8010 	mrs	r0, PRIMASK
  __ASM volatile ("MSR primask, %0" : : "r" (priMask) : "memory");
 8005364:	f383 8810 	msr	PRIMASK, r3
          ATOMIC_CLEAR_BIT(huart->Instance->CR1, USART_CR1_IDLEIE);
 8005368:	6821      	ldr	r1, [r4, #0]
 800536a:	330f      	adds	r3, #15
 800536c:	680a      	ldr	r2, [r1, #0]
 800536e:	439a      	bics	r2, r3
 8005370:	600a      	str	r2, [r1, #0]
 8005372:	f380 8810 	msr	PRIMASK, r0
          if (__HAL_UART_GET_FLAG(huart, UART_FLAG_IDLE) == SET)
 8005376:	6822      	ldr	r2, [r4, #0]
 8005378:	69d1      	ldr	r1, [r2, #28]
 800537a:	4219      	tst	r1, r3
 800537c:	d000      	beq.n	8005380 <UART_RxISR_16BIT_FIFOEN+0x15c>
            __HAL_UART_CLEAR_FLAG(huart, UART_CLEAR_IDLEF);
 800537e:	6213      	str	r3, [r2, #32]
          HAL_UARTEx_RxEventCallback(huart, huart->RxXferSize);
 8005380:	0023      	movs	r3, r4
 8005382:	335c      	adds	r3, #92	@ 0x5c
 8005384:	0020      	movs	r0, r4
 8005386:	8819      	ldrh	r1, [r3, #0]
 8005388:	f7ff fbe1 	bl	8004b4e <HAL_UARTEx_RxEventCallback>
 800538c:	e762      	b.n	8005254 <UART_RxISR_16BIT_FIFOEN+0x30>
          HAL_UART_RxCpltCallback(huart);
 800538e:	0020      	movs	r0, r4
 8005390:	f7fc fa16 	bl	80017c0 <HAL_UART_RxCpltCallback>
    while ((nb_rx_data > 0U) && ((isrflags & USART_ISR_RXNE_RXFNE) != 0U))
 8005394:	e75e      	b.n	8005254 <UART_RxISR_16BIT_FIFOEN+0x30>
    if ((rxdatacount != 0U) && (rxdatacount < huart->NbRxDataToProcess))
 8005396:	0023      	movs	r3, r4
 8005398:	3368      	adds	r3, #104	@ 0x68
 800539a:	881b      	ldrh	r3, [r3, #0]
 800539c:	4293      	cmp	r3, r2
 800539e:	d800      	bhi.n	80053a2 <UART_RxISR_16BIT_FIFOEN+0x17e>
 80053a0:	e762      	b.n	8005268 <UART_RxISR_16BIT_FIFOEN+0x44>
  __ASM volatile ("MRS %0, primask" : "=r" (result) :: "memory");
 80053a2:	f3ef 8010 	mrs	r0, PRIMASK
  __ASM volatile ("MSR primask, %0" : : "r" (priMask) : "memory");
 80053a6:	2201      	movs	r2, #1
 80053a8:	f382 8810 	msr	PRIMASK, r2
      ATOMIC_CLEAR_BIT(huart->Instance->CR3, USART_CR3_RXFTIE);
 80053ac:	6821      	ldr	r1, [r4, #0]
 80053ae:	4d10      	ldr	r5, [pc, #64]	@ (80053f0 <UART_RxISR_16BIT_FIFOEN+0x1cc>)
 80053b0:	688b      	ldr	r3, [r1, #8]
 80053b2:	402b      	ands	r3, r5
 80053b4:	608b      	str	r3, [r1, #8]
 80053b6:	f380 8810 	msr	PRIMASK, r0
      huart->RxISR = UART_RxISR_16BIT;
 80053ba:	4b0e      	ldr	r3, [pc, #56]	@ (80053f4 <UART_RxISR_16BIT_FIFOEN+0x1d0>)
 80053bc:	6763      	str	r3, [r4, #116]	@ 0x74
  __ASM volatile ("MRS %0, primask" : "=r" (result) :: "memory");
 80053be:	f3ef 8110 	mrs	r1, PRIMASK
  __ASM volatile ("MSR primask, %0" : : "r" (priMask) : "memory");
 80053c2:	f382 8810 	msr	PRIMASK, r2
      ATOMIC_SET_BIT(huart->Instance->CR1, USART_CR1_RXNEIE_RXFNEIE);
 80053c6:	2320      	movs	r3, #32
 80053c8:	6822      	ldr	r2, [r4, #0]
 80053ca:	6810      	ldr	r0, [r2, #0]
 80053cc:	4303      	orrs	r3, r0
 80053ce:	6013      	str	r3, [r2, #0]
 80053d0:	f381 8810 	msr	PRIMASK, r1
}
 80053d4:	e748      	b.n	8005268 <UART_RxISR_16BIT_FIFOEN+0x44>
    __HAL_UART_SEND_REQ(huart, UART_RXDATA_FLUSH_REQUEST);
 80053d6:	2208      	movs	r2, #8
 80053d8:	6999      	ldr	r1, [r3, #24]
 80053da:	430a      	orrs	r2, r1
 80053dc:	619a      	str	r2, [r3, #24]
}
 80053de:	e743      	b.n	8005268 <UART_RxISR_16BIT_FIFOEN+0x44>
 80053e0:	fffffeff 	.word	0xfffffeff
 80053e4:	effffffe 	.word	0xeffffffe
 80053e8:	40008000 	.word	0x40008000
 80053ec:	fbffffff 	.word	0xfbffffff
 80053f0:	efffffff 	.word	0xefffffff
 80053f4:	08004f6d 	.word	0x08004f6d

080053f8 <UART_SetConfig>:
{
 80053f8:	b5f8      	push	{r3, r4, r5, r6, r7, lr}
 80053fa:	0004      	movs	r4, r0
  tmpreg = (uint32_t)huart->Init.WordLength | huart->Init.Parity | huart->Init.Mode | huart->Init.OverSampling ;
 80053fc:	6925      	ldr	r5, [r4, #16]
 80053fe:	68a2      	ldr	r2, [r4, #8]
  MODIFY_REG(huart->Instance->CR1, USART_CR1_FIELDS, tmpreg);
 8005400:	6823      	ldr	r3, [r4, #0]
  tmpreg = (uint32_t)huart->Init.WordLength | huart->Init.Parity | huart->Init.Mode | huart->Init.OverSampling ;
 8005402:	432a      	orrs	r2, r5
 8005404:	6965      	ldr	r5, [r4, #20]
  MODIFY_REG(huart->Instance->CR1, USART_CR1_FIELDS, tmpreg);
 8005406:	6819      	ldr	r1, [r3, #0]
  tmpreg = (uint32_t)huart->Init.WordLength | huart->Init.Parity | huart->Init.Mode | huart->Init.OverSampling ;
 8005408:	69c0      	ldr	r0, [r0, #28]
 800540a:	432a      	orrs	r2, r5
  MODIFY_REG(huart->Instance->CR1, USART_CR1_FIELDS, tmpreg);
 800540c:	4d66      	ldr	r5, [pc, #408]	@ (80055a8 <UART_SetConfig+0x1b0>)
  tmpreg = (uint32_t)huart->Init.WordLength | huart->Init.Parity | huart->Init.Mode | huart->Init.OverSampling ;
 800540e:	4302      	orrs	r2, r0
  MODIFY_REG(huart->Instance->CR1, USART_CR1_FIELDS, tmpreg);
 8005410:	4029      	ands	r1, r5
 8005412:	430a      	orrs	r2, r1
 8005414:	601a      	str	r2, [r3, #0]
  MODIFY_REG(huart->Instance->CR2, USART_CR2_STOP, huart->Init.StopBits);
 8005416:	685a      	ldr	r2, [r3, #4]
 8005418:	4964      	ldr	r1, [pc, #400]	@ (80055ac <UART_SetConfig+0x1b4>)
  tmpreg = (uint32_t)huart->Init.HwFlowCtl;
 800541a:	69a5      	ldr	r5, [r4, #24]
  MODIFY_REG(huart->Instance->CR2, USART_CR2_STOP, huart->Init.StopBits);
 800541c:	400a      	ands	r2, r1
 800541e:	68e1      	ldr	r1, [r4, #12]
 8005420:	430a      	orrs	r2, r1
  if (!(UART_INSTANCE_LOWPOWER(huart)))
 8005422:	4963      	ldr	r1, [pc, #396]	@ (80055b0 <UART_SetConfig+0x1b8>)
  MODIFY_REG(huart->Instance->CR2, USART_CR2_STOP, huart->Init.StopBits);
 8005424:	605a      	str	r2, [r3, #4]
  if (!(UART_INSTANCE_LOWPOWER(huart)))
 8005426:	428b      	cmp	r3, r1
 8005428:	d001      	beq.n	800542e <UART_SetConfig+0x36>
    tmpreg |= huart->Init.OneBitSampling;
 800542a:	6a22      	ldr	r2, [r4, #32]
 800542c:	4315      	orrs	r5, r2
  MODIFY_REG(huart->Instance->CR3, USART_CR3_FIELDS, tmpreg);
 800542e:	689a      	ldr	r2, [r3, #8]
 8005430:	4e60      	ldr	r6, [pc, #384]	@ (80055b4 <UART_SetConfig+0x1bc>)
 8005432:	4032      	ands	r2, r6
 8005434:	432a      	orrs	r2, r5
  MODIFY_REG(huart->Instance->PRESC, USART_PRESC_PRESCALER, huart->Init.ClockPrescaler);
 8005436:	250f      	movs	r5, #15
  MODIFY_REG(huart->Instance->CR3, USART_CR3_FIELDS, tmpreg);
 8005438:	609a      	str	r2, [r3, #8]
  MODIFY_REG(huart->Instance->PRESC, USART_PRESC_PRESCALER, huart->Init.ClockPrescaler);
 800543a:	6ada      	ldr	r2, [r3, #44]	@ 0x2c
 800543c:	43aa      	bics	r2, r5
 800543e:	6a65      	ldr	r5, [r4, #36]	@ 0x24
 8005440:	432a      	orrs	r2, r5
 8005442:	62da      	str	r2, [r3, #44]	@ 0x2c
  UART_GETCLOCKSOURCE(huart, clocksource);
 8005444:	4a5c      	ldr	r2, [pc, #368]	@ (80055b8 <UART_SetConfig+0x1c0>)
 8005446:	4293      	cmp	r3, r2
 8005448:	d114      	bne.n	8005474 <UART_SetConfig+0x7c>
 800544a:	4b5c      	ldr	r3, [pc, #368]	@ (80055bc <UART_SetConfig+0x1c4>)
 800544c:	6d5a      	ldr	r2, [r3, #84]	@ 0x54
 800544e:	2303      	movs	r3, #3
 8005450:	401a      	ands	r2, r3
 8005452:	2380      	movs	r3, #128	@ 0x80
 8005454:	021b      	lsls	r3, r3, #8
 8005456:	2a02      	cmp	r2, #2
 8005458:	d100      	bne.n	800545c <UART_SetConfig+0x64>
 800545a:	e095      	b.n	8005588 <UART_SetConfig+0x190>
 800545c:	2a03      	cmp	r2, #3
 800545e:	d100      	bne.n	8005462 <UART_SetConfig+0x6a>
 8005460:	e09e      	b.n	80055a0 <UART_SetConfig+0x1a8>
 8005462:	2a01      	cmp	r2, #1
 8005464:	d100      	bne.n	8005468 <UART_SetConfig+0x70>
 8005466:	e096      	b.n	8005596 <UART_SetConfig+0x19e>
  else if (huart->Init.OverSampling == UART_OVERSAMPLING_8)
 8005468:	4298      	cmp	r0, r3
 800546a:	d000      	beq.n	800546e <UART_SetConfig+0x76>
 800546c:	e078      	b.n	8005560 <UART_SetConfig+0x168>
        pclk = HAL_RCC_GetPCLK1Freq();
 800546e:	f7fe fe0b 	bl	8004088 <HAL_RCC_GetPCLK1Freq>
        break;
 8005472:	e055      	b.n	8005520 <UART_SetConfig+0x128>
  UART_GETCLOCKSOURCE(huart, clocksource);
 8005474:	4a52      	ldr	r2, [pc, #328]	@ (80055c0 <UART_SetConfig+0x1c8>)
 8005476:	4293      	cmp	r3, r2
 8005478:	d100      	bne.n	800547c <UART_SetConfig+0x84>
 800547a:	e089      	b.n	8005590 <UART_SetConfig+0x198>
 800547c:	428b      	cmp	r3, r1
 800547e:	d110      	bne.n	80054a2 <UART_SetConfig+0xaa>
 8005480:	22c0      	movs	r2, #192	@ 0xc0
 8005482:	2180      	movs	r1, #128	@ 0x80
 8005484:	4b4d      	ldr	r3, [pc, #308]	@ (80055bc <UART_SetConfig+0x1c4>)
 8005486:	0112      	lsls	r2, r2, #4
 8005488:	6d5b      	ldr	r3, [r3, #84]	@ 0x54
 800548a:	0109      	lsls	r1, r1, #4
 800548c:	4013      	ands	r3, r2
 800548e:	428b      	cmp	r3, r1
 8005490:	d014      	beq.n	80054bc <UART_SetConfig+0xc4>
 8005492:	d804      	bhi.n	800549e <UART_SetConfig+0xa6>
 8005494:	2b00      	cmp	r3, #0
 8005496:	d106      	bne.n	80054a6 <UART_SetConfig+0xae>
        pclk = HAL_RCC_GetPCLK1Freq();
 8005498:	f7fe fdf6 	bl	8004088 <HAL_RCC_GetPCLK1Freq>
 800549c:	e005      	b.n	80054aa <UART_SetConfig+0xb2>
  UART_GETCLOCKSOURCE(huart, clocksource);
 800549e:	4293      	cmp	r3, r2
 80054a0:	d039      	beq.n	8005516 <UART_SetConfig+0x11e>
  else if (huart->Init.OverSampling == UART_OVERSAMPLING_8)
 80054a2:	2001      	movs	r0, #1
 80054a4:	e004      	b.n	80054b0 <UART_SetConfig+0xb8>
        pclk = HAL_RCC_GetSysClockFreq();
 80054a6:	f7fe fd01 	bl	8003eac <HAL_RCC_GetSysClockFreq>
        pclk = HAL_RCC_GetPCLK1Freq();
 80054aa:	1e06      	subs	r6, r0, #0
    if (pclk != 0U)
 80054ac:	d107      	bne.n	80054be <UART_SetConfig+0xc6>
  else if (huart->Init.OverSampling == UART_OVERSAMPLING_8)
 80054ae:	2000      	movs	r0, #0
  huart->NbRxDataToProcess = 1;
 80054b0:	4b44      	ldr	r3, [pc, #272]	@ (80055c4 <UART_SetConfig+0x1cc>)
 80054b2:	66a3      	str	r3, [r4, #104]	@ 0x68
  huart->RxISR = NULL;
 80054b4:	2300      	movs	r3, #0
 80054b6:	6763      	str	r3, [r4, #116]	@ 0x74
  huart->TxISR = NULL;
 80054b8:	67a3      	str	r3, [r4, #120]	@ 0x78
}
 80054ba:	bdf8      	pop	{r3, r4, r5, r6, r7, pc}
        pclk = (uint32_t) HSI_VALUE;
 80054bc:	4e42      	ldr	r6, [pc, #264]	@ (80055c8 <UART_SetConfig+0x1d0>)
      lpuart_ker_ck_pres = (pclk / UARTPrescTable[huart->Init.ClockPrescaler]);
 80054be:	6a62      	ldr	r2, [r4, #36]	@ 0x24
 80054c0:	4b42      	ldr	r3, [pc, #264]	@ (80055cc <UART_SetConfig+0x1d4>)
 80054c2:	0052      	lsls	r2, r2, #1
 80054c4:	5ad7      	ldrh	r7, [r2, r3]
 80054c6:	0030      	movs	r0, r6
 80054c8:	0039      	movs	r1, r7
 80054ca:	f7fa fe4d 	bl	8000168 <__udivsi3>
      if ((lpuart_ker_ck_pres < (3U * huart->Init.BaudRate)) ||
 80054ce:	2303      	movs	r3, #3
 80054d0:	6865      	ldr	r5, [r4, #4]
 80054d2:	436b      	muls	r3, r5
 80054d4:	4283      	cmp	r3, r0
 80054d6:	d8e4      	bhi.n	80054a2 <UART_SetConfig+0xaa>
          (lpuart_ker_ck_pres > (4096U * huart->Init.BaudRate)))
 80054d8:	032b      	lsls	r3, r5, #12
      if ((lpuart_ker_ck_pres < (3U * huart->Init.BaudRate)) ||
 80054da:	4283      	cmp	r3, r0
 80054dc:	d3e1      	bcc.n	80054a2 <UART_SetConfig+0xaa>
        usartdiv = (uint32_t)(UART_DIV_LPUART(pclk, huart->Init.BaudRate, huart->Init.ClockPrescaler));
 80054de:	2300      	movs	r3, #0
 80054e0:	003a      	movs	r2, r7
 80054e2:	0030      	movs	r0, r6
 80054e4:	0019      	movs	r1, r3
 80054e6:	f7fa ffef 	bl	80004c8 <__aeabi_uldivmod>
 80054ea:	2700      	movs	r7, #0
 80054ec:	0e06      	lsrs	r6, r0, #24
 80054ee:	020b      	lsls	r3, r1, #8
 80054f0:	4333      	orrs	r3, r6
 80054f2:	0202      	lsls	r2, r0, #8
 80054f4:	086e      	lsrs	r6, r5, #1
 80054f6:	1992      	adds	r2, r2, r6
 80054f8:	417b      	adcs	r3, r7
 80054fa:	0010      	movs	r0, r2
 80054fc:	0019      	movs	r1, r3
 80054fe:	002a      	movs	r2, r5
 8005500:	003b      	movs	r3, r7
 8005502:	f7fa ffe1 	bl	80004c8 <__aeabi_uldivmod>
        if ((usartdiv >= LPUART_BRR_MIN) && (usartdiv <= LPUART_BRR_MAX))
 8005506:	4b32      	ldr	r3, [pc, #200]	@ (80055d0 <UART_SetConfig+0x1d8>)
 8005508:	18c2      	adds	r2, r0, r3
 800550a:	4b32      	ldr	r3, [pc, #200]	@ (80055d4 <UART_SetConfig+0x1dc>)
      if ((usartdiv >= UART_BRR_MIN) && (usartdiv <= UART_BRR_MAX))
 800550c:	429a      	cmp	r2, r3
 800550e:	d8c8      	bhi.n	80054a2 <UART_SetConfig+0xaa>
        huart->Instance->BRR = (uint16_t)usartdiv;
 8005510:	6823      	ldr	r3, [r4, #0]
 8005512:	60d8      	str	r0, [r3, #12]
 8005514:	e7cb      	b.n	80054ae <UART_SetConfig+0xb6>
  UART_GETCLOCKSOURCE(huart, clocksource);
 8005516:	2680      	movs	r6, #128	@ 0x80
 8005518:	0236      	lsls	r6, r6, #8
 800551a:	e7d0      	b.n	80054be <UART_SetConfig+0xc6>
        pclk = HAL_RCC_GetSysClockFreq();
 800551c:	f7fe fcc6 	bl	8003eac <HAL_RCC_GetSysClockFreq>
    if (pclk != 0U)
 8005520:	2800      	cmp	r0, #0
 8005522:	d0c4      	beq.n	80054ae <UART_SetConfig+0xb6>
      usartdiv = (uint32_t)(UART_DIV_SAMPLING8(pclk, huart->Init.BaudRate, huart->Init.ClockPrescaler));
 8005524:	6a62      	ldr	r2, [r4, #36]	@ 0x24
 8005526:	4b29      	ldr	r3, [pc, #164]	@ (80055cc <UART_SetConfig+0x1d4>)
 8005528:	0052      	lsls	r2, r2, #1
 800552a:	5ad1      	ldrh	r1, [r2, r3]
 800552c:	f7fa fe1c 	bl	8000168 <__udivsi3>
 8005530:	6865      	ldr	r5, [r4, #4]
 8005532:	0040      	lsls	r0, r0, #1
 8005534:	086b      	lsrs	r3, r5, #1
 8005536:	18c0      	adds	r0, r0, r3
 8005538:	0029      	movs	r1, r5
 800553a:	f7fa fe15 	bl	8000168 <__udivsi3>
      if ((usartdiv >= UART_BRR_MIN) && (usartdiv <= UART_BRR_MAX))
 800553e:	0002      	movs	r2, r0
 8005540:	4b25      	ldr	r3, [pc, #148]	@ (80055d8 <UART_SetConfig+0x1e0>)
 8005542:	3a10      	subs	r2, #16
 8005544:	429a      	cmp	r2, r3
 8005546:	d8ac      	bhi.n	80054a2 <UART_SetConfig+0xaa>
        brrtemp = (uint16_t)(usartdiv & 0xFFF0U);
 8005548:	230f      	movs	r3, #15
 800554a:	0002      	movs	r2, r0
        brrtemp |= (uint16_t)((usartdiv & (uint16_t)0x000FU) >> 1U);
 800554c:	0700      	lsls	r0, r0, #28
        brrtemp = (uint16_t)(usartdiv & 0xFFF0U);
 800554e:	439a      	bics	r2, r3
 8005550:	b293      	uxth	r3, r2
        brrtemp |= (uint16_t)((usartdiv & (uint16_t)0x000FU) >> 1U);
 8005552:	0f40      	lsrs	r0, r0, #29
        huart->Instance->BRR = brrtemp;
 8005554:	6822      	ldr	r2, [r4, #0]
 8005556:	4303      	orrs	r3, r0
 8005558:	60d3      	str	r3, [r2, #12]
 800555a:	e7a8      	b.n	80054ae <UART_SetConfig+0xb6>
        pclk = (uint32_t) HSI_VALUE;
 800555c:	481a      	ldr	r0, [pc, #104]	@ (80055c8 <UART_SetConfig+0x1d0>)
 800555e:	e7e1      	b.n	8005524 <UART_SetConfig+0x12c>
        pclk = HAL_RCC_GetPCLK1Freq();
 8005560:	f7fe fd92 	bl	8004088 <HAL_RCC_GetPCLK1Freq>
    if (pclk != 0U)
 8005564:	2800      	cmp	r0, #0
 8005566:	d0a2      	beq.n	80054ae <UART_SetConfig+0xb6>
      usartdiv = (uint32_t)(UART_DIV_SAMPLING16(pclk, huart->Init.BaudRate, huart->Init.ClockPrescaler));
 8005568:	6a62      	ldr	r2, [r4, #36]	@ 0x24
 800556a:	4b18      	ldr	r3, [pc, #96]	@ (80055cc <UART_SetConfig+0x1d4>)
 800556c:	0052      	lsls	r2, r2, #1
 800556e:	5ad1      	ldrh	r1, [r2, r3]
 8005570:	f7fa fdfa 	bl	8000168 <__udivsi3>
 8005574:	6865      	ldr	r5, [r4, #4]
 8005576:	086b      	lsrs	r3, r5, #1
 8005578:	18c0      	adds	r0, r0, r3
 800557a:	0029      	movs	r1, r5
 800557c:	f7fa fdf4 	bl	8000168 <__udivsi3>
      if ((usartdiv >= UART_BRR_MIN) && (usartdiv <= UART_BRR_MAX))
 8005580:	0002      	movs	r2, r0
 8005582:	4b15      	ldr	r3, [pc, #84]	@ (80055d8 <UART_SetConfig+0x1e0>)
 8005584:	3a10      	subs	r2, #16
 8005586:	e7c1      	b.n	800550c <UART_SetConfig+0x114>
  else if (huart->Init.OverSampling == UART_OVERSAMPLING_8)
 8005588:	4298      	cmp	r0, r3
 800558a:	d0e7      	beq.n	800555c <UART_SetConfig+0x164>
 800558c:	480e      	ldr	r0, [pc, #56]	@ (80055c8 <UART_SetConfig+0x1d0>)
 800558e:	e7eb      	b.n	8005568 <UART_SetConfig+0x170>
 8005590:	2380      	movs	r3, #128	@ 0x80
 8005592:	021b      	lsls	r3, r3, #8
 8005594:	e768      	b.n	8005468 <UART_SetConfig+0x70>
 8005596:	4298      	cmp	r0, r3
 8005598:	d0c0      	beq.n	800551c <UART_SetConfig+0x124>
        pclk = HAL_RCC_GetSysClockFreq();
 800559a:	f7fe fc87 	bl	8003eac <HAL_RCC_GetSysClockFreq>
        break;
 800559e:	e7e1      	b.n	8005564 <UART_SetConfig+0x16c>
  else if (huart->Init.OverSampling == UART_OVERSAMPLING_8)
 80055a0:	4298      	cmp	r0, r3
 80055a2:	d0bf      	beq.n	8005524 <UART_SetConfig+0x12c>
        pclk = (uint32_t) LSE_VALUE;
 80055a4:	0018      	movs	r0, r3
 80055a6:	e7df      	b.n	8005568 <UART_SetConfig+0x170>
 80055a8:	cfff69f3 	.word	0xcfff69f3
 80055ac:	ffffcfff 	.word	0xffffcfff
 80055b0:	40008000 	.word	0x40008000
 80055b4:	11fff4ff 	.word	0x11fff4ff
 80055b8:	40013800 	.word	0x40013800
 80055bc:	40021000 	.word	0x40021000
 80055c0:	40004400 	.word	0x40004400
 80055c4:	00010001 	.word	0x00010001
 80055c8:	00f42400 	.word	0x00f42400
 80055cc:	08006714 	.word	0x08006714
 80055d0:	fffffd00 	.word	0xfffffd00
 80055d4:	000ffcff 	.word	0x000ffcff
 80055d8:	0000ffef 	.word	0x0000ffef

080055dc <UART_AdvFeatureConfig>:
  if (HAL_IS_BIT_SET(huart->AdvancedInit.AdvFeatureInit, UART_ADVFEATURE_SWAP_INIT))
 80055dc:	6a83      	ldr	r3, [r0, #40]	@ 0x28
{
 80055de:	b530      	push	{r4, r5, lr}
  if (HAL_IS_BIT_SET(huart->AdvancedInit.AdvFeatureInit, UART_ADVFEATURE_SWAP_INIT))
 80055e0:	071a      	lsls	r2, r3, #28
 80055e2:	d506      	bpl.n	80055f2 <UART_AdvFeatureConfig+0x16>
    MODIFY_REG(huart->Instance->CR2, USART_CR2_SWAP, huart->AdvancedInit.Swap);
 80055e4:	6801      	ldr	r1, [r0, #0]
 80055e6:	4c28      	ldr	r4, [pc, #160]	@ (8005688 <UART_AdvFeatureConfig+0xac>)
 80055e8:	684a      	ldr	r2, [r1, #4]
 80055ea:	4022      	ands	r2, r4
 80055ec:	6b84      	ldr	r4, [r0, #56]	@ 0x38
 80055ee:	4322      	orrs	r2, r4
 80055f0:	604a      	str	r2, [r1, #4]
  if (HAL_IS_BIT_SET(huart->AdvancedInit.AdvFeatureInit, UART_ADVFEATURE_TXINVERT_INIT))
 80055f2:	07da      	lsls	r2, r3, #31
 80055f4:	d506      	bpl.n	8005604 <UART_AdvFeatureConfig+0x28>
    MODIFY_REG(huart->Instance->CR2, USART_CR2_TXINV, huart->AdvancedInit.TxPinLevelInvert);
 80055f6:	6801      	ldr	r1, [r0, #0]
 80055f8:	4c24      	ldr	r4, [pc, #144]	@ (800568c <UART_AdvFeatureConfig+0xb0>)
 80055fa:	684a      	ldr	r2, [r1, #4]
 80055fc:	4022      	ands	r2, r4
 80055fe:	6ac4      	ldr	r4, [r0, #44]	@ 0x2c
 8005600:	4322      	orrs	r2, r4
 8005602:	604a      	str	r2, [r1, #4]
  if (HAL_IS_BIT_SET(huart->AdvancedInit.AdvFeatureInit, UART_ADVFEATURE_RXINVERT_INIT))
 8005604:	079a      	lsls	r2, r3, #30
 8005606:	d506      	bpl.n	8005616 <UART_AdvFeatureConfig+0x3a>
    MODIFY_REG(huart->Instance->CR2, USART_CR2_RXINV, huart->AdvancedInit.RxPinLevelInvert);
 8005608:	6801      	ldr	r1, [r0, #0]
 800560a:	4c21      	ldr	r4, [pc, #132]	@ (8005690 <UART_AdvFeatureConfig+0xb4>)
 800560c:	684a      	ldr	r2, [r1, #4]
 800560e:	4022      	ands	r2, r4
 8005610:	6b04      	ldr	r4, [r0, #48]	@ 0x30
 8005612:	4322      	orrs	r2, r4
 8005614:	604a      	str	r2, [r1, #4]
  if (HAL_IS_BIT_SET(huart->AdvancedInit.AdvFeatureInit, UART_ADVFEATURE_DATAINVERT_INIT))
 8005616:	075a      	lsls	r2, r3, #29
 8005618:	d506      	bpl.n	8005628 <UART_AdvFeatureConfig+0x4c>
    MODIFY_REG(huart->Instance->CR2, USART_CR2_DATAINV, huart->AdvancedInit.DataInvert);
 800561a:	6801      	ldr	r1, [r0, #0]
 800561c:	4c1d      	ldr	r4, [pc, #116]	@ (8005694 <UART_AdvFeatureConfig+0xb8>)
 800561e:	684a      	ldr	r2, [r1, #4]
 8005620:	4022      	ands	r2, r4
 8005622:	6b44      	ldr	r4, [r0, #52]	@ 0x34
 8005624:	4322      	orrs	r2, r4
 8005626:	604a      	str	r2, [r1, #4]
  if (HAL_IS_BIT_SET(huart->AdvancedInit.AdvFeatureInit, UART_ADVFEATURE_RXOVERRUNDISABLE_INIT))
 8005628:	06da      	lsls	r2, r3, #27
 800562a:	d506      	bpl.n	800563a <UART_AdvFeatureConfig+0x5e>
    MODIFY_REG(huart->Instance->CR3, USART_CR3_OVRDIS, huart->AdvancedInit.OverrunDisable);
 800562c:	6801      	ldr	r1, [r0, #0]
 800562e:	4c1a      	ldr	r4, [pc, #104]	@ (8005698 <UART_AdvFeatureConfig+0xbc>)
 8005630:	688a      	ldr	r2, [r1, #8]
 8005632:	4022      	ands	r2, r4
 8005634:	6bc4      	ldr	r4, [r0, #60]	@ 0x3c
 8005636:	4322      	orrs	r2, r4
 8005638:	608a      	str	r2, [r1, #8]
  if (HAL_IS_BIT_SET(huart->AdvancedInit.AdvFeatureInit, UART_ADVFEATURE_DMADISABLEONERROR_INIT))
 800563a:	069a      	lsls	r2, r3, #26
 800563c:	d506      	bpl.n	800564c <UART_AdvFeatureConfig+0x70>
    MODIFY_REG(huart->Instance->CR3, USART_CR3_DDRE, huart->AdvancedInit.DMADisableonRxError);
 800563e:	6801      	ldr	r1, [r0, #0]
 8005640:	4c16      	ldr	r4, [pc, #88]	@ (800569c <UART_AdvFeatureConfig+0xc0>)
 8005642:	688a      	ldr	r2, [r1, #8]
 8005644:	4022      	ands	r2, r4
 8005646:	6c04      	ldr	r4, [r0, #64]	@ 0x40
 8005648:	4322      	orrs	r2, r4
 800564a:	608a      	str	r2, [r1, #8]
  if (HAL_IS_BIT_SET(huart->AdvancedInit.AdvFeatureInit, UART_ADVFEATURE_AUTOBAUDRATE_INIT))
 800564c:	065a      	lsls	r2, r3, #25
 800564e:	d510      	bpl.n	8005672 <UART_AdvFeatureConfig+0x96>
    MODIFY_REG(huart->Instance->CR2, USART_CR2_ABREN, huart->AdvancedInit.AutoBaudRateEnable);
 8005650:	6801      	ldr	r1, [r0, #0]
 8005652:	4d13      	ldr	r5, [pc, #76]	@ (80056a0 <UART_AdvFeatureConfig+0xc4>)
 8005654:	684a      	ldr	r2, [r1, #4]
 8005656:	6c44      	ldr	r4, [r0, #68]	@ 0x44
 8005658:	402a      	ands	r2, r5
 800565a:	4322      	orrs	r2, r4
 800565c:	604a      	str	r2, [r1, #4]
    if (huart->AdvancedInit.AutoBaudRateEnable == UART_ADVFEATURE_AUTOBAUDRATE_ENABLE)
 800565e:	2280      	movs	r2, #128	@ 0x80
 8005660:	0352      	lsls	r2, r2, #13
 8005662:	4294      	cmp	r4, r2
 8005664:	d105      	bne.n	8005672 <UART_AdvFeatureConfig+0x96>
      MODIFY_REG(huart->Instance->CR2, USART_CR2_ABRMODE, huart->AdvancedInit.AutoBaudRateMode);
 8005666:	684a      	ldr	r2, [r1, #4]
 8005668:	4c0e      	ldr	r4, [pc, #56]	@ (80056a4 <UART_AdvFeatureConfig+0xc8>)
 800566a:	4022      	ands	r2, r4
 800566c:	6c84      	ldr	r4, [r0, #72]	@ 0x48
 800566e:	4322      	orrs	r2, r4
 8005670:	604a      	str	r2, [r1, #4]
  if (HAL_IS_BIT_SET(huart->AdvancedInit.AdvFeatureInit, UART_ADVFEATURE_MSBFIRST_INIT))
 8005672:	061b      	lsls	r3, r3, #24
 8005674:	d506      	bpl.n	8005684 <UART_AdvFeatureConfig+0xa8>
    MODIFY_REG(huart->Instance->CR2, USART_CR2_MSBFIRST, huart->AdvancedInit.MSBFirst);
 8005676:	6802      	ldr	r2, [r0, #0]
 8005678:	490b      	ldr	r1, [pc, #44]	@ (80056a8 <UART_AdvFeatureConfig+0xcc>)
 800567a:	6853      	ldr	r3, [r2, #4]
 800567c:	400b      	ands	r3, r1
 800567e:	6cc1      	ldr	r1, [r0, #76]	@ 0x4c
 8005680:	430b      	orrs	r3, r1
 8005682:	6053      	str	r3, [r2, #4]
}
 8005684:	bd30      	pop	{r4, r5, pc}
 8005686:	46c0      	nop			@ (mov r8, r8)
 8005688:	ffff7fff 	.word	0xffff7fff
 800568c:	fffdffff 	.word	0xfffdffff
 8005690:	fffeffff 	.word	0xfffeffff
 8005694:	fffbffff 	.word	0xfffbffff
 8005698:	ffffefff 	.word	0xffffefff
 800569c:	ffffdfff 	.word	0xffffdfff
 80056a0:	ffefffff 	.word	0xffefffff
 80056a4:	ff9fffff 	.word	0xff9fffff
 80056a8:	fff7ffff 	.word	0xfff7ffff

080056ac <UART_WaitOnFlagUntilTimeout>:
{
 80056ac:	b5f7      	push	{r0, r1, r2, r4, r5, r6, r7, lr}
 80056ae:	0004      	movs	r4, r0
 80056b0:	000d      	movs	r5, r1
 80056b2:	0017      	movs	r7, r2
 80056b4:	9300      	str	r3, [sp, #0]
  while ((__HAL_UART_GET_FLAG(huart, Flag) ? SET : RESET) == Status)
 80056b6:	6822      	ldr	r2, [r4, #0]
 80056b8:	69d3      	ldr	r3, [r2, #28]
 80056ba:	402b      	ands	r3, r5
 80056bc:	1b5b      	subs	r3, r3, r5
 80056be:	4259      	negs	r1, r3
 80056c0:	414b      	adcs	r3, r1
 80056c2:	42bb      	cmp	r3, r7
 80056c4:	d001      	beq.n	80056ca <UART_WaitOnFlagUntilTimeout+0x1e>
  return HAL_OK;
 80056c6:	2000      	movs	r0, #0
 80056c8:	e026      	b.n	8005718 <UART_WaitOnFlagUntilTimeout+0x6c>
    if (Timeout != HAL_MAX_DELAY)
 80056ca:	9b08      	ldr	r3, [sp, #32]
 80056cc:	3301      	adds	r3, #1
 80056ce:	d0f3      	beq.n	80056b8 <UART_WaitOnFlagUntilTimeout+0xc>
      if (((HAL_GetTick() - Tickstart) > Timeout) || (Timeout == 0U))
 80056d0:	f7fd fabc 	bl	8002c4c <HAL_GetTick>
 80056d4:	9b00      	ldr	r3, [sp, #0]
 80056d6:	1ac0      	subs	r0, r0, r3
 80056d8:	9b08      	ldr	r3, [sp, #32]
 80056da:	4298      	cmp	r0, r3
 80056dc:	d82d      	bhi.n	800573a <UART_WaitOnFlagUntilTimeout+0x8e>
 80056de:	2b00      	cmp	r3, #0
 80056e0:	d02b      	beq.n	800573a <UART_WaitOnFlagUntilTimeout+0x8e>
      if ((READ_BIT(huart->Instance->CR1, USART_CR1_RE) != 0U) && (Flag != UART_FLAG_TXE) && (Flag != UART_FLAG_TC))
 80056e2:	6823      	ldr	r3, [r4, #0]
 80056e4:	681a      	ldr	r2, [r3, #0]
 80056e6:	0752      	lsls	r2, r2, #29
 80056e8:	d5e5      	bpl.n	80056b6 <UART_WaitOnFlagUntilTimeout+0xa>
 80056ea:	002a      	movs	r2, r5
 80056ec:	2140      	movs	r1, #64	@ 0x40
 80056ee:	3a40      	subs	r2, #64	@ 0x40
 80056f0:	438a      	bics	r2, r1
 80056f2:	d0e0      	beq.n	80056b6 <UART_WaitOnFlagUntilTimeout+0xa>
        if (__HAL_UART_GET_FLAG(huart, UART_FLAG_ORE) == SET)
 80056f4:	69da      	ldr	r2, [r3, #28]
 80056f6:	2608      	movs	r6, #8
 80056f8:	0011      	movs	r1, r2
 80056fa:	4031      	ands	r1, r6
 80056fc:	9101      	str	r1, [sp, #4]
 80056fe:	4232      	tst	r2, r6
 8005700:	d00b      	beq.n	800571a <UART_WaitOnFlagUntilTimeout+0x6e>
          UART_EndRxTransfer(huart);
 8005702:	0020      	movs	r0, r4
          __HAL_UART_CLEAR_FLAG(huart, UART_CLEAR_OREF);
 8005704:	621e      	str	r6, [r3, #32]
          UART_EndRxTransfer(huart);
 8005706:	f7ff f9e3 	bl	8004ad0 <UART_EndRxTransfer>
          huart->ErrorCode = HAL_UART_ERROR_ORE;
 800570a:	0023      	movs	r3, r4
 800570c:	3390      	adds	r3, #144	@ 0x90
 800570e:	601e      	str	r6, [r3, #0]
          __HAL_UNLOCK(huart);
 8005710:	2300      	movs	r3, #0
          return HAL_ERROR;
 8005712:	2001      	movs	r0, #1
          __HAL_UNLOCK(huart);
 8005714:	3484      	adds	r4, #132	@ 0x84
 8005716:	7023      	strb	r3, [r4, #0]
}
 8005718:	bdfe      	pop	{r1, r2, r3, r4, r5, r6, r7, pc}
        if (__HAL_UART_GET_FLAG(huart, UART_FLAG_RTOF) == SET)
 800571a:	2280      	movs	r2, #128	@ 0x80
 800571c:	69d9      	ldr	r1, [r3, #28]
 800571e:	0112      	lsls	r2, r2, #4
 8005720:	4211      	tst	r1, r2
 8005722:	d0c8      	beq.n	80056b6 <UART_WaitOnFlagUntilTimeout+0xa>
          __HAL_UART_CLEAR_FLAG(huart, UART_CLEAR_RTOF);
 8005724:	621a      	str	r2, [r3, #32]
          UART_EndRxTransfer(huart);
 8005726:	0020      	movs	r0, r4
 8005728:	f7ff f9d2 	bl	8004ad0 <UART_EndRxTransfer>
          huart->ErrorCode = HAL_UART_ERROR_RTO;
 800572c:	0023      	movs	r3, r4
 800572e:	2220      	movs	r2, #32
 8005730:	3390      	adds	r3, #144	@ 0x90
 8005732:	601a      	str	r2, [r3, #0]
          __HAL_UNLOCK(huart);
 8005734:	9b01      	ldr	r3, [sp, #4]
 8005736:	3484      	adds	r4, #132	@ 0x84
 8005738:	7023      	strb	r3, [r4, #0]
        return HAL_TIMEOUT;
 800573a:	2003      	movs	r0, #3
 800573c:	e7ec      	b.n	8005718 <UART_WaitOnFlagUntilTimeout+0x6c>

0800573e <HAL_UART_Transmit>:
{
 800573e:	b5f0      	push	{r4, r5, r6, r7, lr}
 8005740:	0017      	movs	r7, r2
  if (huart->gState == HAL_UART_STATE_READY)
 8005742:	0002      	movs	r2, r0
{
 8005744:	b087      	sub	sp, #28
  if (huart->gState == HAL_UART_STATE_READY)
 8005746:	3288      	adds	r2, #136	@ 0x88
{
 8005748:	9305      	str	r3, [sp, #20]
  if (huart->gState == HAL_UART_STATE_READY)
 800574a:	6813      	ldr	r3, [r2, #0]
{
 800574c:	0004      	movs	r4, r0
 800574e:	000d      	movs	r5, r1
    return HAL_BUSY;
 8005750:	2002      	movs	r0, #2
  if (huart->gState == HAL_UART_STATE_READY)
 8005752:	2b20      	cmp	r3, #32
 8005754:	d139      	bne.n	80057ca <HAL_UART_Transmit+0x8c>
      return  HAL_ERROR;
 8005756:	3801      	subs	r0, #1
    if ((pData == NULL) || (Size == 0U))
 8005758:	2900      	cmp	r1, #0
 800575a:	d036      	beq.n	80057ca <HAL_UART_Transmit+0x8c>
 800575c:	2f00      	cmp	r7, #0
 800575e:	d034      	beq.n	80057ca <HAL_UART_Transmit+0x8c>
    if ((huart->Init.WordLength == UART_WORDLENGTH_9B) && (huart->Init.Parity == UART_PARITY_NONE))
 8005760:	2380      	movs	r3, #128	@ 0x80
 8005762:	68a1      	ldr	r1, [r4, #8]
 8005764:	015b      	lsls	r3, r3, #5
 8005766:	4299      	cmp	r1, r3
 8005768:	d104      	bne.n	8005774 <HAL_UART_Transmit+0x36>
 800576a:	6923      	ldr	r3, [r4, #16]
 800576c:	2b00      	cmp	r3, #0
 800576e:	d101      	bne.n	8005774 <HAL_UART_Transmit+0x36>
      if ((((uint32_t)pData) & 1U) != 0U)
 8005770:	4205      	tst	r5, r0
 8005772:	d12a      	bne.n	80057ca <HAL_UART_Transmit+0x8c>
    huart->ErrorCode = HAL_UART_ERROR_NONE;
 8005774:	0023      	movs	r3, r4
 8005776:	2600      	movs	r6, #0
 8005778:	3390      	adds	r3, #144	@ 0x90
 800577a:	601e      	str	r6, [r3, #0]
    huart->gState = HAL_UART_STATE_BUSY_TX;
 800577c:	2321      	movs	r3, #33	@ 0x21
 800577e:	6013      	str	r3, [r2, #0]
    tickstart = HAL_GetTick();
 8005780:	f7fd fa64 	bl	8002c4c <HAL_GetTick>
    huart->TxXferSize  = Size;
 8005784:	0023      	movs	r3, r4
 8005786:	3354      	adds	r3, #84	@ 0x54
 8005788:	801f      	strh	r7, [r3, #0]
    huart->TxXferCount = Size;
 800578a:	3302      	adds	r3, #2
 800578c:	9303      	str	r3, [sp, #12]
 800578e:	801f      	strh	r7, [r3, #0]
    if ((huart->Init.WordLength == UART_WORDLENGTH_9B) && (huart->Init.Parity == UART_PARITY_NONE))
 8005790:	2380      	movs	r3, #128	@ 0x80
 8005792:	68a2      	ldr	r2, [r4, #8]
    tickstart = HAL_GetTick();
 8005794:	9004      	str	r0, [sp, #16]
    if ((huart->Init.WordLength == UART_WORDLENGTH_9B) && (huart->Init.Parity == UART_PARITY_NONE))
 8005796:	015b      	lsls	r3, r3, #5
 8005798:	429a      	cmp	r2, r3
 800579a:	d104      	bne.n	80057a6 <HAL_UART_Transmit+0x68>
 800579c:	6923      	ldr	r3, [r4, #16]
 800579e:	42b3      	cmp	r3, r6
 80057a0:	d101      	bne.n	80057a6 <HAL_UART_Transmit+0x68>
      pdata16bits = (const uint16_t *) pData;
 80057a2:	002e      	movs	r6, r5
      pdata8bits  = NULL;
 80057a4:	001d      	movs	r5, r3
    while (huart->TxXferCount > 0U)
 80057a6:	0023      	movs	r3, r4
 80057a8:	3356      	adds	r3, #86	@ 0x56
 80057aa:	881b      	ldrh	r3, [r3, #0]
 80057ac:	b29a      	uxth	r2, r3
 80057ae:	2b00      	cmp	r3, #0
 80057b0:	d10d      	bne.n	80057ce <HAL_UART_Transmit+0x90>
    if (UART_WaitOnFlagUntilTimeout(huart, UART_FLAG_TC, RESET, tickstart, Timeout) != HAL_OK)
 80057b2:	9b05      	ldr	r3, [sp, #20]
 80057b4:	0020      	movs	r0, r4
 80057b6:	9300      	str	r3, [sp, #0]
 80057b8:	2140      	movs	r1, #64	@ 0x40
 80057ba:	9b04      	ldr	r3, [sp, #16]
 80057bc:	f7ff ff76 	bl	80056ac <UART_WaitOnFlagUntilTimeout>
 80057c0:	2320      	movs	r3, #32
 80057c2:	3488      	adds	r4, #136	@ 0x88
      huart->gState = HAL_UART_STATE_READY;
 80057c4:	6023      	str	r3, [r4, #0]
    if (UART_WaitOnFlagUntilTimeout(huart, UART_FLAG_TC, RESET, tickstart, Timeout) != HAL_OK)
 80057c6:	2800      	cmp	r0, #0
 80057c8:	d10e      	bne.n	80057e8 <HAL_UART_Transmit+0xaa>
}
 80057ca:	b007      	add	sp, #28
 80057cc:	bdf0      	pop	{r4, r5, r6, r7, pc}
      if (UART_WaitOnFlagUntilTimeout(huart, UART_FLAG_TXE, RESET, tickstart, Timeout) != HAL_OK)
 80057ce:	9b05      	ldr	r3, [sp, #20]
 80057d0:	2200      	movs	r2, #0
 80057d2:	9300      	str	r3, [sp, #0]
 80057d4:	2180      	movs	r1, #128	@ 0x80
 80057d6:	0020      	movs	r0, r4
 80057d8:	9b04      	ldr	r3, [sp, #16]
 80057da:	f7ff ff67 	bl	80056ac <UART_WaitOnFlagUntilTimeout>
 80057de:	2800      	cmp	r0, #0
 80057e0:	d004      	beq.n	80057ec <HAL_UART_Transmit+0xae>
        huart->gState = HAL_UART_STATE_READY;
 80057e2:	2320      	movs	r3, #32
 80057e4:	3488      	adds	r4, #136	@ 0x88
 80057e6:	6023      	str	r3, [r4, #0]
        return HAL_TIMEOUT;
 80057e8:	2003      	movs	r0, #3
 80057ea:	e7ee      	b.n	80057ca <HAL_UART_Transmit+0x8c>
        huart->Instance->TDR = (uint16_t)(*pdata16bits & 0x01FFU);
 80057ec:	6822      	ldr	r2, [r4, #0]
      if (pdata8bits == NULL)
 80057ee:	2d00      	cmp	r5, #0
 80057f0:	d10b      	bne.n	800580a <HAL_UART_Transmit+0xcc>
        huart->Instance->TDR = (uint16_t)(*pdata16bits & 0x01FFU);
 80057f2:	8833      	ldrh	r3, [r6, #0]
        pdata16bits++;
 80057f4:	3602      	adds	r6, #2
        huart->Instance->TDR = (uint16_t)(*pdata16bits & 0x01FFU);
 80057f6:	05db      	lsls	r3, r3, #23
 80057f8:	0ddb      	lsrs	r3, r3, #23
 80057fa:	6293      	str	r3, [r2, #40]	@ 0x28
      huart->TxXferCount--;
 80057fc:	9b03      	ldr	r3, [sp, #12]
 80057fe:	9a03      	ldr	r2, [sp, #12]
 8005800:	881b      	ldrh	r3, [r3, #0]
 8005802:	3b01      	subs	r3, #1
 8005804:	b29b      	uxth	r3, r3
 8005806:	8013      	strh	r3, [r2, #0]
 8005808:	e7cd      	b.n	80057a6 <HAL_UART_Transmit+0x68>
        huart->Instance->TDR = (uint8_t)(*pdata8bits & 0xFFU);
 800580a:	782b      	ldrb	r3, [r5, #0]
        pdata8bits++;
 800580c:	3501      	adds	r5, #1
        huart->Instance->TDR = (uint8_t)(*pdata8bits & 0xFFU);
 800580e:	6293      	str	r3, [r2, #40]	@ 0x28
        pdata8bits++;
 8005810:	e7f4      	b.n	80057fc <HAL_UART_Transmit+0xbe>
	...

08005814 <UART_CheckIdleState>:
  huart->ErrorCode = HAL_UART_ERROR_NONE;
 8005814:	0003      	movs	r3, r0
{
 8005816:	b573      	push	{r0, r1, r4, r5, r6, lr}
  huart->ErrorCode = HAL_UART_ERROR_NONE;
 8005818:	2600      	movs	r6, #0
{
 800581a:	0004      	movs	r4, r0
  huart->ErrorCode = HAL_UART_ERROR_NONE;
 800581c:	3390      	adds	r3, #144	@ 0x90
 800581e:	601e      	str	r6, [r3, #0]
  tickstart = HAL_GetTick();
 8005820:	f7fd fa14 	bl	8002c4c <HAL_GetTick>
  if ((huart->Instance->CR1 & USART_CR1_TE) == USART_CR1_TE)
 8005824:	6823      	ldr	r3, [r4, #0]
  tickstart = HAL_GetTick();
 8005826:	0005      	movs	r5, r0
  if ((huart->Instance->CR1 & USART_CR1_TE) == USART_CR1_TE)
 8005828:	681b      	ldr	r3, [r3, #0]
 800582a:	071b      	lsls	r3, r3, #28
 800582c:	d51f      	bpl.n	800586e <UART_CheckIdleState+0x5a>
    if (UART_WaitOnFlagUntilTimeout(huart, USART_ISR_TEACK, RESET, tickstart, HAL_UART_TIMEOUT_VALUE) != HAL_OK)
 800582e:	2180      	movs	r1, #128	@ 0x80
 8005830:	4b28      	ldr	r3, [pc, #160]	@ (80058d4 <UART_CheckIdleState+0xc0>)
 8005832:	0032      	movs	r2, r6
 8005834:	9300      	str	r3, [sp, #0]
 8005836:	0389      	lsls	r1, r1, #14
 8005838:	0003      	movs	r3, r0
 800583a:	0020      	movs	r0, r4
 800583c:	f7ff ff36 	bl	80056ac <UART_WaitOnFlagUntilTimeout>
 8005840:	42b0      	cmp	r0, r6
 8005842:	d014      	beq.n	800586e <UART_CheckIdleState+0x5a>
  __ASM volatile ("MRS %0, primask" : "=r" (result) :: "memory");
 8005844:	f3ef 8110 	mrs	r1, PRIMASK
  __ASM volatile ("MSR primask, %0" : : "r" (priMask) : "memory");
 8005848:	2301      	movs	r3, #1
 800584a:	f383 8810 	msr	PRIMASK, r3
      ATOMIC_CLEAR_BIT(huart->Instance->CR1, (USART_CR1_TXEIE_TXFNFIE));
 800584e:	2080      	movs	r0, #128	@ 0x80
 8005850:	6822      	ldr	r2, [r4, #0]
 8005852:	6813      	ldr	r3, [r2, #0]
 8005854:	4383      	bics	r3, r0
 8005856:	6013      	str	r3, [r2, #0]
 8005858:	f381 8810 	msr	PRIMASK, r1
      huart->gState = HAL_UART_STATE_READY;
 800585c:	0023      	movs	r3, r4
 800585e:	2220      	movs	r2, #32
 8005860:	3388      	adds	r3, #136	@ 0x88
 8005862:	601a      	str	r2, [r3, #0]
      return HAL_TIMEOUT;
 8005864:	2003      	movs	r0, #3
      __HAL_UNLOCK(huart);
 8005866:	2300      	movs	r3, #0
 8005868:	3484      	adds	r4, #132	@ 0x84
 800586a:	7023      	strb	r3, [r4, #0]
}
 800586c:	bd76      	pop	{r1, r2, r4, r5, r6, pc}
  if ((huart->Instance->CR1 & USART_CR1_RE) == USART_CR1_RE)
 800586e:	0026      	movs	r6, r4
 8005870:	6823      	ldr	r3, [r4, #0]
 8005872:	368c      	adds	r6, #140	@ 0x8c
 8005874:	681b      	ldr	r3, [r3, #0]
 8005876:	075b      	lsls	r3, r3, #29
 8005878:	d523      	bpl.n	80058c2 <UART_CheckIdleState+0xae>
    if (UART_WaitOnFlagUntilTimeout(huart, USART_ISR_REACK, RESET, tickstart, HAL_UART_TIMEOUT_VALUE) != HAL_OK)
 800587a:	2180      	movs	r1, #128	@ 0x80
 800587c:	4b15      	ldr	r3, [pc, #84]	@ (80058d4 <UART_CheckIdleState+0xc0>)
 800587e:	2200      	movs	r2, #0
 8005880:	9300      	str	r3, [sp, #0]
 8005882:	0020      	movs	r0, r4
 8005884:	002b      	movs	r3, r5
 8005886:	03c9      	lsls	r1, r1, #15
 8005888:	f7ff ff10 	bl	80056ac <UART_WaitOnFlagUntilTimeout>
 800588c:	2800      	cmp	r0, #0
 800588e:	d018      	beq.n	80058c2 <UART_CheckIdleState+0xae>
  __ASM volatile ("MRS %0, primask" : "=r" (result) :: "memory");
 8005890:	f3ef 8010 	mrs	r0, PRIMASK
  __ASM volatile ("MSR primask, %0" : : "r" (priMask) : "memory");
 8005894:	2201      	movs	r2, #1
 8005896:	f382 8810 	msr	PRIMASK, r2
      ATOMIC_CLEAR_BIT(huart->Instance->CR1, (USART_CR1_RXNEIE_RXFNEIE | USART_CR1_PEIE));
 800589a:	6821      	ldr	r1, [r4, #0]
 800589c:	4d0e      	ldr	r5, [pc, #56]	@ (80058d8 <UART_CheckIdleState+0xc4>)
 800589e:	680b      	ldr	r3, [r1, #0]
 80058a0:	402b      	ands	r3, r5
 80058a2:	600b      	str	r3, [r1, #0]
 80058a4:	f380 8810 	msr	PRIMASK, r0
  __ASM volatile ("MRS %0, primask" : "=r" (result) :: "memory");
 80058a8:	f3ef 8010 	mrs	r0, PRIMASK
  __ASM volatile ("MSR primask, %0" : : "r" (priMask) : "memory");
 80058ac:	f382 8810 	msr	PRIMASK, r2
      ATOMIC_CLEAR_BIT(huart->Instance->CR3, USART_CR3_EIE);
 80058b0:	6821      	ldr	r1, [r4, #0]
 80058b2:	688b      	ldr	r3, [r1, #8]
 80058b4:	4393      	bics	r3, r2
 80058b6:	608b      	str	r3, [r1, #8]
 80058b8:	f380 8810 	msr	PRIMASK, r0
      huart->RxState = HAL_UART_STATE_READY;
 80058bc:	2320      	movs	r3, #32
 80058be:	6033      	str	r3, [r6, #0]
      return HAL_TIMEOUT;
 80058c0:	e7d0      	b.n	8005864 <UART_CheckIdleState+0x50>
  huart->gState = HAL_UART_STATE_READY;
 80058c2:	0023      	movs	r3, r4
 80058c4:	2220      	movs	r2, #32
  huart->ReceptionType = HAL_UART_RECEPTION_STANDARD;
 80058c6:	2000      	movs	r0, #0
  huart->gState = HAL_UART_STATE_READY;
 80058c8:	3388      	adds	r3, #136	@ 0x88
 80058ca:	601a      	str	r2, [r3, #0]
  huart->RxState = HAL_UART_STATE_READY;
 80058cc:	6032      	str	r2, [r6, #0]
  huart->ReceptionType = HAL_UART_RECEPTION_STANDARD;
 80058ce:	66e0      	str	r0, [r4, #108]	@ 0x6c
  huart->RxEventType = HAL_UART_RXEVENT_TC;
 80058d0:	6720      	str	r0, [r4, #112]	@ 0x70
  return HAL_OK;
 80058d2:	e7c8      	b.n	8005866 <UART_CheckIdleState+0x52>
 80058d4:	01ffffff 	.word	0x01ffffff
 80058d8:	fffffedf 	.word	0xfffffedf

080058dc <HAL_UART_Init>:
{
 80058dc:	b570      	push	{r4, r5, r6, lr}
 80058de:	1e04      	subs	r4, r0, #0
  if (huart == NULL)
 80058e0:	d101      	bne.n	80058e6 <HAL_UART_Init+0xa>
    return HAL_ERROR;
 80058e2:	2001      	movs	r0, #1
}
 80058e4:	bd70      	pop	{r4, r5, r6, pc}
  if (huart->gState == HAL_UART_STATE_RESET)
 80058e6:	0005      	movs	r5, r0
 80058e8:	3588      	adds	r5, #136	@ 0x88
 80058ea:	682b      	ldr	r3, [r5, #0]
 80058ec:	2b00      	cmp	r3, #0
 80058ee:	d104      	bne.n	80058fa <HAL_UART_Init+0x1e>
    huart->Lock = HAL_UNLOCKED;
 80058f0:	0002      	movs	r2, r0
 80058f2:	3284      	adds	r2, #132	@ 0x84
 80058f4:	7013      	strb	r3, [r2, #0]
    HAL_UART_MspInit(huart);
 80058f6:	f7fc ffe7 	bl	80028c8 <HAL_UART_MspInit>
  huart->gState = HAL_UART_STATE_BUSY;
 80058fa:	2324      	movs	r3, #36	@ 0x24
  __HAL_UART_DISABLE(huart);
 80058fc:	2101      	movs	r1, #1
 80058fe:	6822      	ldr	r2, [r4, #0]
  huart->gState = HAL_UART_STATE_BUSY;
 8005900:	602b      	str	r3, [r5, #0]
  __HAL_UART_DISABLE(huart);
 8005902:	6813      	ldr	r3, [r2, #0]
 8005904:	438b      	bics	r3, r1
 8005906:	6013      	str	r3, [r2, #0]
  if (huart->AdvancedInit.AdvFeatureInit != UART_ADVFEATURE_NO_INIT)
 8005908:	6aa3      	ldr	r3, [r4, #40]	@ 0x28
 800590a:	2b00      	cmp	r3, #0
 800590c:	d002      	beq.n	8005914 <HAL_UART_Init+0x38>
    UART_AdvFeatureConfig(huart);
 800590e:	0020      	movs	r0, r4
 8005910:	f7ff fe64 	bl	80055dc <UART_AdvFeatureConfig>
  if (UART_SetConfig(huart) == HAL_ERROR)
 8005914:	0020      	movs	r0, r4
 8005916:	f7ff fd6f 	bl	80053f8 <UART_SetConfig>
 800591a:	2801      	cmp	r0, #1
 800591c:	d0e1      	beq.n	80058e2 <HAL_UART_Init+0x6>
  CLEAR_BIT(huart->Instance->CR2, (USART_CR2_LINEN | USART_CR2_CLKEN));
 800591e:	6823      	ldr	r3, [r4, #0]
 8005920:	4907      	ldr	r1, [pc, #28]	@ (8005940 <HAL_UART_Init+0x64>)
 8005922:	685a      	ldr	r2, [r3, #4]
  return (UART_CheckIdleState(huart));
 8005924:	0020      	movs	r0, r4
  CLEAR_BIT(huart->Instance->CR2, (USART_CR2_LINEN | USART_CR2_CLKEN));
 8005926:	400a      	ands	r2, r1
  CLEAR_BIT(huart->Instance->CR3, (USART_CR3_SCEN | USART_CR3_HDSEL | USART_CR3_IREN));
 8005928:	212a      	movs	r1, #42	@ 0x2a
  CLEAR_BIT(huart->Instance->CR2, (USART_CR2_LINEN | USART_CR2_CLKEN));
 800592a:	605a      	str	r2, [r3, #4]
  CLEAR_BIT(huart->Instance->CR3, (USART_CR3_SCEN | USART_CR3_HDSEL | USART_CR3_IREN));
 800592c:	689a      	ldr	r2, [r3, #8]
 800592e:	438a      	bics	r2, r1
 8005930:	609a      	str	r2, [r3, #8]
  __HAL_UART_ENABLE(huart);
 8005932:	2201      	movs	r2, #1
 8005934:	6819      	ldr	r1, [r3, #0]
 8005936:	430a      	orrs	r2, r1
 8005938:	601a      	str	r2, [r3, #0]
  return (UART_CheckIdleState(huart));
 800593a:	f7ff ff6b 	bl	8005814 <UART_CheckIdleState>
 800593e:	e7d1      	b.n	80058e4 <HAL_UART_Init+0x8>
 8005940:	ffffb7ff 	.word	0xffffb7ff

08005944 <UART_Start_Receive_IT>:
  huart->RxXferSize  = Size;
 8005944:	0003      	movs	r3, r0
 8005946:	335c      	adds	r3, #92	@ 0x5c
{
 8005948:	b570      	push	{r4, r5, r6, lr}
  huart->pRxBuffPtr  = pData;
 800594a:	6581      	str	r1, [r0, #88]	@ 0x58
  UART_MASK_COMPUTATION(huart);
 800594c:	2480      	movs	r4, #128	@ 0x80
  huart->RxXferSize  = Size;
 800594e:	801a      	strh	r2, [r3, #0]
  huart->RxXferCount = Size;
 8005950:	805a      	strh	r2, [r3, #2]
  huart->RxISR       = NULL;
 8005952:	2300      	movs	r3, #0
  UART_MASK_COMPUTATION(huart);
 8005954:	6881      	ldr	r1, [r0, #8]
  huart->RxISR       = NULL;
 8005956:	6743      	str	r3, [r0, #116]	@ 0x74
  UART_MASK_COMPUTATION(huart);
 8005958:	0164      	lsls	r4, r4, #5
 800595a:	42a1      	cmp	r1, r4
 800595c:	d13c      	bne.n	80059d8 <UART_Start_Receive_IT+0x94>
 800595e:	6903      	ldr	r3, [r0, #16]
 8005960:	4259      	negs	r1, r3
 8005962:	414b      	adcs	r3, r1
 8005964:	021b      	lsls	r3, r3, #8
 8005966:	33ff      	adds	r3, #255	@ 0xff
 8005968:	0001      	movs	r1, r0
 800596a:	3160      	adds	r1, #96	@ 0x60
 800596c:	800b      	strh	r3, [r1, #0]
  huart->ErrorCode = HAL_UART_ERROR_NONE;
 800596e:	0003      	movs	r3, r0
 8005970:	2100      	movs	r1, #0
 8005972:	3390      	adds	r3, #144	@ 0x90
 8005974:	6019      	str	r1, [r3, #0]
  huart->RxState = HAL_UART_STATE_BUSY_RX;
 8005976:	3122      	adds	r1, #34	@ 0x22
 8005978:	3b04      	subs	r3, #4
 800597a:	6019      	str	r1, [r3, #0]
  __ASM volatile ("MRS %0, primask" : "=r" (result) :: "memory");
 800597c:	f3ef 8410 	mrs	r4, PRIMASK
  __ASM volatile ("MSR primask, %0" : : "r" (priMask) : "memory");
 8005980:	2301      	movs	r3, #1
 8005982:	f383 8810 	msr	PRIMASK, r3
  ATOMIC_SET_BIT(huart->Instance->CR3, USART_CR3_EIE);
 8005986:	6801      	ldr	r1, [r0, #0]
 8005988:	688d      	ldr	r5, [r1, #8]
 800598a:	432b      	orrs	r3, r5
 800598c:	608b      	str	r3, [r1, #8]
 800598e:	f384 8810 	msr	PRIMASK, r4
  if ((huart->FifoMode == UART_FIFOMODE_ENABLE) && (Size >= huart->NbRxDataToProcess))
 8005992:	2580      	movs	r5, #128	@ 0x80
 8005994:	2180      	movs	r1, #128	@ 0x80
 8005996:	6e46      	ldr	r6, [r0, #100]	@ 0x64
 8005998:	6884      	ldr	r4, [r0, #8]
 800599a:	6903      	ldr	r3, [r0, #16]
 800599c:	05ad      	lsls	r5, r5, #22
 800599e:	0149      	lsls	r1, r1, #5
 80059a0:	42ae      	cmp	r6, r5
 80059a2:	d13f      	bne.n	8005a24 <UART_Start_Receive_IT+0xe0>
 80059a4:	0005      	movs	r5, r0
 80059a6:	3568      	adds	r5, #104	@ 0x68
 80059a8:	882d      	ldrh	r5, [r5, #0]
 80059aa:	4295      	cmp	r5, r2
 80059ac:	d83a      	bhi.n	8005a24 <UART_Start_Receive_IT+0xe0>
    if ((huart->Init.WordLength == UART_WORDLENGTH_9B) && (huart->Init.Parity == UART_PARITY_NONE))
 80059ae:	428c      	cmp	r4, r1
 80059b0:	d133      	bne.n	8005a1a <UART_Start_Receive_IT+0xd6>
 80059b2:	2b00      	cmp	r3, #0
 80059b4:	d122      	bne.n	80059fc <UART_Start_Receive_IT+0xb8>
 80059b6:	4b2c      	ldr	r3, [pc, #176]	@ (8005a68 <UART_Start_Receive_IT+0x124>)
 80059b8:	6743      	str	r3, [r0, #116]	@ 0x74
  __ASM volatile ("MRS %0, primask" : "=r" (result) :: "memory");
 80059ba:	f3ef 8110 	mrs	r1, PRIMASK
  __ASM volatile ("MSR primask, %0" : : "r" (priMask) : "memory");
 80059be:	2301      	movs	r3, #1
 80059c0:	f383 8810 	msr	PRIMASK, r3
    ATOMIC_SET_BIT(huart->Instance->CR3, USART_CR3_RXFTIE);
 80059c4:	2380      	movs	r3, #128	@ 0x80
 80059c6:	6802      	ldr	r2, [r0, #0]
 80059c8:	055b      	lsls	r3, r3, #21
 80059ca:	6890      	ldr	r0, [r2, #8]
 80059cc:	4303      	orrs	r3, r0
 80059ce:	6093      	str	r3, [r2, #8]
 80059d0:	f381 8810 	msr	PRIMASK, r1
}
 80059d4:	2000      	movs	r0, #0
 80059d6:	bd70      	pop	{r4, r5, r6, pc}
  UART_MASK_COMPUTATION(huart);
 80059d8:	2900      	cmp	r1, #0
 80059da:	d105      	bne.n	80059e8 <UART_Start_Receive_IT+0xa4>
 80059dc:	6901      	ldr	r1, [r0, #16]
 80059de:	23ff      	movs	r3, #255	@ 0xff
 80059e0:	2900      	cmp	r1, #0
 80059e2:	d0c1      	beq.n	8005968 <UART_Start_Receive_IT+0x24>
 80059e4:	3b80      	subs	r3, #128	@ 0x80
 80059e6:	e7bf      	b.n	8005968 <UART_Start_Receive_IT+0x24>
 80059e8:	2480      	movs	r4, #128	@ 0x80
 80059ea:	0564      	lsls	r4, r4, #21
 80059ec:	42a1      	cmp	r1, r4
 80059ee:	d1bb      	bne.n	8005968 <UART_Start_Receive_IT+0x24>
 80059f0:	6901      	ldr	r1, [r0, #16]
 80059f2:	237f      	movs	r3, #127	@ 0x7f
 80059f4:	2900      	cmp	r1, #0
 80059f6:	d0b7      	beq.n	8005968 <UART_Start_Receive_IT+0x24>
 80059f8:	3b40      	subs	r3, #64	@ 0x40
 80059fa:	e7b5      	b.n	8005968 <UART_Start_Receive_IT+0x24>
 80059fc:	4b1b      	ldr	r3, [pc, #108]	@ (8005a6c <UART_Start_Receive_IT+0x128>)
 80059fe:	6743      	str	r3, [r0, #116]	@ 0x74
  __ASM volatile ("MRS %0, primask" : "=r" (result) :: "memory");
 8005a00:	f3ef 8110 	mrs	r1, PRIMASK
  __ASM volatile ("MSR primask, %0" : : "r" (priMask) : "memory");
 8005a04:	2301      	movs	r3, #1
 8005a06:	f383 8810 	msr	PRIMASK, r3
      ATOMIC_SET_BIT(huart->Instance->CR1, USART_CR1_PEIE);
 8005a0a:	6802      	ldr	r2, [r0, #0]
 8005a0c:	33ff      	adds	r3, #255	@ 0xff
 8005a0e:	6814      	ldr	r4, [r2, #0]
 8005a10:	4323      	orrs	r3, r4
 8005a12:	6013      	str	r3, [r2, #0]
 8005a14:	f381 8810 	msr	PRIMASK, r1
}
 8005a18:	e7cf      	b.n	80059ba <UART_Start_Receive_IT+0x76>
 8005a1a:	4a14      	ldr	r2, [pc, #80]	@ (8005a6c <UART_Start_Receive_IT+0x128>)
 8005a1c:	6742      	str	r2, [r0, #116]	@ 0x74
    if (huart->Init.Parity != UART_PARITY_NONE)
 8005a1e:	2b00      	cmp	r3, #0
 8005a20:	d0cb      	beq.n	80059ba <UART_Start_Receive_IT+0x76>
 8005a22:	e7ed      	b.n	8005a00 <UART_Start_Receive_IT+0xbc>
    if ((huart->Init.WordLength == UART_WORDLENGTH_9B) && (huart->Init.Parity == UART_PARITY_NONE))
 8005a24:	428c      	cmp	r4, r1
 8005a26:	d11a      	bne.n	8005a5e <UART_Start_Receive_IT+0x11a>
 8005a28:	2b00      	cmp	r3, #0
 8005a2a:	d10a      	bne.n	8005a42 <UART_Start_Receive_IT+0xfe>
 8005a2c:	4b10      	ldr	r3, [pc, #64]	@ (8005a70 <UART_Start_Receive_IT+0x12c>)
 8005a2e:	6743      	str	r3, [r0, #116]	@ 0x74
  __ASM volatile ("MRS %0, primask" : "=r" (result) :: "memory");
 8005a30:	f3ef 8110 	mrs	r1, PRIMASK
  __ASM volatile ("MSR primask, %0" : : "r" (priMask) : "memory");
 8005a34:	2301      	movs	r3, #1
 8005a36:	f383 8810 	msr	PRIMASK, r3
      ATOMIC_SET_BIT(huart->Instance->CR1, USART_CR1_RXNEIE_RXFNEIE);
 8005a3a:	6802      	ldr	r2, [r0, #0]
 8005a3c:	331f      	adds	r3, #31
 8005a3e:	6810      	ldr	r0, [r2, #0]
 8005a40:	e00a      	b.n	8005a58 <UART_Start_Receive_IT+0x114>
 8005a42:	4b0c      	ldr	r3, [pc, #48]	@ (8005a74 <UART_Start_Receive_IT+0x130>)
 8005a44:	6743      	str	r3, [r0, #116]	@ 0x74
  __ASM volatile ("MRS %0, primask" : "=r" (result) :: "memory");
 8005a46:	f3ef 8110 	mrs	r1, PRIMASK
  __ASM volatile ("MSR primask, %0" : : "r" (priMask) : "memory");
 8005a4a:	2301      	movs	r3, #1
 8005a4c:	f383 8810 	msr	PRIMASK, r3
      ATOMIC_SET_BIT(huart->Instance->CR1, USART_CR1_PEIE | USART_CR1_RXNEIE_RXFNEIE);
 8005a50:	6802      	ldr	r2, [r0, #0]
 8005a52:	3320      	adds	r3, #32
 8005a54:	6810      	ldr	r0, [r2, #0]
 8005a56:	33ff      	adds	r3, #255	@ 0xff
      ATOMIC_SET_BIT(huart->Instance->CR1, USART_CR1_RXNEIE_RXFNEIE);
 8005a58:	4303      	orrs	r3, r0
 8005a5a:	6013      	str	r3, [r2, #0]
 8005a5c:	e7b8      	b.n	80059d0 <UART_Start_Receive_IT+0x8c>
 8005a5e:	4a05      	ldr	r2, [pc, #20]	@ (8005a74 <UART_Start_Receive_IT+0x130>)
 8005a60:	6742      	str	r2, [r0, #116]	@ 0x74
    if (huart->Init.Parity != UART_PARITY_NONE)
 8005a62:	2b00      	cmp	r3, #0
 8005a64:	d1ef      	bne.n	8005a46 <UART_Start_Receive_IT+0x102>
 8005a66:	e7e3      	b.n	8005a30 <UART_Start_Receive_IT+0xec>
 8005a68:	08005225 	.word	0x08005225
 8005a6c:	0800504d 	.word	0x0800504d
 8005a70:	08004f6d 	.word	0x08004f6d
 8005a74:	08004e8d 	.word	0x08004e8d

08005a78 <HAL_UART_Receive_IT>:
{
 8005a78:	0003      	movs	r3, r0
  if (huart->RxState == HAL_UART_STATE_READY)
 8005a7a:	308c      	adds	r0, #140	@ 0x8c
{
 8005a7c:	b570      	push	{r4, r5, r6, lr}
  if (huart->RxState == HAL_UART_STATE_READY)
 8005a7e:	6804      	ldr	r4, [r0, #0]
    return HAL_BUSY;
 8005a80:	2002      	movs	r0, #2
  if (huart->RxState == HAL_UART_STATE_READY)
 8005a82:	2c20      	cmp	r4, #32
 8005a84:	d128      	bne.n	8005ad8 <HAL_UART_Receive_IT+0x60>
      return HAL_ERROR;
 8005a86:	3801      	subs	r0, #1
    if ((pData == NULL) || (Size == 0U))
 8005a88:	2900      	cmp	r1, #0
 8005a8a:	d025      	beq.n	8005ad8 <HAL_UART_Receive_IT+0x60>
 8005a8c:	2a00      	cmp	r2, #0
 8005a8e:	d023      	beq.n	8005ad8 <HAL_UART_Receive_IT+0x60>
    if ((huart->Init.WordLength == UART_WORDLENGTH_9B) && (huart->Init.Parity == UART_PARITY_NONE))
 8005a90:	2080      	movs	r0, #128	@ 0x80
 8005a92:	689c      	ldr	r4, [r3, #8]
 8005a94:	0140      	lsls	r0, r0, #5
 8005a96:	4284      	cmp	r4, r0
 8005a98:	d105      	bne.n	8005aa6 <HAL_UART_Receive_IT+0x2e>
 8005a9a:	6918      	ldr	r0, [r3, #16]
 8005a9c:	2800      	cmp	r0, #0
 8005a9e:	d102      	bne.n	8005aa6 <HAL_UART_Receive_IT+0x2e>
      return HAL_ERROR;
 8005aa0:	3001      	adds	r0, #1
      if ((((uint32_t)pData) & 1U) != 0U)
 8005aa2:	4201      	tst	r1, r0
 8005aa4:	d118      	bne.n	8005ad8 <HAL_UART_Receive_IT+0x60>
    huart->ReceptionType = HAL_UART_RECEPTION_STANDARD;
 8005aa6:	2000      	movs	r0, #0
    if (!(IS_LPUART_INSTANCE(huart->Instance)))
 8005aa8:	4c0c      	ldr	r4, [pc, #48]	@ (8005adc <HAL_UART_Receive_IT+0x64>)
    huart->ReceptionType = HAL_UART_RECEPTION_STANDARD;
 8005aaa:	66d8      	str	r0, [r3, #108]	@ 0x6c
    if (!(IS_LPUART_INSTANCE(huart->Instance)))
 8005aac:	6818      	ldr	r0, [r3, #0]
 8005aae:	42a0      	cmp	r0, r4
 8005ab0:	d00f      	beq.n	8005ad2 <HAL_UART_Receive_IT+0x5a>
      if (READ_BIT(huart->Instance->CR2, USART_CR2_RTOEN) != 0U)
 8005ab2:	6840      	ldr	r0, [r0, #4]
 8005ab4:	0200      	lsls	r0, r0, #8
 8005ab6:	d50c      	bpl.n	8005ad2 <HAL_UART_Receive_IT+0x5a>
  __ASM volatile ("MRS %0, primask" : "=r" (result) :: "memory");
 8005ab8:	f3ef 8510 	mrs	r5, PRIMASK
  __ASM volatile ("MSR primask, %0" : : "r" (priMask) : "memory");
 8005abc:	2001      	movs	r0, #1
 8005abe:	f380 8810 	msr	PRIMASK, r0
        ATOMIC_SET_BIT(huart->Instance->CR1, USART_CR1_RTOIE);
 8005ac2:	2080      	movs	r0, #128	@ 0x80
 8005ac4:	681c      	ldr	r4, [r3, #0]
 8005ac6:	04c0      	lsls	r0, r0, #19
 8005ac8:	6826      	ldr	r6, [r4, #0]
 8005aca:	4330      	orrs	r0, r6
 8005acc:	6020      	str	r0, [r4, #0]
 8005ace:	f385 8810 	msr	PRIMASK, r5
    return (UART_Start_Receive_IT(huart, pData, Size));
 8005ad2:	0018      	movs	r0, r3
 8005ad4:	f7ff ff36 	bl	8005944 <UART_Start_Receive_IT>
}
 8005ad8:	bd70      	pop	{r4, r5, r6, pc}
 8005ada:	46c0      	nop			@ (mov r8, r8)
 8005adc:	40008000 	.word	0x40008000

08005ae0 <UARTEx_SetNbDataToProcess>:
  *       the UART configuration registers.
  * @param huart UART handle.
  * @retval None
  */
static void UARTEx_SetNbDataToProcess(UART_HandleTypeDef *huart)
{
 8005ae0:	b5f7      	push	{r0, r1, r2, r4, r5, r6, r7, lr}
 8005ae2:	0007      	movs	r7, r0
  uint8_t rx_fifo_threshold;
  uint8_t tx_fifo_threshold;
  static const uint8_t numerator[] = {1U, 1U, 1U, 3U, 7U, 1U, 0U, 0U};
  static const uint8_t denominator[] = {8U, 4U, 2U, 4U, 8U, 1U, 1U, 1U};

  if (huart->FifoMode == UART_FIFOMODE_DISABLE)
 8005ae4:	6e43      	ldr	r3, [r0, #100]	@ 0x64
{
 8005ae6:	0004      	movs	r4, r0
 8005ae8:	376a      	adds	r7, #106	@ 0x6a
  if (huart->FifoMode == UART_FIFOMODE_DISABLE)
 8005aea:	2b00      	cmp	r3, #0
 8005aec:	d104      	bne.n	8005af8 <UARTEx_SetNbDataToProcess+0x18>
  {
    huart->NbTxDataToProcess = 1U;
 8005aee:	2001      	movs	r0, #1
 8005af0:	8038      	strh	r0, [r7, #0]
    huart->NbRxDataToProcess = 1U;
 8005af2:	3468      	adds	r4, #104	@ 0x68
 8005af4:	8020      	strh	r0, [r4, #0]
    huart->NbTxDataToProcess = ((uint16_t)tx_fifo_depth * numerator[tx_fifo_threshold]) /
                               (uint16_t)denominator[tx_fifo_threshold];
    huart->NbRxDataToProcess = ((uint16_t)rx_fifo_depth * numerator[rx_fifo_threshold]) /
                               (uint16_t)denominator[rx_fifo_threshold];
  }
}
 8005af6:	bdf7      	pop	{r0, r1, r2, r4, r5, r6, r7, pc}
    rx_fifo_threshold = (uint8_t)(READ_BIT(huart->Instance->CR3, USART_CR3_RXFTCFG) >> USART_CR3_RXFTCFG_Pos);
 8005af8:	6803      	ldr	r3, [r0, #0]
    huart->NbTxDataToProcess = ((uint16_t)tx_fifo_depth * numerator[tx_fifo_threshold]) /
 8005afa:	4e0b      	ldr	r6, [pc, #44]	@ (8005b28 <UARTEx_SetNbDataToProcess+0x48>)
    rx_fifo_threshold = (uint8_t)(READ_BIT(huart->Instance->CR3, USART_CR3_RXFTCFG) >> USART_CR3_RXFTCFG_Pos);
 8005afc:	689a      	ldr	r2, [r3, #8]
    tx_fifo_threshold = (uint8_t)(READ_BIT(huart->Instance->CR3, USART_CR3_TXFTCFG) >> USART_CR3_TXFTCFG_Pos);
 8005afe:	689b      	ldr	r3, [r3, #8]
                               (uint16_t)denominator[tx_fifo_threshold];
 8005b00:	4d0a      	ldr	r5, [pc, #40]	@ (8005b2c <UARTEx_SetNbDataToProcess+0x4c>)
    tx_fifo_threshold = (uint8_t)(READ_BIT(huart->Instance->CR3, USART_CR3_TXFTCFG) >> USART_CR3_TXFTCFG_Pos);
 8005b02:	0f5b      	lsrs	r3, r3, #29
    huart->NbTxDataToProcess = ((uint16_t)tx_fifo_depth * numerator[tx_fifo_threshold]) /
 8005b04:	5cf0      	ldrb	r0, [r6, r3]
                               (uint16_t)denominator[tx_fifo_threshold];
 8005b06:	5ce9      	ldrb	r1, [r5, r3]
    huart->NbTxDataToProcess = ((uint16_t)tx_fifo_depth * numerator[tx_fifo_threshold]) /
 8005b08:	00c0      	lsls	r0, r0, #3
    rx_fifo_threshold = (uint8_t)(READ_BIT(huart->Instance->CR3, USART_CR3_RXFTCFG) >> USART_CR3_RXFTCFG_Pos);
 8005b0a:	9201      	str	r2, [sp, #4]
    huart->NbTxDataToProcess = ((uint16_t)tx_fifo_depth * numerator[tx_fifo_threshold]) /
 8005b0c:	f7fa fbb6 	bl	800027c <__divsi3>
    rx_fifo_threshold = (uint8_t)(READ_BIT(huart->Instance->CR3, USART_CR3_RXFTCFG) >> USART_CR3_RXFTCFG_Pos);
 8005b10:	9b01      	ldr	r3, [sp, #4]
    huart->NbTxDataToProcess = ((uint16_t)tx_fifo_depth * numerator[tx_fifo_threshold]) /
 8005b12:	8038      	strh	r0, [r7, #0]
    rx_fifo_threshold = (uint8_t)(READ_BIT(huart->Instance->CR3, USART_CR3_RXFTCFG) >> USART_CR3_RXFTCFG_Pos);
 8005b14:	011b      	lsls	r3, r3, #4
    huart->NbRxDataToProcess = ((uint16_t)rx_fifo_depth * numerator[rx_fifo_threshold]) /
 8005b16:	0f5b      	lsrs	r3, r3, #29
 8005b18:	5cf0      	ldrb	r0, [r6, r3]
                               (uint16_t)denominator[rx_fifo_threshold];
 8005b1a:	5ce9      	ldrb	r1, [r5, r3]
    huart->NbRxDataToProcess = ((uint16_t)rx_fifo_depth * numerator[rx_fifo_threshold]) /
 8005b1c:	00c0      	lsls	r0, r0, #3
 8005b1e:	f7fa fbad 	bl	800027c <__divsi3>
 8005b22:	b280      	uxth	r0, r0
}
 8005b24:	e7e5      	b.n	8005af2 <UARTEx_SetNbDataToProcess+0x12>
 8005b26:	46c0      	nop			@ (mov r8, r8)
 8005b28:	08006734 	.word	0x08006734
 8005b2c:	0800672c 	.word	0x0800672c

08005b30 <HAL_UARTEx_WakeupCallback>:
}
 8005b30:	4770      	bx	lr

08005b32 <HAL_UARTEx_RxFifoFullCallback>:
__weak void HAL_UARTEx_RxFifoFullCallback(UART_HandleTypeDef *huart)
 8005b32:	4770      	bx	lr

08005b34 <HAL_UARTEx_TxFifoEmptyCallback>:
__weak void HAL_UARTEx_TxFifoEmptyCallback(UART_HandleTypeDef *huart)
 8005b34:	4770      	bx	lr
	...

08005b38 <HAL_UARTEx_DisableFifoMode>:
{
 8005b38:	b570      	push	{r4, r5, r6, lr}
  __HAL_LOCK(huart);
 8005b3a:	0004      	movs	r4, r0
 8005b3c:	3484      	adds	r4, #132	@ 0x84
 8005b3e:	7822      	ldrb	r2, [r4, #0]
{
 8005b40:	0003      	movs	r3, r0
  __HAL_LOCK(huart);
 8005b42:	2002      	movs	r0, #2
 8005b44:	2a01      	cmp	r2, #1
 8005b46:	d011      	beq.n	8005b6c <HAL_UARTEx_DisableFifoMode+0x34>
  huart->gState = HAL_UART_STATE_BUSY;
 8005b48:	001d      	movs	r5, r3
 8005b4a:	2224      	movs	r2, #36	@ 0x24
  __HAL_UART_DISABLE(huart);
 8005b4c:	2601      	movs	r6, #1
  huart->gState = HAL_UART_STATE_BUSY;
 8005b4e:	3588      	adds	r5, #136	@ 0x88
 8005b50:	602a      	str	r2, [r5, #0]
  tmpcr1 = READ_REG(huart->Instance->CR1);
 8005b52:	681a      	ldr	r2, [r3, #0]
 8005b54:	6811      	ldr	r1, [r2, #0]
  __HAL_UART_DISABLE(huart);
 8005b56:	6810      	ldr	r0, [r2, #0]
 8005b58:	43b0      	bics	r0, r6
 8005b5a:	6010      	str	r0, [r2, #0]
  CLEAR_BIT(tmpcr1, USART_CR1_FIFOEN);
 8005b5c:	4804      	ldr	r0, [pc, #16]	@ (8005b70 <HAL_UARTEx_DisableFifoMode+0x38>)
 8005b5e:	4001      	ands	r1, r0
  huart->FifoMode = UART_FIFOMODE_DISABLE;
 8005b60:	2000      	movs	r0, #0
 8005b62:	6658      	str	r0, [r3, #100]	@ 0x64
  huart->gState = HAL_UART_STATE_READY;
 8005b64:	2320      	movs	r3, #32
  WRITE_REG(huart->Instance->CR1, tmpcr1);
 8005b66:	6011      	str	r1, [r2, #0]
  huart->gState = HAL_UART_STATE_READY;
 8005b68:	602b      	str	r3, [r5, #0]
  __HAL_UNLOCK(huart);
 8005b6a:	7020      	strb	r0, [r4, #0]
}
 8005b6c:	bd70      	pop	{r4, r5, r6, pc}
 8005b6e:	46c0      	nop			@ (mov r8, r8)
 8005b70:	dfffffff 	.word	0xdfffffff

08005b74 <HAL_UARTEx_SetTxFifoThreshold>:
{
 8005b74:	b5f8      	push	{r3, r4, r5, r6, r7, lr}
  __HAL_LOCK(huart);
 8005b76:	0005      	movs	r5, r0
 8005b78:	3584      	adds	r5, #132	@ 0x84
{
 8005b7a:	000b      	movs	r3, r1
  __HAL_LOCK(huart);
 8005b7c:	7829      	ldrb	r1, [r5, #0]
 8005b7e:	2202      	movs	r2, #2
 8005b80:	2901      	cmp	r1, #1
 8005b82:	d015      	beq.n	8005bb0 <HAL_UARTEx_SetTxFifoThreshold+0x3c>
  huart->gState = HAL_UART_STATE_BUSY;
 8005b84:	0006      	movs	r6, r0
  __HAL_UART_DISABLE(huart);
 8005b86:	2101      	movs	r1, #1
  tmpcr1 = READ_REG(huart->Instance->CR1);
 8005b88:	6804      	ldr	r4, [r0, #0]
  huart->gState = HAL_UART_STATE_BUSY;
 8005b8a:	3688      	adds	r6, #136	@ 0x88
 8005b8c:	3222      	adds	r2, #34	@ 0x22
 8005b8e:	6032      	str	r2, [r6, #0]
  tmpcr1 = READ_REG(huart->Instance->CR1);
 8005b90:	6827      	ldr	r7, [r4, #0]
  __HAL_UART_DISABLE(huart);
 8005b92:	6822      	ldr	r2, [r4, #0]
 8005b94:	438a      	bics	r2, r1
 8005b96:	6022      	str	r2, [r4, #0]
  MODIFY_REG(huart->Instance->CR3, USART_CR3_TXFTCFG, Threshold);
 8005b98:	68a1      	ldr	r1, [r4, #8]
 8005b9a:	00c9      	lsls	r1, r1, #3
 8005b9c:	08c9      	lsrs	r1, r1, #3
 8005b9e:	4319      	orrs	r1, r3
 8005ba0:	60a1      	str	r1, [r4, #8]
  UARTEx_SetNbDataToProcess(huart);
 8005ba2:	f7ff ff9d 	bl	8005ae0 <UARTEx_SetNbDataToProcess>
  huart->gState = HAL_UART_STATE_READY;
 8005ba6:	2320      	movs	r3, #32
  __HAL_UNLOCK(huart);
 8005ba8:	2200      	movs	r2, #0
  WRITE_REG(huart->Instance->CR1, tmpcr1);
 8005baa:	6027      	str	r7, [r4, #0]
  huart->gState = HAL_UART_STATE_READY;
 8005bac:	6033      	str	r3, [r6, #0]
  __HAL_UNLOCK(huart);
 8005bae:	702a      	strb	r2, [r5, #0]
}
 8005bb0:	0010      	movs	r0, r2
 8005bb2:	bdf8      	pop	{r3, r4, r5, r6, r7, pc}

08005bb4 <HAL_UARTEx_SetRxFifoThreshold>:
{
 8005bb4:	b5f8      	push	{r3, r4, r5, r6, r7, lr}
  __HAL_LOCK(huart);
 8005bb6:	0005      	movs	r5, r0
 8005bb8:	3584      	adds	r5, #132	@ 0x84
{
 8005bba:	000a      	movs	r2, r1
  __HAL_LOCK(huart);
 8005bbc:	7829      	ldrb	r1, [r5, #0]
 8005bbe:	2302      	movs	r3, #2
 8005bc0:	2901      	cmp	r1, #1
 8005bc2:	d015      	beq.n	8005bf0 <HAL_UARTEx_SetRxFifoThreshold+0x3c>
  huart->gState = HAL_UART_STATE_BUSY;
 8005bc4:	0006      	movs	r6, r0
  __HAL_UART_DISABLE(huart);
 8005bc6:	2101      	movs	r1, #1
  tmpcr1 = READ_REG(huart->Instance->CR1);
 8005bc8:	6804      	ldr	r4, [r0, #0]
  huart->gState = HAL_UART_STATE_BUSY;
 8005bca:	3688      	adds	r6, #136	@ 0x88
 8005bcc:	3322      	adds	r3, #34	@ 0x22
 8005bce:	6033      	str	r3, [r6, #0]
  tmpcr1 = READ_REG(huart->Instance->CR1);
 8005bd0:	6827      	ldr	r7, [r4, #0]
  __HAL_UART_DISABLE(huart);
 8005bd2:	6823      	ldr	r3, [r4, #0]
 8005bd4:	438b      	bics	r3, r1
 8005bd6:	6023      	str	r3, [r4, #0]
  MODIFY_REG(huart->Instance->CR3, USART_CR3_RXFTCFG, Threshold);
 8005bd8:	68a1      	ldr	r1, [r4, #8]
 8005bda:	4b06      	ldr	r3, [pc, #24]	@ (8005bf4 <HAL_UARTEx_SetRxFifoThreshold+0x40>)
 8005bdc:	4019      	ands	r1, r3
 8005bde:	4311      	orrs	r1, r2
 8005be0:	60a1      	str	r1, [r4, #8]
  UARTEx_SetNbDataToProcess(huart);
 8005be2:	f7ff ff7d 	bl	8005ae0 <UARTEx_SetNbDataToProcess>
  huart->gState = HAL_UART_STATE_READY;
 8005be6:	2320      	movs	r3, #32
  WRITE_REG(huart->Instance->CR1, tmpcr1);
 8005be8:	6027      	str	r7, [r4, #0]
  huart->gState = HAL_UART_STATE_READY;
 8005bea:	6033      	str	r3, [r6, #0]
  __HAL_UNLOCK(huart);
 8005bec:	2300      	movs	r3, #0
 8005bee:	702b      	strb	r3, [r5, #0]
}
 8005bf0:	0018      	movs	r0, r3
 8005bf2:	bdf8      	pop	{r3, r4, r5, r6, r7, pc}
 8005bf4:	f1ffffff 	.word	0xf1ffffff

08005bf8 <sniprintf>:
 8005bf8:	b40c      	push	{r2, r3}
 8005bfa:	b530      	push	{r4, r5, lr}
 8005bfc:	4b18      	ldr	r3, [pc, #96]	@ (8005c60 <sniprintf+0x68>)
 8005bfe:	000c      	movs	r4, r1
 8005c00:	681d      	ldr	r5, [r3, #0]
 8005c02:	b09d      	sub	sp, #116	@ 0x74
 8005c04:	2900      	cmp	r1, #0
 8005c06:	da08      	bge.n	8005c1a <sniprintf+0x22>
 8005c08:	238b      	movs	r3, #139	@ 0x8b
 8005c0a:	2001      	movs	r0, #1
 8005c0c:	602b      	str	r3, [r5, #0]
 8005c0e:	4240      	negs	r0, r0
 8005c10:	b01d      	add	sp, #116	@ 0x74
 8005c12:	bc30      	pop	{r4, r5}
 8005c14:	bc08      	pop	{r3}
 8005c16:	b002      	add	sp, #8
 8005c18:	4718      	bx	r3
 8005c1a:	2382      	movs	r3, #130	@ 0x82
 8005c1c:	466a      	mov	r2, sp
 8005c1e:	009b      	lsls	r3, r3, #2
 8005c20:	8293      	strh	r3, [r2, #20]
 8005c22:	2300      	movs	r3, #0
 8005c24:	9002      	str	r0, [sp, #8]
 8005c26:	931b      	str	r3, [sp, #108]	@ 0x6c
 8005c28:	9006      	str	r0, [sp, #24]
 8005c2a:	4299      	cmp	r1, r3
 8005c2c:	d000      	beq.n	8005c30 <sniprintf+0x38>
 8005c2e:	1e4b      	subs	r3, r1, #1
 8005c30:	9304      	str	r3, [sp, #16]
 8005c32:	9307      	str	r3, [sp, #28]
 8005c34:	2301      	movs	r3, #1
 8005c36:	466a      	mov	r2, sp
 8005c38:	425b      	negs	r3, r3
 8005c3a:	82d3      	strh	r3, [r2, #22]
 8005c3c:	0028      	movs	r0, r5
 8005c3e:	ab21      	add	r3, sp, #132	@ 0x84
 8005c40:	9a20      	ldr	r2, [sp, #128]	@ 0x80
 8005c42:	a902      	add	r1, sp, #8
 8005c44:	9301      	str	r3, [sp, #4]
 8005c46:	f000 f9a7 	bl	8005f98 <_svfiprintf_r>
 8005c4a:	1c43      	adds	r3, r0, #1
 8005c4c:	da01      	bge.n	8005c52 <sniprintf+0x5a>
 8005c4e:	238b      	movs	r3, #139	@ 0x8b
 8005c50:	602b      	str	r3, [r5, #0]
 8005c52:	2c00      	cmp	r4, #0
 8005c54:	d0dc      	beq.n	8005c10 <sniprintf+0x18>
 8005c56:	2200      	movs	r2, #0
 8005c58:	9b02      	ldr	r3, [sp, #8]
 8005c5a:	701a      	strb	r2, [r3, #0]
 8005c5c:	e7d8      	b.n	8005c10 <sniprintf+0x18>
 8005c5e:	46c0      	nop			@ (mov r8, r8)
 8005c60:	2000000c 	.word	0x2000000c

08005c64 <memset>:
 8005c64:	0003      	movs	r3, r0
 8005c66:	1882      	adds	r2, r0, r2
 8005c68:	4293      	cmp	r3, r2
 8005c6a:	d100      	bne.n	8005c6e <memset+0xa>
 8005c6c:	4770      	bx	lr
 8005c6e:	7019      	strb	r1, [r3, #0]
 8005c70:	3301      	adds	r3, #1
 8005c72:	e7f9      	b.n	8005c68 <memset+0x4>

08005c74 <__errno>:
 8005c74:	4b01      	ldr	r3, [pc, #4]	@ (8005c7c <__errno+0x8>)
 8005c76:	6818      	ldr	r0, [r3, #0]
 8005c78:	4770      	bx	lr
 8005c7a:	46c0      	nop			@ (mov r8, r8)
 8005c7c:	2000000c 	.word	0x2000000c

08005c80 <__libc_init_array>:
 8005c80:	b570      	push	{r4, r5, r6, lr}
 8005c82:	2600      	movs	r6, #0
 8005c84:	4c0c      	ldr	r4, [pc, #48]	@ (8005cb8 <__libc_init_array+0x38>)
 8005c86:	4d0d      	ldr	r5, [pc, #52]	@ (8005cbc <__libc_init_array+0x3c>)
 8005c88:	1b64      	subs	r4, r4, r5
 8005c8a:	10a4      	asrs	r4, r4, #2
 8005c8c:	42a6      	cmp	r6, r4
 8005c8e:	d109      	bne.n	8005ca4 <__libc_init_array+0x24>
 8005c90:	2600      	movs	r6, #0
 8005c92:	f000 fc63 	bl	800655c <_init>
 8005c96:	4c0a      	ldr	r4, [pc, #40]	@ (8005cc0 <__libc_init_array+0x40>)
 8005c98:	4d0a      	ldr	r5, [pc, #40]	@ (8005cc4 <__libc_init_array+0x44>)
 8005c9a:	1b64      	subs	r4, r4, r5
 8005c9c:	10a4      	asrs	r4, r4, #2
 8005c9e:	42a6      	cmp	r6, r4
 8005ca0:	d105      	bne.n	8005cae <__libc_init_array+0x2e>
 8005ca2:	bd70      	pop	{r4, r5, r6, pc}
 8005ca4:	00b3      	lsls	r3, r6, #2
 8005ca6:	58eb      	ldr	r3, [r5, r3]
 8005ca8:	4798      	blx	r3
 8005caa:	3601      	adds	r6, #1
 8005cac:	e7ee      	b.n	8005c8c <__libc_init_array+0xc>
 8005cae:	00b3      	lsls	r3, r6, #2
 8005cb0:	58eb      	ldr	r3, [r5, r3]
 8005cb2:	4798      	blx	r3
 8005cb4:	3601      	adds	r6, #1
 8005cb6:	e7f2      	b.n	8005c9e <__libc_init_array+0x1e>
 8005cb8:	08006744 	.word	0x08006744
 8005cbc:	08006744 	.word	0x08006744
 8005cc0:	08006748 	.word	0x08006748
 8005cc4:	08006744 	.word	0x08006744

08005cc8 <__retarget_lock_acquire_recursive>:
 8005cc8:	4770      	bx	lr

08005cca <__retarget_lock_release_recursive>:
 8005cca:	4770      	bx	lr

08005ccc <memcpy>:
 8005ccc:	2300      	movs	r3, #0
 8005cce:	b510      	push	{r4, lr}
 8005cd0:	429a      	cmp	r2, r3
 8005cd2:	d100      	bne.n	8005cd6 <memcpy+0xa>
 8005cd4:	bd10      	pop	{r4, pc}
 8005cd6:	5ccc      	ldrb	r4, [r1, r3]
 8005cd8:	54c4      	strb	r4, [r0, r3]
 8005cda:	3301      	adds	r3, #1
 8005cdc:	e7f8      	b.n	8005cd0 <memcpy+0x4>
	...

08005ce0 <_free_r>:
 8005ce0:	b570      	push	{r4, r5, r6, lr}
 8005ce2:	0005      	movs	r5, r0
 8005ce4:	1e0c      	subs	r4, r1, #0
 8005ce6:	d010      	beq.n	8005d0a <_free_r+0x2a>
 8005ce8:	3c04      	subs	r4, #4
 8005cea:	6823      	ldr	r3, [r4, #0]
 8005cec:	2b00      	cmp	r3, #0
 8005cee:	da00      	bge.n	8005cf2 <_free_r+0x12>
 8005cf0:	18e4      	adds	r4, r4, r3
 8005cf2:	0028      	movs	r0, r5
 8005cf4:	f000 f8e0 	bl	8005eb8 <__malloc_lock>
 8005cf8:	4a1d      	ldr	r2, [pc, #116]	@ (8005d70 <_free_r+0x90>)
 8005cfa:	6813      	ldr	r3, [r2, #0]
 8005cfc:	2b00      	cmp	r3, #0
 8005cfe:	d105      	bne.n	8005d0c <_free_r+0x2c>
 8005d00:	6063      	str	r3, [r4, #4]
 8005d02:	6014      	str	r4, [r2, #0]
 8005d04:	0028      	movs	r0, r5
 8005d06:	f000 f8df 	bl	8005ec8 <__malloc_unlock>
 8005d0a:	bd70      	pop	{r4, r5, r6, pc}
 8005d0c:	42a3      	cmp	r3, r4
 8005d0e:	d908      	bls.n	8005d22 <_free_r+0x42>
 8005d10:	6820      	ldr	r0, [r4, #0]
 8005d12:	1821      	adds	r1, r4, r0
 8005d14:	428b      	cmp	r3, r1
 8005d16:	d1f3      	bne.n	8005d00 <_free_r+0x20>
 8005d18:	6819      	ldr	r1, [r3, #0]
 8005d1a:	685b      	ldr	r3, [r3, #4]
 8005d1c:	1809      	adds	r1, r1, r0
 8005d1e:	6021      	str	r1, [r4, #0]
 8005d20:	e7ee      	b.n	8005d00 <_free_r+0x20>
 8005d22:	001a      	movs	r2, r3
 8005d24:	685b      	ldr	r3, [r3, #4]
 8005d26:	2b00      	cmp	r3, #0
 8005d28:	d001      	beq.n	8005d2e <_free_r+0x4e>
 8005d2a:	42a3      	cmp	r3, r4
 8005d2c:	d9f9      	bls.n	8005d22 <_free_r+0x42>
 8005d2e:	6811      	ldr	r1, [r2, #0]
 8005d30:	1850      	adds	r0, r2, r1
 8005d32:	42a0      	cmp	r0, r4
 8005d34:	d10b      	bne.n	8005d4e <_free_r+0x6e>
 8005d36:	6820      	ldr	r0, [r4, #0]
 8005d38:	1809      	adds	r1, r1, r0
 8005d3a:	1850      	adds	r0, r2, r1
 8005d3c:	6011      	str	r1, [r2, #0]
 8005d3e:	4283      	cmp	r3, r0
 8005d40:	d1e0      	bne.n	8005d04 <_free_r+0x24>
 8005d42:	6818      	ldr	r0, [r3, #0]
 8005d44:	685b      	ldr	r3, [r3, #4]
 8005d46:	1841      	adds	r1, r0, r1
 8005d48:	6011      	str	r1, [r2, #0]
 8005d4a:	6053      	str	r3, [r2, #4]
 8005d4c:	e7da      	b.n	8005d04 <_free_r+0x24>
 8005d4e:	42a0      	cmp	r0, r4
 8005d50:	d902      	bls.n	8005d58 <_free_r+0x78>
 8005d52:	230c      	movs	r3, #12
 8005d54:	602b      	str	r3, [r5, #0]
 8005d56:	e7d5      	b.n	8005d04 <_free_r+0x24>
 8005d58:	6820      	ldr	r0, [r4, #0]
 8005d5a:	1821      	adds	r1, r4, r0
 8005d5c:	428b      	cmp	r3, r1
 8005d5e:	d103      	bne.n	8005d68 <_free_r+0x88>
 8005d60:	6819      	ldr	r1, [r3, #0]
 8005d62:	685b      	ldr	r3, [r3, #4]
 8005d64:	1809      	adds	r1, r1, r0
 8005d66:	6021      	str	r1, [r4, #0]
 8005d68:	6063      	str	r3, [r4, #4]
 8005d6a:	6054      	str	r4, [r2, #4]
 8005d6c:	e7ca      	b.n	8005d04 <_free_r+0x24>
 8005d6e:	46c0      	nop			@ (mov r8, r8)
 8005d70:	20000a64 	.word	0x20000a64

08005d74 <sbrk_aligned>:
 8005d74:	b570      	push	{r4, r5, r6, lr}
 8005d76:	4e0f      	ldr	r6, [pc, #60]	@ (8005db4 <sbrk_aligned+0x40>)
 8005d78:	000d      	movs	r5, r1
 8005d7a:	6831      	ldr	r1, [r6, #0]
 8005d7c:	0004      	movs	r4, r0
 8005d7e:	2900      	cmp	r1, #0
 8005d80:	d102      	bne.n	8005d88 <sbrk_aligned+0x14>
 8005d82:	f000 fb95 	bl	80064b0 <_sbrk_r>
 8005d86:	6030      	str	r0, [r6, #0]
 8005d88:	0029      	movs	r1, r5
 8005d8a:	0020      	movs	r0, r4
 8005d8c:	f000 fb90 	bl	80064b0 <_sbrk_r>
 8005d90:	1c43      	adds	r3, r0, #1
 8005d92:	d103      	bne.n	8005d9c <sbrk_aligned+0x28>
 8005d94:	2501      	movs	r5, #1
 8005d96:	426d      	negs	r5, r5
 8005d98:	0028      	movs	r0, r5
 8005d9a:	bd70      	pop	{r4, r5, r6, pc}
 8005d9c:	2303      	movs	r3, #3
 8005d9e:	1cc5      	adds	r5, r0, #3
 8005da0:	439d      	bics	r5, r3
 8005da2:	42a8      	cmp	r0, r5
 8005da4:	d0f8      	beq.n	8005d98 <sbrk_aligned+0x24>
 8005da6:	1a29      	subs	r1, r5, r0
 8005da8:	0020      	movs	r0, r4
 8005daa:	f000 fb81 	bl	80064b0 <_sbrk_r>
 8005dae:	3001      	adds	r0, #1
 8005db0:	d1f2      	bne.n	8005d98 <sbrk_aligned+0x24>
 8005db2:	e7ef      	b.n	8005d94 <sbrk_aligned+0x20>
 8005db4:	20000a60 	.word	0x20000a60

08005db8 <_malloc_r>:
 8005db8:	b5f7      	push	{r0, r1, r2, r4, r5, r6, r7, lr}
 8005dba:	2203      	movs	r2, #3
 8005dbc:	1ccb      	adds	r3, r1, #3
 8005dbe:	4393      	bics	r3, r2
 8005dc0:	3308      	adds	r3, #8
 8005dc2:	0005      	movs	r5, r0
 8005dc4:	001f      	movs	r7, r3
 8005dc6:	2b0c      	cmp	r3, #12
 8005dc8:	d234      	bcs.n	8005e34 <_malloc_r+0x7c>
 8005dca:	270c      	movs	r7, #12
 8005dcc:	42b9      	cmp	r1, r7
 8005dce:	d833      	bhi.n	8005e38 <_malloc_r+0x80>
 8005dd0:	0028      	movs	r0, r5
 8005dd2:	f000 f871 	bl	8005eb8 <__malloc_lock>
 8005dd6:	4e37      	ldr	r6, [pc, #220]	@ (8005eb4 <_malloc_r+0xfc>)
 8005dd8:	6833      	ldr	r3, [r6, #0]
 8005dda:	001c      	movs	r4, r3
 8005ddc:	2c00      	cmp	r4, #0
 8005dde:	d12f      	bne.n	8005e40 <_malloc_r+0x88>
 8005de0:	0039      	movs	r1, r7
 8005de2:	0028      	movs	r0, r5
 8005de4:	f7ff ffc6 	bl	8005d74 <sbrk_aligned>
 8005de8:	0004      	movs	r4, r0
 8005dea:	1c43      	adds	r3, r0, #1
 8005dec:	d15f      	bne.n	8005eae <_malloc_r+0xf6>
 8005dee:	6834      	ldr	r4, [r6, #0]
 8005df0:	9400      	str	r4, [sp, #0]
 8005df2:	9b00      	ldr	r3, [sp, #0]
 8005df4:	2b00      	cmp	r3, #0
 8005df6:	d14a      	bne.n	8005e8e <_malloc_r+0xd6>
 8005df8:	2c00      	cmp	r4, #0
 8005dfa:	d052      	beq.n	8005ea2 <_malloc_r+0xea>
 8005dfc:	6823      	ldr	r3, [r4, #0]
 8005dfe:	0028      	movs	r0, r5
 8005e00:	18e3      	adds	r3, r4, r3
 8005e02:	9900      	ldr	r1, [sp, #0]
 8005e04:	9301      	str	r3, [sp, #4]
 8005e06:	f000 fb53 	bl	80064b0 <_sbrk_r>
 8005e0a:	9b01      	ldr	r3, [sp, #4]
 8005e0c:	4283      	cmp	r3, r0
 8005e0e:	d148      	bne.n	8005ea2 <_malloc_r+0xea>
 8005e10:	6823      	ldr	r3, [r4, #0]
 8005e12:	0028      	movs	r0, r5
 8005e14:	1aff      	subs	r7, r7, r3
 8005e16:	0039      	movs	r1, r7
 8005e18:	f7ff ffac 	bl	8005d74 <sbrk_aligned>
 8005e1c:	3001      	adds	r0, #1
 8005e1e:	d040      	beq.n	8005ea2 <_malloc_r+0xea>
 8005e20:	6823      	ldr	r3, [r4, #0]
 8005e22:	19db      	adds	r3, r3, r7
 8005e24:	6023      	str	r3, [r4, #0]
 8005e26:	6833      	ldr	r3, [r6, #0]
 8005e28:	685a      	ldr	r2, [r3, #4]
 8005e2a:	2a00      	cmp	r2, #0
 8005e2c:	d133      	bne.n	8005e96 <_malloc_r+0xde>
 8005e2e:	9b00      	ldr	r3, [sp, #0]
 8005e30:	6033      	str	r3, [r6, #0]
 8005e32:	e019      	b.n	8005e68 <_malloc_r+0xb0>
 8005e34:	2b00      	cmp	r3, #0
 8005e36:	dac9      	bge.n	8005dcc <_malloc_r+0x14>
 8005e38:	230c      	movs	r3, #12
 8005e3a:	602b      	str	r3, [r5, #0]
 8005e3c:	2000      	movs	r0, #0
 8005e3e:	bdfe      	pop	{r1, r2, r3, r4, r5, r6, r7, pc}
 8005e40:	6821      	ldr	r1, [r4, #0]
 8005e42:	1bc9      	subs	r1, r1, r7
 8005e44:	d420      	bmi.n	8005e88 <_malloc_r+0xd0>
 8005e46:	290b      	cmp	r1, #11
 8005e48:	d90a      	bls.n	8005e60 <_malloc_r+0xa8>
 8005e4a:	19e2      	adds	r2, r4, r7
 8005e4c:	6027      	str	r7, [r4, #0]
 8005e4e:	42a3      	cmp	r3, r4
 8005e50:	d104      	bne.n	8005e5c <_malloc_r+0xa4>
 8005e52:	6032      	str	r2, [r6, #0]
 8005e54:	6863      	ldr	r3, [r4, #4]
 8005e56:	6011      	str	r1, [r2, #0]
 8005e58:	6053      	str	r3, [r2, #4]
 8005e5a:	e005      	b.n	8005e68 <_malloc_r+0xb0>
 8005e5c:	605a      	str	r2, [r3, #4]
 8005e5e:	e7f9      	b.n	8005e54 <_malloc_r+0x9c>
 8005e60:	6862      	ldr	r2, [r4, #4]
 8005e62:	42a3      	cmp	r3, r4
 8005e64:	d10e      	bne.n	8005e84 <_malloc_r+0xcc>
 8005e66:	6032      	str	r2, [r6, #0]
 8005e68:	0028      	movs	r0, r5
 8005e6a:	f000 f82d 	bl	8005ec8 <__malloc_unlock>
 8005e6e:	0020      	movs	r0, r4
 8005e70:	2207      	movs	r2, #7
 8005e72:	300b      	adds	r0, #11
 8005e74:	1d23      	adds	r3, r4, #4
 8005e76:	4390      	bics	r0, r2
 8005e78:	1ac2      	subs	r2, r0, r3
 8005e7a:	4298      	cmp	r0, r3
 8005e7c:	d0df      	beq.n	8005e3e <_malloc_r+0x86>
 8005e7e:	1a1b      	subs	r3, r3, r0
 8005e80:	50a3      	str	r3, [r4, r2]
 8005e82:	e7dc      	b.n	8005e3e <_malloc_r+0x86>
 8005e84:	605a      	str	r2, [r3, #4]
 8005e86:	e7ef      	b.n	8005e68 <_malloc_r+0xb0>
 8005e88:	0023      	movs	r3, r4
 8005e8a:	6864      	ldr	r4, [r4, #4]
 8005e8c:	e7a6      	b.n	8005ddc <_malloc_r+0x24>
 8005e8e:	9c00      	ldr	r4, [sp, #0]
 8005e90:	6863      	ldr	r3, [r4, #4]
 8005e92:	9300      	str	r3, [sp, #0]
 8005e94:	e7ad      	b.n	8005df2 <_malloc_r+0x3a>
 8005e96:	001a      	movs	r2, r3
 8005e98:	685b      	ldr	r3, [r3, #4]
 8005e9a:	42a3      	cmp	r3, r4
 8005e9c:	d1fb      	bne.n	8005e96 <_malloc_r+0xde>
 8005e9e:	2300      	movs	r3, #0
 8005ea0:	e7da      	b.n	8005e58 <_malloc_r+0xa0>
 8005ea2:	230c      	movs	r3, #12
 8005ea4:	0028      	movs	r0, r5
 8005ea6:	602b      	str	r3, [r5, #0]
 8005ea8:	f000 f80e 	bl	8005ec8 <__malloc_unlock>
 8005eac:	e7c6      	b.n	8005e3c <_malloc_r+0x84>
 8005eae:	6007      	str	r7, [r0, #0]
 8005eb0:	e7da      	b.n	8005e68 <_malloc_r+0xb0>
 8005eb2:	46c0      	nop			@ (mov r8, r8)
 8005eb4:	20000a64 	.word	0x20000a64

08005eb8 <__malloc_lock>:
 8005eb8:	b510      	push	{r4, lr}
 8005eba:	4802      	ldr	r0, [pc, #8]	@ (8005ec4 <__malloc_lock+0xc>)
 8005ebc:	f7ff ff04 	bl	8005cc8 <__retarget_lock_acquire_recursive>
 8005ec0:	bd10      	pop	{r4, pc}
 8005ec2:	46c0      	nop			@ (mov r8, r8)
 8005ec4:	20000a5c 	.word	0x20000a5c

08005ec8 <__malloc_unlock>:
 8005ec8:	b510      	push	{r4, lr}
 8005eca:	4802      	ldr	r0, [pc, #8]	@ (8005ed4 <__malloc_unlock+0xc>)
 8005ecc:	f7ff fefd 	bl	8005cca <__retarget_lock_release_recursive>
 8005ed0:	bd10      	pop	{r4, pc}
 8005ed2:	46c0      	nop			@ (mov r8, r8)
 8005ed4:	20000a5c 	.word	0x20000a5c

08005ed8 <__ssputs_r>:
 8005ed8:	b5f0      	push	{r4, r5, r6, r7, lr}
 8005eda:	688e      	ldr	r6, [r1, #8]
 8005edc:	b085      	sub	sp, #20
 8005ede:	001f      	movs	r7, r3
 8005ee0:	000c      	movs	r4, r1
 8005ee2:	680b      	ldr	r3, [r1, #0]
 8005ee4:	9002      	str	r0, [sp, #8]
 8005ee6:	9203      	str	r2, [sp, #12]
 8005ee8:	42be      	cmp	r6, r7
 8005eea:	d830      	bhi.n	8005f4e <__ssputs_r+0x76>
 8005eec:	210c      	movs	r1, #12
 8005eee:	5e62      	ldrsh	r2, [r4, r1]
 8005ef0:	2190      	movs	r1, #144	@ 0x90
 8005ef2:	00c9      	lsls	r1, r1, #3
 8005ef4:	420a      	tst	r2, r1
 8005ef6:	d028      	beq.n	8005f4a <__ssputs_r+0x72>
 8005ef8:	2003      	movs	r0, #3
 8005efa:	6921      	ldr	r1, [r4, #16]
 8005efc:	1a5b      	subs	r3, r3, r1
 8005efe:	9301      	str	r3, [sp, #4]
 8005f00:	6963      	ldr	r3, [r4, #20]
 8005f02:	4343      	muls	r3, r0
 8005f04:	9801      	ldr	r0, [sp, #4]
 8005f06:	0fdd      	lsrs	r5, r3, #31
 8005f08:	18ed      	adds	r5, r5, r3
 8005f0a:	1c7b      	adds	r3, r7, #1
 8005f0c:	181b      	adds	r3, r3, r0
 8005f0e:	106d      	asrs	r5, r5, #1
 8005f10:	42ab      	cmp	r3, r5
 8005f12:	d900      	bls.n	8005f16 <__ssputs_r+0x3e>
 8005f14:	001d      	movs	r5, r3
 8005f16:	0552      	lsls	r2, r2, #21
 8005f18:	d528      	bpl.n	8005f6c <__ssputs_r+0x94>
 8005f1a:	0029      	movs	r1, r5
 8005f1c:	9802      	ldr	r0, [sp, #8]
 8005f1e:	f7ff ff4b 	bl	8005db8 <_malloc_r>
 8005f22:	1e06      	subs	r6, r0, #0
 8005f24:	d02c      	beq.n	8005f80 <__ssputs_r+0xa8>
 8005f26:	9a01      	ldr	r2, [sp, #4]
 8005f28:	6921      	ldr	r1, [r4, #16]
 8005f2a:	f7ff fecf 	bl	8005ccc <memcpy>
 8005f2e:	89a2      	ldrh	r2, [r4, #12]
 8005f30:	4b18      	ldr	r3, [pc, #96]	@ (8005f94 <__ssputs_r+0xbc>)
 8005f32:	401a      	ands	r2, r3
 8005f34:	2380      	movs	r3, #128	@ 0x80
 8005f36:	4313      	orrs	r3, r2
 8005f38:	81a3      	strh	r3, [r4, #12]
 8005f3a:	9b01      	ldr	r3, [sp, #4]
 8005f3c:	6126      	str	r6, [r4, #16]
 8005f3e:	18f6      	adds	r6, r6, r3
 8005f40:	6026      	str	r6, [r4, #0]
 8005f42:	003e      	movs	r6, r7
 8005f44:	6165      	str	r5, [r4, #20]
 8005f46:	1aed      	subs	r5, r5, r3
 8005f48:	60a5      	str	r5, [r4, #8]
 8005f4a:	42be      	cmp	r6, r7
 8005f4c:	d900      	bls.n	8005f50 <__ssputs_r+0x78>
 8005f4e:	003e      	movs	r6, r7
 8005f50:	0032      	movs	r2, r6
 8005f52:	9903      	ldr	r1, [sp, #12]
 8005f54:	6820      	ldr	r0, [r4, #0]
 8005f56:	f000 fa99 	bl	800648c <memmove>
 8005f5a:	2000      	movs	r0, #0
 8005f5c:	68a3      	ldr	r3, [r4, #8]
 8005f5e:	1b9b      	subs	r3, r3, r6
 8005f60:	60a3      	str	r3, [r4, #8]
 8005f62:	6823      	ldr	r3, [r4, #0]
 8005f64:	199b      	adds	r3, r3, r6
 8005f66:	6023      	str	r3, [r4, #0]
 8005f68:	b005      	add	sp, #20
 8005f6a:	bdf0      	pop	{r4, r5, r6, r7, pc}
 8005f6c:	002a      	movs	r2, r5
 8005f6e:	9802      	ldr	r0, [sp, #8]
 8005f70:	f000 fabb 	bl	80064ea <_realloc_r>
 8005f74:	1e06      	subs	r6, r0, #0
 8005f76:	d1e0      	bne.n	8005f3a <__ssputs_r+0x62>
 8005f78:	6921      	ldr	r1, [r4, #16]
 8005f7a:	9802      	ldr	r0, [sp, #8]
 8005f7c:	f7ff feb0 	bl	8005ce0 <_free_r>
 8005f80:	230c      	movs	r3, #12
 8005f82:	2001      	movs	r0, #1
 8005f84:	9a02      	ldr	r2, [sp, #8]
 8005f86:	4240      	negs	r0, r0
 8005f88:	6013      	str	r3, [r2, #0]
 8005f8a:	89a2      	ldrh	r2, [r4, #12]
 8005f8c:	3334      	adds	r3, #52	@ 0x34
 8005f8e:	4313      	orrs	r3, r2
 8005f90:	81a3      	strh	r3, [r4, #12]
 8005f92:	e7e9      	b.n	8005f68 <__ssputs_r+0x90>
 8005f94:	fffffb7f 	.word	0xfffffb7f

08005f98 <_svfiprintf_r>:
 8005f98:	b5f0      	push	{r4, r5, r6, r7, lr}
 8005f9a:	b0a1      	sub	sp, #132	@ 0x84
 8005f9c:	9003      	str	r0, [sp, #12]
 8005f9e:	001d      	movs	r5, r3
 8005fa0:	898b      	ldrh	r3, [r1, #12]
 8005fa2:	000f      	movs	r7, r1
 8005fa4:	0016      	movs	r6, r2
 8005fa6:	061b      	lsls	r3, r3, #24
 8005fa8:	d511      	bpl.n	8005fce <_svfiprintf_r+0x36>
 8005faa:	690b      	ldr	r3, [r1, #16]
 8005fac:	2b00      	cmp	r3, #0
 8005fae:	d10e      	bne.n	8005fce <_svfiprintf_r+0x36>
 8005fb0:	2140      	movs	r1, #64	@ 0x40
 8005fb2:	f7ff ff01 	bl	8005db8 <_malloc_r>
 8005fb6:	6038      	str	r0, [r7, #0]
 8005fb8:	6138      	str	r0, [r7, #16]
 8005fba:	2800      	cmp	r0, #0
 8005fbc:	d105      	bne.n	8005fca <_svfiprintf_r+0x32>
 8005fbe:	230c      	movs	r3, #12
 8005fc0:	9a03      	ldr	r2, [sp, #12]
 8005fc2:	6013      	str	r3, [r2, #0]
 8005fc4:	2001      	movs	r0, #1
 8005fc6:	4240      	negs	r0, r0
 8005fc8:	e0cf      	b.n	800616a <_svfiprintf_r+0x1d2>
 8005fca:	2340      	movs	r3, #64	@ 0x40
 8005fcc:	617b      	str	r3, [r7, #20]
 8005fce:	2300      	movs	r3, #0
 8005fd0:	ac08      	add	r4, sp, #32
 8005fd2:	6163      	str	r3, [r4, #20]
 8005fd4:	3320      	adds	r3, #32
 8005fd6:	7663      	strb	r3, [r4, #25]
 8005fd8:	3310      	adds	r3, #16
 8005fda:	76a3      	strb	r3, [r4, #26]
 8005fdc:	9507      	str	r5, [sp, #28]
 8005fde:	0035      	movs	r5, r6
 8005fe0:	782b      	ldrb	r3, [r5, #0]
 8005fe2:	2b00      	cmp	r3, #0
 8005fe4:	d001      	beq.n	8005fea <_svfiprintf_r+0x52>
 8005fe6:	2b25      	cmp	r3, #37	@ 0x25
 8005fe8:	d148      	bne.n	800607c <_svfiprintf_r+0xe4>
 8005fea:	1bab      	subs	r3, r5, r6
 8005fec:	9305      	str	r3, [sp, #20]
 8005fee:	42b5      	cmp	r5, r6
 8005ff0:	d00b      	beq.n	800600a <_svfiprintf_r+0x72>
 8005ff2:	0032      	movs	r2, r6
 8005ff4:	0039      	movs	r1, r7
 8005ff6:	9803      	ldr	r0, [sp, #12]
 8005ff8:	f7ff ff6e 	bl	8005ed8 <__ssputs_r>
 8005ffc:	3001      	adds	r0, #1
 8005ffe:	d100      	bne.n	8006002 <_svfiprintf_r+0x6a>
 8006000:	e0ae      	b.n	8006160 <_svfiprintf_r+0x1c8>
 8006002:	6963      	ldr	r3, [r4, #20]
 8006004:	9a05      	ldr	r2, [sp, #20]
 8006006:	189b      	adds	r3, r3, r2
 8006008:	6163      	str	r3, [r4, #20]
 800600a:	782b      	ldrb	r3, [r5, #0]
 800600c:	2b00      	cmp	r3, #0
 800600e:	d100      	bne.n	8006012 <_svfiprintf_r+0x7a>
 8006010:	e0a6      	b.n	8006160 <_svfiprintf_r+0x1c8>
 8006012:	2201      	movs	r2, #1
 8006014:	2300      	movs	r3, #0
 8006016:	4252      	negs	r2, r2
 8006018:	6062      	str	r2, [r4, #4]
 800601a:	a904      	add	r1, sp, #16
 800601c:	3254      	adds	r2, #84	@ 0x54
 800601e:	1852      	adds	r2, r2, r1
 8006020:	1c6e      	adds	r6, r5, #1
 8006022:	6023      	str	r3, [r4, #0]
 8006024:	60e3      	str	r3, [r4, #12]
 8006026:	60a3      	str	r3, [r4, #8]
 8006028:	7013      	strb	r3, [r2, #0]
 800602a:	65a3      	str	r3, [r4, #88]	@ 0x58
 800602c:	4b54      	ldr	r3, [pc, #336]	@ (8006180 <_svfiprintf_r+0x1e8>)
 800602e:	2205      	movs	r2, #5
 8006030:	0018      	movs	r0, r3
 8006032:	7831      	ldrb	r1, [r6, #0]
 8006034:	9305      	str	r3, [sp, #20]
 8006036:	f000 fa4d 	bl	80064d4 <memchr>
 800603a:	1c75      	adds	r5, r6, #1
 800603c:	2800      	cmp	r0, #0
 800603e:	d11f      	bne.n	8006080 <_svfiprintf_r+0xe8>
 8006040:	6822      	ldr	r2, [r4, #0]
 8006042:	06d3      	lsls	r3, r2, #27
 8006044:	d504      	bpl.n	8006050 <_svfiprintf_r+0xb8>
 8006046:	2353      	movs	r3, #83	@ 0x53
 8006048:	a904      	add	r1, sp, #16
 800604a:	185b      	adds	r3, r3, r1
 800604c:	2120      	movs	r1, #32
 800604e:	7019      	strb	r1, [r3, #0]
 8006050:	0713      	lsls	r3, r2, #28
 8006052:	d504      	bpl.n	800605e <_svfiprintf_r+0xc6>
 8006054:	2353      	movs	r3, #83	@ 0x53
 8006056:	a904      	add	r1, sp, #16
 8006058:	185b      	adds	r3, r3, r1
 800605a:	212b      	movs	r1, #43	@ 0x2b
 800605c:	7019      	strb	r1, [r3, #0]
 800605e:	7833      	ldrb	r3, [r6, #0]
 8006060:	2b2a      	cmp	r3, #42	@ 0x2a
 8006062:	d016      	beq.n	8006092 <_svfiprintf_r+0xfa>
 8006064:	0035      	movs	r5, r6
 8006066:	2100      	movs	r1, #0
 8006068:	200a      	movs	r0, #10
 800606a:	68e3      	ldr	r3, [r4, #12]
 800606c:	782a      	ldrb	r2, [r5, #0]
 800606e:	1c6e      	adds	r6, r5, #1
 8006070:	3a30      	subs	r2, #48	@ 0x30
 8006072:	2a09      	cmp	r2, #9
 8006074:	d950      	bls.n	8006118 <_svfiprintf_r+0x180>
 8006076:	2900      	cmp	r1, #0
 8006078:	d111      	bne.n	800609e <_svfiprintf_r+0x106>
 800607a:	e017      	b.n	80060ac <_svfiprintf_r+0x114>
 800607c:	3501      	adds	r5, #1
 800607e:	e7af      	b.n	8005fe0 <_svfiprintf_r+0x48>
 8006080:	9b05      	ldr	r3, [sp, #20]
 8006082:	6822      	ldr	r2, [r4, #0]
 8006084:	1ac0      	subs	r0, r0, r3
 8006086:	2301      	movs	r3, #1
 8006088:	4083      	lsls	r3, r0
 800608a:	4313      	orrs	r3, r2
 800608c:	002e      	movs	r6, r5
 800608e:	6023      	str	r3, [r4, #0]
 8006090:	e7cc      	b.n	800602c <_svfiprintf_r+0x94>
 8006092:	9b07      	ldr	r3, [sp, #28]
 8006094:	1d19      	adds	r1, r3, #4
 8006096:	681b      	ldr	r3, [r3, #0]
 8006098:	9107      	str	r1, [sp, #28]
 800609a:	2b00      	cmp	r3, #0
 800609c:	db01      	blt.n	80060a2 <_svfiprintf_r+0x10a>
 800609e:	930b      	str	r3, [sp, #44]	@ 0x2c
 80060a0:	e004      	b.n	80060ac <_svfiprintf_r+0x114>
 80060a2:	425b      	negs	r3, r3
 80060a4:	60e3      	str	r3, [r4, #12]
 80060a6:	2302      	movs	r3, #2
 80060a8:	4313      	orrs	r3, r2
 80060aa:	6023      	str	r3, [r4, #0]
 80060ac:	782b      	ldrb	r3, [r5, #0]
 80060ae:	2b2e      	cmp	r3, #46	@ 0x2e
 80060b0:	d10c      	bne.n	80060cc <_svfiprintf_r+0x134>
 80060b2:	786b      	ldrb	r3, [r5, #1]
 80060b4:	2b2a      	cmp	r3, #42	@ 0x2a
 80060b6:	d134      	bne.n	8006122 <_svfiprintf_r+0x18a>
 80060b8:	9b07      	ldr	r3, [sp, #28]
 80060ba:	3502      	adds	r5, #2
 80060bc:	1d1a      	adds	r2, r3, #4
 80060be:	681b      	ldr	r3, [r3, #0]
 80060c0:	9207      	str	r2, [sp, #28]
 80060c2:	2b00      	cmp	r3, #0
 80060c4:	da01      	bge.n	80060ca <_svfiprintf_r+0x132>
 80060c6:	2301      	movs	r3, #1
 80060c8:	425b      	negs	r3, r3
 80060ca:	9309      	str	r3, [sp, #36]	@ 0x24
 80060cc:	4e2d      	ldr	r6, [pc, #180]	@ (8006184 <_svfiprintf_r+0x1ec>)
 80060ce:	2203      	movs	r2, #3
 80060d0:	0030      	movs	r0, r6
 80060d2:	7829      	ldrb	r1, [r5, #0]
 80060d4:	f000 f9fe 	bl	80064d4 <memchr>
 80060d8:	2800      	cmp	r0, #0
 80060da:	d006      	beq.n	80060ea <_svfiprintf_r+0x152>
 80060dc:	2340      	movs	r3, #64	@ 0x40
 80060de:	1b80      	subs	r0, r0, r6
 80060e0:	4083      	lsls	r3, r0
 80060e2:	6822      	ldr	r2, [r4, #0]
 80060e4:	3501      	adds	r5, #1
 80060e6:	4313      	orrs	r3, r2
 80060e8:	6023      	str	r3, [r4, #0]
 80060ea:	7829      	ldrb	r1, [r5, #0]
 80060ec:	2206      	movs	r2, #6
 80060ee:	4826      	ldr	r0, [pc, #152]	@ (8006188 <_svfiprintf_r+0x1f0>)
 80060f0:	1c6e      	adds	r6, r5, #1
 80060f2:	7621      	strb	r1, [r4, #24]
 80060f4:	f000 f9ee 	bl	80064d4 <memchr>
 80060f8:	2800      	cmp	r0, #0
 80060fa:	d038      	beq.n	800616e <_svfiprintf_r+0x1d6>
 80060fc:	4b23      	ldr	r3, [pc, #140]	@ (800618c <_svfiprintf_r+0x1f4>)
 80060fe:	2b00      	cmp	r3, #0
 8006100:	d122      	bne.n	8006148 <_svfiprintf_r+0x1b0>
 8006102:	2207      	movs	r2, #7
 8006104:	9b07      	ldr	r3, [sp, #28]
 8006106:	3307      	adds	r3, #7
 8006108:	4393      	bics	r3, r2
 800610a:	3308      	adds	r3, #8
 800610c:	9307      	str	r3, [sp, #28]
 800610e:	6963      	ldr	r3, [r4, #20]
 8006110:	9a04      	ldr	r2, [sp, #16]
 8006112:	189b      	adds	r3, r3, r2
 8006114:	6163      	str	r3, [r4, #20]
 8006116:	e762      	b.n	8005fde <_svfiprintf_r+0x46>
 8006118:	4343      	muls	r3, r0
 800611a:	0035      	movs	r5, r6
 800611c:	2101      	movs	r1, #1
 800611e:	189b      	adds	r3, r3, r2
 8006120:	e7a4      	b.n	800606c <_svfiprintf_r+0xd4>
 8006122:	2300      	movs	r3, #0
 8006124:	200a      	movs	r0, #10
 8006126:	0019      	movs	r1, r3
 8006128:	3501      	adds	r5, #1
 800612a:	6063      	str	r3, [r4, #4]
 800612c:	782a      	ldrb	r2, [r5, #0]
 800612e:	1c6e      	adds	r6, r5, #1
 8006130:	3a30      	subs	r2, #48	@ 0x30
 8006132:	2a09      	cmp	r2, #9
 8006134:	d903      	bls.n	800613e <_svfiprintf_r+0x1a6>
 8006136:	2b00      	cmp	r3, #0
 8006138:	d0c8      	beq.n	80060cc <_svfiprintf_r+0x134>
 800613a:	9109      	str	r1, [sp, #36]	@ 0x24
 800613c:	e7c6      	b.n	80060cc <_svfiprintf_r+0x134>
 800613e:	4341      	muls	r1, r0
 8006140:	0035      	movs	r5, r6
 8006142:	2301      	movs	r3, #1
 8006144:	1889      	adds	r1, r1, r2
 8006146:	e7f1      	b.n	800612c <_svfiprintf_r+0x194>
 8006148:	aa07      	add	r2, sp, #28
 800614a:	9200      	str	r2, [sp, #0]
 800614c:	0021      	movs	r1, r4
 800614e:	003a      	movs	r2, r7
 8006150:	4b0f      	ldr	r3, [pc, #60]	@ (8006190 <_svfiprintf_r+0x1f8>)
 8006152:	9803      	ldr	r0, [sp, #12]
 8006154:	e000      	b.n	8006158 <_svfiprintf_r+0x1c0>
 8006156:	bf00      	nop
 8006158:	9004      	str	r0, [sp, #16]
 800615a:	9b04      	ldr	r3, [sp, #16]
 800615c:	3301      	adds	r3, #1
 800615e:	d1d6      	bne.n	800610e <_svfiprintf_r+0x176>
 8006160:	89bb      	ldrh	r3, [r7, #12]
 8006162:	980d      	ldr	r0, [sp, #52]	@ 0x34
 8006164:	065b      	lsls	r3, r3, #25
 8006166:	d500      	bpl.n	800616a <_svfiprintf_r+0x1d2>
 8006168:	e72c      	b.n	8005fc4 <_svfiprintf_r+0x2c>
 800616a:	b021      	add	sp, #132	@ 0x84
 800616c:	bdf0      	pop	{r4, r5, r6, r7, pc}
 800616e:	aa07      	add	r2, sp, #28
 8006170:	9200      	str	r2, [sp, #0]
 8006172:	0021      	movs	r1, r4
 8006174:	003a      	movs	r2, r7
 8006176:	4b06      	ldr	r3, [pc, #24]	@ (8006190 <_svfiprintf_r+0x1f8>)
 8006178:	9803      	ldr	r0, [sp, #12]
 800617a:	f000 f87b 	bl	8006274 <_printf_i>
 800617e:	e7eb      	b.n	8006158 <_svfiprintf_r+0x1c0>
 8006180:	08006640 	.word	0x08006640
 8006184:	08006646 	.word	0x08006646
 8006188:	0800664a 	.word	0x0800664a
 800618c:	00000000 	.word	0x00000000
 8006190:	08005ed9 	.word	0x08005ed9

08006194 <_printf_common>:
 8006194:	b5f7      	push	{r0, r1, r2, r4, r5, r6, r7, lr}
 8006196:	0016      	movs	r6, r2
 8006198:	9301      	str	r3, [sp, #4]
 800619a:	688a      	ldr	r2, [r1, #8]
 800619c:	690b      	ldr	r3, [r1, #16]
 800619e:	000c      	movs	r4, r1
 80061a0:	9000      	str	r0, [sp, #0]
 80061a2:	4293      	cmp	r3, r2
 80061a4:	da00      	bge.n	80061a8 <_printf_common+0x14>
 80061a6:	0013      	movs	r3, r2
 80061a8:	0022      	movs	r2, r4
 80061aa:	6033      	str	r3, [r6, #0]
 80061ac:	3243      	adds	r2, #67	@ 0x43
 80061ae:	7812      	ldrb	r2, [r2, #0]
 80061b0:	2a00      	cmp	r2, #0
 80061b2:	d001      	beq.n	80061b8 <_printf_common+0x24>
 80061b4:	3301      	adds	r3, #1
 80061b6:	6033      	str	r3, [r6, #0]
 80061b8:	6823      	ldr	r3, [r4, #0]
 80061ba:	069b      	lsls	r3, r3, #26
 80061bc:	d502      	bpl.n	80061c4 <_printf_common+0x30>
 80061be:	6833      	ldr	r3, [r6, #0]
 80061c0:	3302      	adds	r3, #2
 80061c2:	6033      	str	r3, [r6, #0]
 80061c4:	6822      	ldr	r2, [r4, #0]
 80061c6:	2306      	movs	r3, #6
 80061c8:	0015      	movs	r5, r2
 80061ca:	401d      	ands	r5, r3
 80061cc:	421a      	tst	r2, r3
 80061ce:	d027      	beq.n	8006220 <_printf_common+0x8c>
 80061d0:	0023      	movs	r3, r4
 80061d2:	3343      	adds	r3, #67	@ 0x43
 80061d4:	781b      	ldrb	r3, [r3, #0]
 80061d6:	1e5a      	subs	r2, r3, #1
 80061d8:	4193      	sbcs	r3, r2
 80061da:	6822      	ldr	r2, [r4, #0]
 80061dc:	0692      	lsls	r2, r2, #26
 80061de:	d430      	bmi.n	8006242 <_printf_common+0xae>
 80061e0:	0022      	movs	r2, r4
 80061e2:	9901      	ldr	r1, [sp, #4]
 80061e4:	9800      	ldr	r0, [sp, #0]
 80061e6:	9d08      	ldr	r5, [sp, #32]
 80061e8:	3243      	adds	r2, #67	@ 0x43
 80061ea:	47a8      	blx	r5
 80061ec:	3001      	adds	r0, #1
 80061ee:	d025      	beq.n	800623c <_printf_common+0xa8>
 80061f0:	2206      	movs	r2, #6
 80061f2:	6823      	ldr	r3, [r4, #0]
 80061f4:	2500      	movs	r5, #0
 80061f6:	4013      	ands	r3, r2
 80061f8:	2b04      	cmp	r3, #4
 80061fa:	d105      	bne.n	8006208 <_printf_common+0x74>
 80061fc:	6833      	ldr	r3, [r6, #0]
 80061fe:	68e5      	ldr	r5, [r4, #12]
 8006200:	1aed      	subs	r5, r5, r3
 8006202:	43eb      	mvns	r3, r5
 8006204:	17db      	asrs	r3, r3, #31
 8006206:	401d      	ands	r5, r3
 8006208:	68a3      	ldr	r3, [r4, #8]
 800620a:	6922      	ldr	r2, [r4, #16]
 800620c:	4293      	cmp	r3, r2
 800620e:	dd01      	ble.n	8006214 <_printf_common+0x80>
 8006210:	1a9b      	subs	r3, r3, r2
 8006212:	18ed      	adds	r5, r5, r3
 8006214:	2600      	movs	r6, #0
 8006216:	42b5      	cmp	r5, r6
 8006218:	d120      	bne.n	800625c <_printf_common+0xc8>
 800621a:	2000      	movs	r0, #0
 800621c:	e010      	b.n	8006240 <_printf_common+0xac>
 800621e:	3501      	adds	r5, #1
 8006220:	68e3      	ldr	r3, [r4, #12]
 8006222:	6832      	ldr	r2, [r6, #0]
 8006224:	1a9b      	subs	r3, r3, r2
 8006226:	42ab      	cmp	r3, r5
 8006228:	ddd2      	ble.n	80061d0 <_printf_common+0x3c>
 800622a:	0022      	movs	r2, r4
 800622c:	2301      	movs	r3, #1
 800622e:	9901      	ldr	r1, [sp, #4]
 8006230:	9800      	ldr	r0, [sp, #0]
 8006232:	9f08      	ldr	r7, [sp, #32]
 8006234:	3219      	adds	r2, #25
 8006236:	47b8      	blx	r7
 8006238:	3001      	adds	r0, #1
 800623a:	d1f0      	bne.n	800621e <_printf_common+0x8a>
 800623c:	2001      	movs	r0, #1
 800623e:	4240      	negs	r0, r0
 8006240:	bdfe      	pop	{r1, r2, r3, r4, r5, r6, r7, pc}
 8006242:	2030      	movs	r0, #48	@ 0x30
 8006244:	18e1      	adds	r1, r4, r3
 8006246:	3143      	adds	r1, #67	@ 0x43
 8006248:	7008      	strb	r0, [r1, #0]
 800624a:	0021      	movs	r1, r4
 800624c:	1c5a      	adds	r2, r3, #1
 800624e:	3145      	adds	r1, #69	@ 0x45
 8006250:	7809      	ldrb	r1, [r1, #0]
 8006252:	18a2      	adds	r2, r4, r2
 8006254:	3243      	adds	r2, #67	@ 0x43
 8006256:	3302      	adds	r3, #2
 8006258:	7011      	strb	r1, [r2, #0]
 800625a:	e7c1      	b.n	80061e0 <_printf_common+0x4c>
 800625c:	0022      	movs	r2, r4
 800625e:	2301      	movs	r3, #1
 8006260:	9901      	ldr	r1, [sp, #4]
 8006262:	9800      	ldr	r0, [sp, #0]
 8006264:	9f08      	ldr	r7, [sp, #32]
 8006266:	321a      	adds	r2, #26
 8006268:	47b8      	blx	r7
 800626a:	3001      	adds	r0, #1
 800626c:	d0e6      	beq.n	800623c <_printf_common+0xa8>
 800626e:	3601      	adds	r6, #1
 8006270:	e7d1      	b.n	8006216 <_printf_common+0x82>
	...

08006274 <_printf_i>:
 8006274:	b5f0      	push	{r4, r5, r6, r7, lr}
 8006276:	b08b      	sub	sp, #44	@ 0x2c
 8006278:	9206      	str	r2, [sp, #24]
 800627a:	000a      	movs	r2, r1
 800627c:	3243      	adds	r2, #67	@ 0x43
 800627e:	9307      	str	r3, [sp, #28]
 8006280:	9005      	str	r0, [sp, #20]
 8006282:	9203      	str	r2, [sp, #12]
 8006284:	7e0a      	ldrb	r2, [r1, #24]
 8006286:	000c      	movs	r4, r1
 8006288:	9b10      	ldr	r3, [sp, #64]	@ 0x40
 800628a:	2a78      	cmp	r2, #120	@ 0x78
 800628c:	d809      	bhi.n	80062a2 <_printf_i+0x2e>
 800628e:	2a62      	cmp	r2, #98	@ 0x62
 8006290:	d80b      	bhi.n	80062aa <_printf_i+0x36>
 8006292:	2a00      	cmp	r2, #0
 8006294:	d100      	bne.n	8006298 <_printf_i+0x24>
 8006296:	e0ba      	b.n	800640e <_printf_i+0x19a>
 8006298:	497a      	ldr	r1, [pc, #488]	@ (8006484 <_printf_i+0x210>)
 800629a:	9104      	str	r1, [sp, #16]
 800629c:	2a58      	cmp	r2, #88	@ 0x58
 800629e:	d100      	bne.n	80062a2 <_printf_i+0x2e>
 80062a0:	e08e      	b.n	80063c0 <_printf_i+0x14c>
 80062a2:	0025      	movs	r5, r4
 80062a4:	3542      	adds	r5, #66	@ 0x42
 80062a6:	702a      	strb	r2, [r5, #0]
 80062a8:	e022      	b.n	80062f0 <_printf_i+0x7c>
 80062aa:	0010      	movs	r0, r2
 80062ac:	3863      	subs	r0, #99	@ 0x63
 80062ae:	2815      	cmp	r0, #21
 80062b0:	d8f7      	bhi.n	80062a2 <_printf_i+0x2e>
 80062b2:	f7f9 ff45 	bl	8000140 <__gnu_thumb1_case_shi>
 80062b6:	0016      	.short	0x0016
 80062b8:	fff6001f 	.word	0xfff6001f
 80062bc:	fff6fff6 	.word	0xfff6fff6
 80062c0:	001ffff6 	.word	0x001ffff6
 80062c4:	fff6fff6 	.word	0xfff6fff6
 80062c8:	fff6fff6 	.word	0xfff6fff6
 80062cc:	0036009f 	.word	0x0036009f
 80062d0:	fff6007e 	.word	0xfff6007e
 80062d4:	00b0fff6 	.word	0x00b0fff6
 80062d8:	0036fff6 	.word	0x0036fff6
 80062dc:	fff6fff6 	.word	0xfff6fff6
 80062e0:	0082      	.short	0x0082
 80062e2:	0025      	movs	r5, r4
 80062e4:	681a      	ldr	r2, [r3, #0]
 80062e6:	3542      	adds	r5, #66	@ 0x42
 80062e8:	1d11      	adds	r1, r2, #4
 80062ea:	6019      	str	r1, [r3, #0]
 80062ec:	6813      	ldr	r3, [r2, #0]
 80062ee:	702b      	strb	r3, [r5, #0]
 80062f0:	2301      	movs	r3, #1
 80062f2:	e09e      	b.n	8006432 <_printf_i+0x1be>
 80062f4:	6818      	ldr	r0, [r3, #0]
 80062f6:	6809      	ldr	r1, [r1, #0]
 80062f8:	1d02      	adds	r2, r0, #4
 80062fa:	060d      	lsls	r5, r1, #24
 80062fc:	d50b      	bpl.n	8006316 <_printf_i+0xa2>
 80062fe:	6806      	ldr	r6, [r0, #0]
 8006300:	601a      	str	r2, [r3, #0]
 8006302:	2e00      	cmp	r6, #0
 8006304:	da03      	bge.n	800630e <_printf_i+0x9a>
 8006306:	232d      	movs	r3, #45	@ 0x2d
 8006308:	9a03      	ldr	r2, [sp, #12]
 800630a:	4276      	negs	r6, r6
 800630c:	7013      	strb	r3, [r2, #0]
 800630e:	4b5d      	ldr	r3, [pc, #372]	@ (8006484 <_printf_i+0x210>)
 8006310:	270a      	movs	r7, #10
 8006312:	9304      	str	r3, [sp, #16]
 8006314:	e018      	b.n	8006348 <_printf_i+0xd4>
 8006316:	6806      	ldr	r6, [r0, #0]
 8006318:	601a      	str	r2, [r3, #0]
 800631a:	0649      	lsls	r1, r1, #25
 800631c:	d5f1      	bpl.n	8006302 <_printf_i+0x8e>
 800631e:	b236      	sxth	r6, r6
 8006320:	e7ef      	b.n	8006302 <_printf_i+0x8e>
 8006322:	6808      	ldr	r0, [r1, #0]
 8006324:	6819      	ldr	r1, [r3, #0]
 8006326:	c940      	ldmia	r1!, {r6}
 8006328:	0605      	lsls	r5, r0, #24
 800632a:	d402      	bmi.n	8006332 <_printf_i+0xbe>
 800632c:	0640      	lsls	r0, r0, #25
 800632e:	d500      	bpl.n	8006332 <_printf_i+0xbe>
 8006330:	b2b6      	uxth	r6, r6
 8006332:	6019      	str	r1, [r3, #0]
 8006334:	4b53      	ldr	r3, [pc, #332]	@ (8006484 <_printf_i+0x210>)
 8006336:	270a      	movs	r7, #10
 8006338:	9304      	str	r3, [sp, #16]
 800633a:	2a6f      	cmp	r2, #111	@ 0x6f
 800633c:	d100      	bne.n	8006340 <_printf_i+0xcc>
 800633e:	3f02      	subs	r7, #2
 8006340:	0023      	movs	r3, r4
 8006342:	2200      	movs	r2, #0
 8006344:	3343      	adds	r3, #67	@ 0x43
 8006346:	701a      	strb	r2, [r3, #0]
 8006348:	6863      	ldr	r3, [r4, #4]
 800634a:	60a3      	str	r3, [r4, #8]
 800634c:	2b00      	cmp	r3, #0
 800634e:	db06      	blt.n	800635e <_printf_i+0xea>
 8006350:	2104      	movs	r1, #4
 8006352:	6822      	ldr	r2, [r4, #0]
 8006354:	9d03      	ldr	r5, [sp, #12]
 8006356:	438a      	bics	r2, r1
 8006358:	6022      	str	r2, [r4, #0]
 800635a:	4333      	orrs	r3, r6
 800635c:	d00c      	beq.n	8006378 <_printf_i+0x104>
 800635e:	9d03      	ldr	r5, [sp, #12]
 8006360:	0030      	movs	r0, r6
 8006362:	0039      	movs	r1, r7
 8006364:	f7f9 ff86 	bl	8000274 <__aeabi_uidivmod>
 8006368:	9b04      	ldr	r3, [sp, #16]
 800636a:	3d01      	subs	r5, #1
 800636c:	5c5b      	ldrb	r3, [r3, r1]
 800636e:	702b      	strb	r3, [r5, #0]
 8006370:	0033      	movs	r3, r6
 8006372:	0006      	movs	r6, r0
 8006374:	429f      	cmp	r7, r3
 8006376:	d9f3      	bls.n	8006360 <_printf_i+0xec>
 8006378:	2f08      	cmp	r7, #8
 800637a:	d109      	bne.n	8006390 <_printf_i+0x11c>
 800637c:	6823      	ldr	r3, [r4, #0]
 800637e:	07db      	lsls	r3, r3, #31
 8006380:	d506      	bpl.n	8006390 <_printf_i+0x11c>
 8006382:	6862      	ldr	r2, [r4, #4]
 8006384:	6923      	ldr	r3, [r4, #16]
 8006386:	429a      	cmp	r2, r3
 8006388:	dc02      	bgt.n	8006390 <_printf_i+0x11c>
 800638a:	2330      	movs	r3, #48	@ 0x30
 800638c:	3d01      	subs	r5, #1
 800638e:	702b      	strb	r3, [r5, #0]
 8006390:	9b03      	ldr	r3, [sp, #12]
 8006392:	1b5b      	subs	r3, r3, r5
 8006394:	6123      	str	r3, [r4, #16]
 8006396:	9b07      	ldr	r3, [sp, #28]
 8006398:	0021      	movs	r1, r4
 800639a:	9300      	str	r3, [sp, #0]
 800639c:	9805      	ldr	r0, [sp, #20]
 800639e:	9b06      	ldr	r3, [sp, #24]
 80063a0:	aa09      	add	r2, sp, #36	@ 0x24
 80063a2:	f7ff fef7 	bl	8006194 <_printf_common>
 80063a6:	3001      	adds	r0, #1
 80063a8:	d148      	bne.n	800643c <_printf_i+0x1c8>
 80063aa:	2001      	movs	r0, #1
 80063ac:	4240      	negs	r0, r0
 80063ae:	b00b      	add	sp, #44	@ 0x2c
 80063b0:	bdf0      	pop	{r4, r5, r6, r7, pc}
 80063b2:	2220      	movs	r2, #32
 80063b4:	6809      	ldr	r1, [r1, #0]
 80063b6:	430a      	orrs	r2, r1
 80063b8:	6022      	str	r2, [r4, #0]
 80063ba:	2278      	movs	r2, #120	@ 0x78
 80063bc:	4932      	ldr	r1, [pc, #200]	@ (8006488 <_printf_i+0x214>)
 80063be:	9104      	str	r1, [sp, #16]
 80063c0:	0021      	movs	r1, r4
 80063c2:	3145      	adds	r1, #69	@ 0x45
 80063c4:	700a      	strb	r2, [r1, #0]
 80063c6:	6819      	ldr	r1, [r3, #0]
 80063c8:	6822      	ldr	r2, [r4, #0]
 80063ca:	c940      	ldmia	r1!, {r6}
 80063cc:	0610      	lsls	r0, r2, #24
 80063ce:	d402      	bmi.n	80063d6 <_printf_i+0x162>
 80063d0:	0650      	lsls	r0, r2, #25
 80063d2:	d500      	bpl.n	80063d6 <_printf_i+0x162>
 80063d4:	b2b6      	uxth	r6, r6
 80063d6:	6019      	str	r1, [r3, #0]
 80063d8:	07d3      	lsls	r3, r2, #31
 80063da:	d502      	bpl.n	80063e2 <_printf_i+0x16e>
 80063dc:	2320      	movs	r3, #32
 80063de:	4313      	orrs	r3, r2
 80063e0:	6023      	str	r3, [r4, #0]
 80063e2:	2e00      	cmp	r6, #0
 80063e4:	d001      	beq.n	80063ea <_printf_i+0x176>
 80063e6:	2710      	movs	r7, #16
 80063e8:	e7aa      	b.n	8006340 <_printf_i+0xcc>
 80063ea:	2220      	movs	r2, #32
 80063ec:	6823      	ldr	r3, [r4, #0]
 80063ee:	4393      	bics	r3, r2
 80063f0:	6023      	str	r3, [r4, #0]
 80063f2:	e7f8      	b.n	80063e6 <_printf_i+0x172>
 80063f4:	681a      	ldr	r2, [r3, #0]
 80063f6:	680d      	ldr	r5, [r1, #0]
 80063f8:	1d10      	adds	r0, r2, #4
 80063fa:	6949      	ldr	r1, [r1, #20]
 80063fc:	6018      	str	r0, [r3, #0]
 80063fe:	6813      	ldr	r3, [r2, #0]
 8006400:	062e      	lsls	r6, r5, #24
 8006402:	d501      	bpl.n	8006408 <_printf_i+0x194>
 8006404:	6019      	str	r1, [r3, #0]
 8006406:	e002      	b.n	800640e <_printf_i+0x19a>
 8006408:	066d      	lsls	r5, r5, #25
 800640a:	d5fb      	bpl.n	8006404 <_printf_i+0x190>
 800640c:	8019      	strh	r1, [r3, #0]
 800640e:	2300      	movs	r3, #0
 8006410:	9d03      	ldr	r5, [sp, #12]
 8006412:	6123      	str	r3, [r4, #16]
 8006414:	e7bf      	b.n	8006396 <_printf_i+0x122>
 8006416:	681a      	ldr	r2, [r3, #0]
 8006418:	1d11      	adds	r1, r2, #4
 800641a:	6019      	str	r1, [r3, #0]
 800641c:	6815      	ldr	r5, [r2, #0]
 800641e:	2100      	movs	r1, #0
 8006420:	0028      	movs	r0, r5
 8006422:	6862      	ldr	r2, [r4, #4]
 8006424:	f000 f856 	bl	80064d4 <memchr>
 8006428:	2800      	cmp	r0, #0
 800642a:	d001      	beq.n	8006430 <_printf_i+0x1bc>
 800642c:	1b40      	subs	r0, r0, r5
 800642e:	6060      	str	r0, [r4, #4]
 8006430:	6863      	ldr	r3, [r4, #4]
 8006432:	6123      	str	r3, [r4, #16]
 8006434:	2300      	movs	r3, #0
 8006436:	9a03      	ldr	r2, [sp, #12]
 8006438:	7013      	strb	r3, [r2, #0]
 800643a:	e7ac      	b.n	8006396 <_printf_i+0x122>
 800643c:	002a      	movs	r2, r5
 800643e:	6923      	ldr	r3, [r4, #16]
 8006440:	9906      	ldr	r1, [sp, #24]
 8006442:	9805      	ldr	r0, [sp, #20]
 8006444:	9d07      	ldr	r5, [sp, #28]
 8006446:	47a8      	blx	r5
 8006448:	3001      	adds	r0, #1
 800644a:	d0ae      	beq.n	80063aa <_printf_i+0x136>
 800644c:	6823      	ldr	r3, [r4, #0]
 800644e:	079b      	lsls	r3, r3, #30
 8006450:	d415      	bmi.n	800647e <_printf_i+0x20a>
 8006452:	9b09      	ldr	r3, [sp, #36]	@ 0x24
 8006454:	68e0      	ldr	r0, [r4, #12]
 8006456:	4298      	cmp	r0, r3
 8006458:	daa9      	bge.n	80063ae <_printf_i+0x13a>
 800645a:	0018      	movs	r0, r3
 800645c:	e7a7      	b.n	80063ae <_printf_i+0x13a>
 800645e:	0022      	movs	r2, r4
 8006460:	2301      	movs	r3, #1
 8006462:	9906      	ldr	r1, [sp, #24]
 8006464:	9805      	ldr	r0, [sp, #20]
 8006466:	9e07      	ldr	r6, [sp, #28]
 8006468:	3219      	adds	r2, #25
 800646a:	47b0      	blx	r6
 800646c:	3001      	adds	r0, #1
 800646e:	d09c      	beq.n	80063aa <_printf_i+0x136>
 8006470:	3501      	adds	r5, #1
 8006472:	68e3      	ldr	r3, [r4, #12]
 8006474:	9a09      	ldr	r2, [sp, #36]	@ 0x24
 8006476:	1a9b      	subs	r3, r3, r2
 8006478:	42ab      	cmp	r3, r5
 800647a:	dcf0      	bgt.n	800645e <_printf_i+0x1ea>
 800647c:	e7e9      	b.n	8006452 <_printf_i+0x1de>
 800647e:	2500      	movs	r5, #0
 8006480:	e7f7      	b.n	8006472 <_printf_i+0x1fe>
 8006482:	46c0      	nop			@ (mov r8, r8)
 8006484:	08006651 	.word	0x08006651
 8006488:	08006662 	.word	0x08006662

0800648c <memmove>:
 800648c:	b510      	push	{r4, lr}
 800648e:	4288      	cmp	r0, r1
 8006490:	d902      	bls.n	8006498 <memmove+0xc>
 8006492:	188b      	adds	r3, r1, r2
 8006494:	4298      	cmp	r0, r3
 8006496:	d308      	bcc.n	80064aa <memmove+0x1e>
 8006498:	2300      	movs	r3, #0
 800649a:	429a      	cmp	r2, r3
 800649c:	d007      	beq.n	80064ae <memmove+0x22>
 800649e:	5ccc      	ldrb	r4, [r1, r3]
 80064a0:	54c4      	strb	r4, [r0, r3]
 80064a2:	3301      	adds	r3, #1
 80064a4:	e7f9      	b.n	800649a <memmove+0xe>
 80064a6:	5c8b      	ldrb	r3, [r1, r2]
 80064a8:	5483      	strb	r3, [r0, r2]
 80064aa:	3a01      	subs	r2, #1
 80064ac:	d2fb      	bcs.n	80064a6 <memmove+0x1a>
 80064ae:	bd10      	pop	{r4, pc}

080064b0 <_sbrk_r>:
 80064b0:	2300      	movs	r3, #0
 80064b2:	b570      	push	{r4, r5, r6, lr}
 80064b4:	4d06      	ldr	r5, [pc, #24]	@ (80064d0 <_sbrk_r+0x20>)
 80064b6:	0004      	movs	r4, r0
 80064b8:	0008      	movs	r0, r1
 80064ba:	602b      	str	r3, [r5, #0]
 80064bc:	f7fc fa7e 	bl	80029bc <_sbrk>
 80064c0:	1c43      	adds	r3, r0, #1
 80064c2:	d103      	bne.n	80064cc <_sbrk_r+0x1c>
 80064c4:	682b      	ldr	r3, [r5, #0]
 80064c6:	2b00      	cmp	r3, #0
 80064c8:	d000      	beq.n	80064cc <_sbrk_r+0x1c>
 80064ca:	6023      	str	r3, [r4, #0]
 80064cc:	bd70      	pop	{r4, r5, r6, pc}
 80064ce:	46c0      	nop			@ (mov r8, r8)
 80064d0:	20000a58 	.word	0x20000a58

080064d4 <memchr>:
 80064d4:	b2c9      	uxtb	r1, r1
 80064d6:	1882      	adds	r2, r0, r2
 80064d8:	4290      	cmp	r0, r2
 80064da:	d101      	bne.n	80064e0 <memchr+0xc>
 80064dc:	2000      	movs	r0, #0
 80064de:	4770      	bx	lr
 80064e0:	7803      	ldrb	r3, [r0, #0]
 80064e2:	428b      	cmp	r3, r1
 80064e4:	d0fb      	beq.n	80064de <memchr+0xa>
 80064e6:	3001      	adds	r0, #1
 80064e8:	e7f6      	b.n	80064d8 <memchr+0x4>

080064ea <_realloc_r>:
 80064ea:	b5f7      	push	{r0, r1, r2, r4, r5, r6, r7, lr}
 80064ec:	0006      	movs	r6, r0
 80064ee:	000c      	movs	r4, r1
 80064f0:	0015      	movs	r5, r2
 80064f2:	2900      	cmp	r1, #0
 80064f4:	d105      	bne.n	8006502 <_realloc_r+0x18>
 80064f6:	0011      	movs	r1, r2
 80064f8:	f7ff fc5e 	bl	8005db8 <_malloc_r>
 80064fc:	0004      	movs	r4, r0
 80064fe:	0020      	movs	r0, r4
 8006500:	bdfe      	pop	{r1, r2, r3, r4, r5, r6, r7, pc}
 8006502:	2a00      	cmp	r2, #0
 8006504:	d103      	bne.n	800650e <_realloc_r+0x24>
 8006506:	f7ff fbeb 	bl	8005ce0 <_free_r>
 800650a:	002c      	movs	r4, r5
 800650c:	e7f7      	b.n	80064fe <_realloc_r+0x14>
 800650e:	f000 f81c 	bl	800654a <_malloc_usable_size_r>
 8006512:	0007      	movs	r7, r0
 8006514:	4285      	cmp	r5, r0
 8006516:	d802      	bhi.n	800651e <_realloc_r+0x34>
 8006518:	0843      	lsrs	r3, r0, #1
 800651a:	42ab      	cmp	r3, r5
 800651c:	d3ef      	bcc.n	80064fe <_realloc_r+0x14>
 800651e:	0029      	movs	r1, r5
 8006520:	0030      	movs	r0, r6
 8006522:	f7ff fc49 	bl	8005db8 <_malloc_r>
 8006526:	9001      	str	r0, [sp, #4]
 8006528:	2800      	cmp	r0, #0
 800652a:	d101      	bne.n	8006530 <_realloc_r+0x46>
 800652c:	9c01      	ldr	r4, [sp, #4]
 800652e:	e7e6      	b.n	80064fe <_realloc_r+0x14>
 8006530:	002a      	movs	r2, r5
 8006532:	42bd      	cmp	r5, r7
 8006534:	d900      	bls.n	8006538 <_realloc_r+0x4e>
 8006536:	003a      	movs	r2, r7
 8006538:	0021      	movs	r1, r4
 800653a:	9801      	ldr	r0, [sp, #4]
 800653c:	f7ff fbc6 	bl	8005ccc <memcpy>
 8006540:	0021      	movs	r1, r4
 8006542:	0030      	movs	r0, r6
 8006544:	f7ff fbcc 	bl	8005ce0 <_free_r>
 8006548:	e7f0      	b.n	800652c <_realloc_r+0x42>

0800654a <_malloc_usable_size_r>:
 800654a:	1f0b      	subs	r3, r1, #4
 800654c:	681b      	ldr	r3, [r3, #0]
 800654e:	1f18      	subs	r0, r3, #4
 8006550:	2b00      	cmp	r3, #0
 8006552:	da01      	bge.n	8006558 <_malloc_usable_size_r+0xe>
 8006554:	580b      	ldr	r3, [r1, r0]
 8006556:	18c0      	adds	r0, r0, r3
 8006558:	4770      	bx	lr
	...

0800655c <_init>:
 800655c:	b5f8      	push	{r3, r4, r5, r6, r7, lr}
 800655e:	46c0      	nop			@ (mov r8, r8)
 8006560:	bcf8      	pop	{r3, r4, r5, r6, r7}
 8006562:	bc08      	pop	{r3}
 8006564:	469e      	mov	lr, r3
 8006566:	4770      	bx	lr

08006568 <_fini>:
 8006568:	b5f8      	push	{r3, r4, r5, r6, r7, lr}
 800656a:	46c0      	nop			@ (mov r8, r8)
 800656c:	bcf8      	pop	{r3, r4, r5, r6, r7}
 800656e:	bc08      	pop	{r3}
 8006570:	469e      	mov	lr, r3
 8006572:	4770      	bx	lr
 8006574:	0000      	movs	r0, r0
	...

08006578 <__FLASH_Program_Fast_veneer>:
 8006578:	b401      	push	{r0}
 800657a:	4802      	ldr	r0, [pc, #8]	@ (8006584 <__FLASH_Program_Fast_veneer+0xc>)
 800657c:	4684      	mov	ip, r0
 800657e:	bc01      	pop	{r0}
 8006580:	4760      	bx	ip
 8006582:	bf00      	nop
 8006584:	2000005d 	.word	0x2000005d

Disassembly of section .data:

20000000 <SystemCoreClock>:
20000000:	00f42400                                .$..

20000004 <uwTickFreq>:
20000004:	00000001                                ....

20000008 <uwTickPrio>:
20000008:	00000004                                ....

2000000c <_impure_ptr>:
2000000c:	20000010                                ... 

20000010 <_impure_data>:
20000010:	00000000 20000920 20000988 200009f0     .... .. ... ... 
	...

2000005c <FLASH_Program_Fast>:
  uint32_t dest = Address;
  uint32_t src = DataAddress;
  uint32_t primask_bit;

  /* Set FSTPG bit */
  SET_BIT(FLASH->CR, FLASH_CR_FSTPG);
2000005c:	2280      	movs	r2, #128	@ 0x80
2000005e:	4b0c      	ldr	r3, [pc, #48]	@ (20000090 <FLASH_Program_Fast+0x34>)
{
20000060:	b530      	push	{r4, r5, lr}
  SET_BIT(FLASH->CR, FLASH_CR_FSTPG);
20000062:	695c      	ldr	r4, [r3, #20]
20000064:	02d2      	lsls	r2, r2, #11
20000066:	4322      	orrs	r2, r4
20000068:	615a      	str	r2, [r3, #20]
  __ASM volatile ("MRS %0, primask" : "=r" (result) :: "memory");
2000006a:	f3ef 8210 	mrs	r2, PRIMASK
  __ASM volatile ("cpsid i" : : : "memory");
2000006e:	b672      	cpsid	i
  /* Enter critical section: row programming should not be longer than 7 ms */
  primask_bit = __get_PRIMASK();
  __disable_irq();

  /* Fast Program : 64 words */
  while (index < 64U)
20000070:	1c4c      	adds	r4, r1, #1
20000072:	34ff      	adds	r4, #255	@ 0xff
  {
    *(uint32_t *)dest = *(uint32_t *)src;
20000074:	1a40      	subs	r0, r0, r1
20000076:	680d      	ldr	r5, [r1, #0]
20000078:	5045      	str	r5, [r0, r1]
    src += 4U;
2000007a:	3104      	adds	r1, #4
  while (index < 64U)
2000007c:	42a1      	cmp	r1, r4
2000007e:	d1fa      	bne.n	20000076 <FLASH_Program_Fast+0x1a>
     be anyway done later */

#if defined(FLASH_DBANK_SUPPORT)
  while ((FLASH->SR & (FLASH_SR_BSY1 | FLASH_SR_BSY2)) != 0x00U)
#else
  while ((FLASH->SR & FLASH_SR_BSY1) != 0x00U)
20000080:	2180      	movs	r1, #128	@ 0x80
20000082:	0249      	lsls	r1, r1, #9
20000084:	6918      	ldr	r0, [r3, #16]
20000086:	4208      	tst	r0, r1
20000088:	d1fc      	bne.n	20000084 <FLASH_Program_Fast+0x28>
  __ASM volatile ("MSR primask, %0" : : "r" (priMask) : "memory");
2000008a:	f382 8810 	msr	PRIMASK, r2
  {
  }

  /* Exit critical section: restore previous priority mask */
  __set_PRIMASK(primask_bit);
}
2000008e:	bd30      	pop	{r4, r5, pc}
20000090:	40022000 	.word	0x40022000
